ARM GAS  /var/folders/7p/1_dhylqx7nl5s8914_0f_4w00000gn/T//ccJwiRQE.s 			page 1


   1              		.cpu cortex-m4
   2              		.eabi_attribute 27, 1
   3              		.eabi_attribute 28, 1
   4              		.eabi_attribute 20, 1
   5              		.eabi_attribute 21, 1
   6              		.eabi_attribute 23, 3
   7              		.eabi_attribute 24, 1
   8              		.eabi_attribute 25, 1
   9              		.eabi_attribute 26, 1
  10              		.eabi_attribute 30, 1
  11              		.eabi_attribute 34, 1
  12              		.eabi_attribute 18, 4
  13              		.file	"stm32f4xx_ll_usb.c"
  14              		.text
  15              	.Ltext0:
  16              		.cfi_sections	.debug_frame
  17              		.section	.text.USB_CoreInit,"ax",%progbits
  18              		.align	1
  19              		.global	USB_CoreInit
  20              		.syntax unified
  21              		.thumb
  22              		.thumb_func
  23              		.fpu fpv4-sp-d16
  25              	USB_CoreInit:
  26              	.LFB124:
  27              		.file 1 "Drivers/STM32F4xx_HAL_Driver/Src/stm32f4xx_ll_usb.c"
   1:Drivers/STM32F4xx_HAL_Driver/Src/stm32f4xx_ll_usb.c **** /**
   2:Drivers/STM32F4xx_HAL_Driver/Src/stm32f4xx_ll_usb.c ****   ******************************************************************************
   3:Drivers/STM32F4xx_HAL_Driver/Src/stm32f4xx_ll_usb.c ****   * @file    stm32f4xx_ll_usb.c
   4:Drivers/STM32F4xx_HAL_Driver/Src/stm32f4xx_ll_usb.c ****   * @author  MCD Application Team
   5:Drivers/STM32F4xx_HAL_Driver/Src/stm32f4xx_ll_usb.c ****   * @version V1.7.1
   6:Drivers/STM32F4xx_HAL_Driver/Src/stm32f4xx_ll_usb.c ****   * @date    14-April-2017
   7:Drivers/STM32F4xx_HAL_Driver/Src/stm32f4xx_ll_usb.c ****   * @brief   USB Low Layer HAL module driver.
   8:Drivers/STM32F4xx_HAL_Driver/Src/stm32f4xx_ll_usb.c ****   *    
   9:Drivers/STM32F4xx_HAL_Driver/Src/stm32f4xx_ll_usb.c ****   *          This file provides firmware functions to manage the following 
  10:Drivers/STM32F4xx_HAL_Driver/Src/stm32f4xx_ll_usb.c ****   *          functionalities of the USB Peripheral Controller:
  11:Drivers/STM32F4xx_HAL_Driver/Src/stm32f4xx_ll_usb.c ****   *           + Initialization/de-initialization functions
  12:Drivers/STM32F4xx_HAL_Driver/Src/stm32f4xx_ll_usb.c ****   *           + I/O operation functions
  13:Drivers/STM32F4xx_HAL_Driver/Src/stm32f4xx_ll_usb.c ****   *           + Peripheral Control functions 
  14:Drivers/STM32F4xx_HAL_Driver/Src/stm32f4xx_ll_usb.c ****   *           + Peripheral State functions
  15:Drivers/STM32F4xx_HAL_Driver/Src/stm32f4xx_ll_usb.c ****   *         
  16:Drivers/STM32F4xx_HAL_Driver/Src/stm32f4xx_ll_usb.c ****   @verbatim
  17:Drivers/STM32F4xx_HAL_Driver/Src/stm32f4xx_ll_usb.c ****   ==============================================================================
  18:Drivers/STM32F4xx_HAL_Driver/Src/stm32f4xx_ll_usb.c ****                     ##### How to use this driver #####
  19:Drivers/STM32F4xx_HAL_Driver/Src/stm32f4xx_ll_usb.c ****   ==============================================================================
  20:Drivers/STM32F4xx_HAL_Driver/Src/stm32f4xx_ll_usb.c ****     [..]
  21:Drivers/STM32F4xx_HAL_Driver/Src/stm32f4xx_ll_usb.c ****       (#) Fill parameters of Init structure in USB_OTG_CfgTypeDef structure.
  22:Drivers/STM32F4xx_HAL_Driver/Src/stm32f4xx_ll_usb.c ****   
  23:Drivers/STM32F4xx_HAL_Driver/Src/stm32f4xx_ll_usb.c ****       (#) Call USB_CoreInit() API to initialize the USB Core peripheral.
  24:Drivers/STM32F4xx_HAL_Driver/Src/stm32f4xx_ll_usb.c **** 
  25:Drivers/STM32F4xx_HAL_Driver/Src/stm32f4xx_ll_usb.c ****       (#) The upper HAL HCD/PCD driver will call the right routines for its internal processes.
  26:Drivers/STM32F4xx_HAL_Driver/Src/stm32f4xx_ll_usb.c **** 
  27:Drivers/STM32F4xx_HAL_Driver/Src/stm32f4xx_ll_usb.c ****   @endverbatim
  28:Drivers/STM32F4xx_HAL_Driver/Src/stm32f4xx_ll_usb.c ****   ******************************************************************************
  29:Drivers/STM32F4xx_HAL_Driver/Src/stm32f4xx_ll_usb.c ****   * @attention
  30:Drivers/STM32F4xx_HAL_Driver/Src/stm32f4xx_ll_usb.c ****   *
  31:Drivers/STM32F4xx_HAL_Driver/Src/stm32f4xx_ll_usb.c ****   * <h2><center>&copy; COPYRIGHT(c) 2017 STMicroelectronics</center></h2>
ARM GAS  /var/folders/7p/1_dhylqx7nl5s8914_0f_4w00000gn/T//ccJwiRQE.s 			page 2


  32:Drivers/STM32F4xx_HAL_Driver/Src/stm32f4xx_ll_usb.c ****   *
  33:Drivers/STM32F4xx_HAL_Driver/Src/stm32f4xx_ll_usb.c ****   * Redistribution and use in source and binary forms, with or without modification,
  34:Drivers/STM32F4xx_HAL_Driver/Src/stm32f4xx_ll_usb.c ****   * are permitted provided that the following conditions are met:
  35:Drivers/STM32F4xx_HAL_Driver/Src/stm32f4xx_ll_usb.c ****   *   1. Redistributions of source code must retain the above copyright notice,
  36:Drivers/STM32F4xx_HAL_Driver/Src/stm32f4xx_ll_usb.c ****   *      this list of conditions and the following disclaimer.
  37:Drivers/STM32F4xx_HAL_Driver/Src/stm32f4xx_ll_usb.c ****   *   2. Redistributions in binary form must reproduce the above copyright notice,
  38:Drivers/STM32F4xx_HAL_Driver/Src/stm32f4xx_ll_usb.c ****   *      this list of conditions and the following disclaimer in the documentation
  39:Drivers/STM32F4xx_HAL_Driver/Src/stm32f4xx_ll_usb.c ****   *      and/or other materials provided with the distribution.
  40:Drivers/STM32F4xx_HAL_Driver/Src/stm32f4xx_ll_usb.c ****   *   3. Neither the name of STMicroelectronics nor the names of its contributors
  41:Drivers/STM32F4xx_HAL_Driver/Src/stm32f4xx_ll_usb.c ****   *      may be used to endorse or promote products derived from this software
  42:Drivers/STM32F4xx_HAL_Driver/Src/stm32f4xx_ll_usb.c ****   *      without specific prior written permission.
  43:Drivers/STM32F4xx_HAL_Driver/Src/stm32f4xx_ll_usb.c ****   *
  44:Drivers/STM32F4xx_HAL_Driver/Src/stm32f4xx_ll_usb.c ****   * THIS SOFTWARE IS PROVIDED BY THE COPYRIGHT HOLDERS AND CONTRIBUTORS "AS IS"
  45:Drivers/STM32F4xx_HAL_Driver/Src/stm32f4xx_ll_usb.c ****   * AND ANY EXPRESS OR IMPLIED WARRANTIES, INCLUDING, BUT NOT LIMITED TO, THE
  46:Drivers/STM32F4xx_HAL_Driver/Src/stm32f4xx_ll_usb.c ****   * IMPLIED WARRANTIES OF MERCHANTABILITY AND FITNESS FOR A PARTICULAR PURPOSE ARE
  47:Drivers/STM32F4xx_HAL_Driver/Src/stm32f4xx_ll_usb.c ****   * DISCLAIMED. IN NO EVENT SHALL THE COPYRIGHT HOLDER OR CONTRIBUTORS BE LIABLE
  48:Drivers/STM32F4xx_HAL_Driver/Src/stm32f4xx_ll_usb.c ****   * FOR ANY DIRECT, INDIRECT, INCIDENTAL, SPECIAL, EXEMPLARY, OR CONSEQUENTIAL
  49:Drivers/STM32F4xx_HAL_Driver/Src/stm32f4xx_ll_usb.c ****   * DAMAGES (INCLUDING, BUT NOT LIMITED TO, PROCUREMENT OF SUBSTITUTE GOODS OR
  50:Drivers/STM32F4xx_HAL_Driver/Src/stm32f4xx_ll_usb.c ****   * SERVICES; LOSS OF USE, DATA, OR PROFITS; OR BUSINESS INTERRUPTION) HOWEVER
  51:Drivers/STM32F4xx_HAL_Driver/Src/stm32f4xx_ll_usb.c ****   * CAUSED AND ON ANY THEORY OF LIABILITY, WHETHER IN CONTRACT, STRICT LIABILITY,
  52:Drivers/STM32F4xx_HAL_Driver/Src/stm32f4xx_ll_usb.c ****   * OR TORT (INCLUDING NEGLIGENCE OR OTHERWISE) ARISING IN ANY WAY OUT OF THE USE
  53:Drivers/STM32F4xx_HAL_Driver/Src/stm32f4xx_ll_usb.c ****   * OF THIS SOFTWARE, EVEN IF ADVISED OF THE POSSIBILITY OF SUCH DAMAGE.
  54:Drivers/STM32F4xx_HAL_Driver/Src/stm32f4xx_ll_usb.c ****   *
  55:Drivers/STM32F4xx_HAL_Driver/Src/stm32f4xx_ll_usb.c ****   ******************************************************************************
  56:Drivers/STM32F4xx_HAL_Driver/Src/stm32f4xx_ll_usb.c ****   */ 
  57:Drivers/STM32F4xx_HAL_Driver/Src/stm32f4xx_ll_usb.c **** 
  58:Drivers/STM32F4xx_HAL_Driver/Src/stm32f4xx_ll_usb.c **** /* Includes ------------------------------------------------------------------*/
  59:Drivers/STM32F4xx_HAL_Driver/Src/stm32f4xx_ll_usb.c **** #include "stm32f4xx_hal.h"
  60:Drivers/STM32F4xx_HAL_Driver/Src/stm32f4xx_ll_usb.c **** 
  61:Drivers/STM32F4xx_HAL_Driver/Src/stm32f4xx_ll_usb.c **** /** @addtogroup STM32F4xx_LL_USB_DRIVER
  62:Drivers/STM32F4xx_HAL_Driver/Src/stm32f4xx_ll_usb.c ****   * @{
  63:Drivers/STM32F4xx_HAL_Driver/Src/stm32f4xx_ll_usb.c ****   */
  64:Drivers/STM32F4xx_HAL_Driver/Src/stm32f4xx_ll_usb.c **** 
  65:Drivers/STM32F4xx_HAL_Driver/Src/stm32f4xx_ll_usb.c **** #if defined(HAL_PCD_MODULE_ENABLED) || defined(HAL_HCD_MODULE_ENABLED)
  66:Drivers/STM32F4xx_HAL_Driver/Src/stm32f4xx_ll_usb.c **** #if defined(STM32F405xx) || defined(STM32F415xx) || defined(STM32F407xx) || defined(STM32F417xx) ||
  67:Drivers/STM32F4xx_HAL_Driver/Src/stm32f4xx_ll_usb.c ****     defined(STM32F427xx) || defined(STM32F437xx) || defined(STM32F429xx) || defined(STM32F439xx) ||
  68:Drivers/STM32F4xx_HAL_Driver/Src/stm32f4xx_ll_usb.c ****     defined(STM32F401xC) || defined(STM32F401xE) || defined(STM32F411xE) || defined(STM32F446xx) ||
  69:Drivers/STM32F4xx_HAL_Driver/Src/stm32f4xx_ll_usb.c ****     defined(STM32F469xx) || defined(STM32F479xx) || defined(STM32F412Zx) || defined(STM32F412Vx) ||
  70:Drivers/STM32F4xx_HAL_Driver/Src/stm32f4xx_ll_usb.c ****     defined(STM32F412Rx) || defined(STM32F412Cx) || defined(STM32F413xx) || defined(STM32F423xx)
  71:Drivers/STM32F4xx_HAL_Driver/Src/stm32f4xx_ll_usb.c **** /* Private typedef -----------------------------------------------------------*/
  72:Drivers/STM32F4xx_HAL_Driver/Src/stm32f4xx_ll_usb.c **** /* Private define ------------------------------------------------------------*/
  73:Drivers/STM32F4xx_HAL_Driver/Src/stm32f4xx_ll_usb.c **** /* Private macro -------------------------------------------------------------*/
  74:Drivers/STM32F4xx_HAL_Driver/Src/stm32f4xx_ll_usb.c **** /* Private variables ---------------------------------------------------------*/
  75:Drivers/STM32F4xx_HAL_Driver/Src/stm32f4xx_ll_usb.c **** /* Private function prototypes -----------------------------------------------*/
  76:Drivers/STM32F4xx_HAL_Driver/Src/stm32f4xx_ll_usb.c **** /* Private functions ---------------------------------------------------------*/
  77:Drivers/STM32F4xx_HAL_Driver/Src/stm32f4xx_ll_usb.c **** static HAL_StatusTypeDef USB_CoreReset(USB_OTG_GlobalTypeDef *USBx);
  78:Drivers/STM32F4xx_HAL_Driver/Src/stm32f4xx_ll_usb.c **** 
  79:Drivers/STM32F4xx_HAL_Driver/Src/stm32f4xx_ll_usb.c **** /* Exported functions --------------------------------------------------------*/
  80:Drivers/STM32F4xx_HAL_Driver/Src/stm32f4xx_ll_usb.c **** 
  81:Drivers/STM32F4xx_HAL_Driver/Src/stm32f4xx_ll_usb.c **** /** @defgroup LL_USB_Exported_Functions USB Low Layer Exported Functions
  82:Drivers/STM32F4xx_HAL_Driver/Src/stm32f4xx_ll_usb.c ****   * @{
  83:Drivers/STM32F4xx_HAL_Driver/Src/stm32f4xx_ll_usb.c ****   */
  84:Drivers/STM32F4xx_HAL_Driver/Src/stm32f4xx_ll_usb.c **** 
  85:Drivers/STM32F4xx_HAL_Driver/Src/stm32f4xx_ll_usb.c **** /** @defgroup LL_USB_Group1 Initialization/de-initialization functions 
  86:Drivers/STM32F4xx_HAL_Driver/Src/stm32f4xx_ll_usb.c ****  *  @brief    Initialization and Configuration functions 
  87:Drivers/STM32F4xx_HAL_Driver/Src/stm32f4xx_ll_usb.c ****  *
  88:Drivers/STM32F4xx_HAL_Driver/Src/stm32f4xx_ll_usb.c **** @verbatim    
ARM GAS  /var/folders/7p/1_dhylqx7nl5s8914_0f_4w00000gn/T//ccJwiRQE.s 			page 3


  89:Drivers/STM32F4xx_HAL_Driver/Src/stm32f4xx_ll_usb.c ****  ===============================================================================
  90:Drivers/STM32F4xx_HAL_Driver/Src/stm32f4xx_ll_usb.c ****               ##### Initialization/de-initialization functions #####
  91:Drivers/STM32F4xx_HAL_Driver/Src/stm32f4xx_ll_usb.c ****  ===============================================================================
  92:Drivers/STM32F4xx_HAL_Driver/Src/stm32f4xx_ll_usb.c ****     [..]  This section provides functions allowing to:
  93:Drivers/STM32F4xx_HAL_Driver/Src/stm32f4xx_ll_usb.c ****  
  94:Drivers/STM32F4xx_HAL_Driver/Src/stm32f4xx_ll_usb.c **** @endverbatim
  95:Drivers/STM32F4xx_HAL_Driver/Src/stm32f4xx_ll_usb.c ****   * @{
  96:Drivers/STM32F4xx_HAL_Driver/Src/stm32f4xx_ll_usb.c ****   */
  97:Drivers/STM32F4xx_HAL_Driver/Src/stm32f4xx_ll_usb.c **** 
  98:Drivers/STM32F4xx_HAL_Driver/Src/stm32f4xx_ll_usb.c **** /**
  99:Drivers/STM32F4xx_HAL_Driver/Src/stm32f4xx_ll_usb.c ****   * @brief  Initializes the USB Core
 100:Drivers/STM32F4xx_HAL_Driver/Src/stm32f4xx_ll_usb.c ****   * @param  USBx: USB Instance
 101:Drivers/STM32F4xx_HAL_Driver/Src/stm32f4xx_ll_usb.c ****   * @param  cfg : pointer to a USB_OTG_CfgTypeDef structure that contains
 102:Drivers/STM32F4xx_HAL_Driver/Src/stm32f4xx_ll_usb.c ****   *         the configuration information for the specified USBx peripheral.
 103:Drivers/STM32F4xx_HAL_Driver/Src/stm32f4xx_ll_usb.c ****   * @retval HAL status
 104:Drivers/STM32F4xx_HAL_Driver/Src/stm32f4xx_ll_usb.c ****   */
 105:Drivers/STM32F4xx_HAL_Driver/Src/stm32f4xx_ll_usb.c **** HAL_StatusTypeDef USB_CoreInit(USB_OTG_GlobalTypeDef *USBx, USB_OTG_CfgTypeDef cfg)
 106:Drivers/STM32F4xx_HAL_Driver/Src/stm32f4xx_ll_usb.c **** {
  28              		.loc 1 106 0
  29              		.cfi_startproc
  30              		@ args = 56, pretend = 16, frame = 0
  31              		@ frame_needed = 0, uses_anonymous_args = 0
  32              	.LVL0:
  33 0000 84B0     		sub	sp, sp, #16
  34              	.LCFI0:
  35              		.cfi_def_cfa_offset 16
  36 0002 10B5     		push	{r4, lr}
  37              	.LCFI1:
  38              		.cfi_def_cfa_offset 24
  39              		.cfi_offset 4, -24
  40              		.cfi_offset 14, -20
  41 0004 0446     		mov	r4, r0
  42 0006 03A8     		add	r0, sp, #12
  43              	.LVL1:
  44 0008 80E80E00 		stm	r0, {r1, r2, r3}
 107:Drivers/STM32F4xx_HAL_Driver/Src/stm32f4xx_ll_usb.c ****   if (cfg.phy_itface == USB_OTG_ULPI_PHY)
  45              		.loc 1 107 0
  46 000c 089B     		ldr	r3, [sp, #32]
  47 000e 012B     		cmp	r3, #1
  48 0010 11D0     		beq	.L7
 108:Drivers/STM32F4xx_HAL_Driver/Src/stm32f4xx_ll_usb.c ****   {
 109:Drivers/STM32F4xx_HAL_Driver/Src/stm32f4xx_ll_usb.c ****     
 110:Drivers/STM32F4xx_HAL_Driver/Src/stm32f4xx_ll_usb.c ****     USBx->GCCFG &= ~(USB_OTG_GCCFG_PWRDWN);
 111:Drivers/STM32F4xx_HAL_Driver/Src/stm32f4xx_ll_usb.c **** 
 112:Drivers/STM32F4xx_HAL_Driver/Src/stm32f4xx_ll_usb.c ****     /* Init The ULPI Interface */
 113:Drivers/STM32F4xx_HAL_Driver/Src/stm32f4xx_ll_usb.c ****     USBx->GUSBCFG &= ~(USB_OTG_GUSBCFG_TSDPS | USB_OTG_GUSBCFG_ULPIFSLS | USB_OTG_GUSBCFG_PHYSEL);
 114:Drivers/STM32F4xx_HAL_Driver/Src/stm32f4xx_ll_usb.c ****    
 115:Drivers/STM32F4xx_HAL_Driver/Src/stm32f4xx_ll_usb.c ****     /* Select vbus source */
 116:Drivers/STM32F4xx_HAL_Driver/Src/stm32f4xx_ll_usb.c ****     USBx->GUSBCFG &= ~(USB_OTG_GUSBCFG_ULPIEVBUSD | USB_OTG_GUSBCFG_ULPIEVBUSI);
 117:Drivers/STM32F4xx_HAL_Driver/Src/stm32f4xx_ll_usb.c ****     if(cfg.use_external_vbus == 1U)
 118:Drivers/STM32F4xx_HAL_Driver/Src/stm32f4xx_ll_usb.c ****     {
 119:Drivers/STM32F4xx_HAL_Driver/Src/stm32f4xx_ll_usb.c ****       USBx->GUSBCFG |= USB_OTG_GUSBCFG_ULPIEVBUSD;
 120:Drivers/STM32F4xx_HAL_Driver/Src/stm32f4xx_ll_usb.c ****     }
 121:Drivers/STM32F4xx_HAL_Driver/Src/stm32f4xx_ll_usb.c ****     /* Reset after a PHY select  */
 122:Drivers/STM32F4xx_HAL_Driver/Src/stm32f4xx_ll_usb.c ****     USB_CoreReset(USBx); 
 123:Drivers/STM32F4xx_HAL_Driver/Src/stm32f4xx_ll_usb.c ****   }
 124:Drivers/STM32F4xx_HAL_Driver/Src/stm32f4xx_ll_usb.c ****   else /* FS interface (embedded Phy) */
ARM GAS  /var/folders/7p/1_dhylqx7nl5s8914_0f_4w00000gn/T//ccJwiRQE.s 			page 4


 125:Drivers/STM32F4xx_HAL_Driver/Src/stm32f4xx_ll_usb.c ****   {
 126:Drivers/STM32F4xx_HAL_Driver/Src/stm32f4xx_ll_usb.c ****     /* Select FS Embedded PHY */
 127:Drivers/STM32F4xx_HAL_Driver/Src/stm32f4xx_ll_usb.c ****     USBx->GUSBCFG |= USB_OTG_GUSBCFG_PHYSEL;
  49              		.loc 1 127 0
  50 0012 E368     		ldr	r3, [r4, #12]
  51 0014 43F04003 		orr	r3, r3, #64
  52 0018 E360     		str	r3, [r4, #12]
 128:Drivers/STM32F4xx_HAL_Driver/Src/stm32f4xx_ll_usb.c ****     
 129:Drivers/STM32F4xx_HAL_Driver/Src/stm32f4xx_ll_usb.c ****     /* Reset after a PHY select and set Host mode */
 130:Drivers/STM32F4xx_HAL_Driver/Src/stm32f4xx_ll_usb.c ****     USB_CoreReset(USBx);
  53              		.loc 1 130 0
  54 001a 2046     		mov	r0, r4
  55 001c FFF7FEFF 		bl	USB_CoreReset
  56              	.LVL2:
 131:Drivers/STM32F4xx_HAL_Driver/Src/stm32f4xx_ll_usb.c ****     
 132:Drivers/STM32F4xx_HAL_Driver/Src/stm32f4xx_ll_usb.c ****     /* Deactivate the power down*/
 133:Drivers/STM32F4xx_HAL_Driver/Src/stm32f4xx_ll_usb.c ****     USBx->GCCFG = USB_OTG_GCCFG_PWRDWN;
  57              		.loc 1 133 0
  58 0020 4FF48033 		mov	r3, #65536
  59 0024 A363     		str	r3, [r4, #56]
  60              	.L4:
 134:Drivers/STM32F4xx_HAL_Driver/Src/stm32f4xx_ll_usb.c ****   }
 135:Drivers/STM32F4xx_HAL_Driver/Src/stm32f4xx_ll_usb.c ****  
 136:Drivers/STM32F4xx_HAL_Driver/Src/stm32f4xx_ll_usb.c ****   if(cfg.dma_enable == ENABLE)
  61              		.loc 1 136 0
  62 0026 069B     		ldr	r3, [sp, #24]
  63 0028 012B     		cmp	r3, #1
  64 002a 1ED0     		beq	.L8
  65              	.L5:
 137:Drivers/STM32F4xx_HAL_Driver/Src/stm32f4xx_ll_usb.c ****   {
 138:Drivers/STM32F4xx_HAL_Driver/Src/stm32f4xx_ll_usb.c ****     USBx->GAHBCFG |= USB_OTG_GAHBCFG_HBSTLEN_2;
 139:Drivers/STM32F4xx_HAL_Driver/Src/stm32f4xx_ll_usb.c ****     USBx->GAHBCFG |= USB_OTG_GAHBCFG_DMAEN;
 140:Drivers/STM32F4xx_HAL_Driver/Src/stm32f4xx_ll_usb.c ****   }  
 141:Drivers/STM32F4xx_HAL_Driver/Src/stm32f4xx_ll_usb.c **** 
 142:Drivers/STM32F4xx_HAL_Driver/Src/stm32f4xx_ll_usb.c ****   return HAL_OK;
 143:Drivers/STM32F4xx_HAL_Driver/Src/stm32f4xx_ll_usb.c **** }
  66              		.loc 1 143 0
  67 002c 0020     		movs	r0, #0
  68 002e BDE81040 		pop	{r4, lr}
  69              	.LCFI2:
  70              		.cfi_remember_state
  71              		.cfi_restore 14
  72              		.cfi_restore 4
  73              		.cfi_def_cfa_offset 16
  74              	.LVL3:
  75 0032 04B0     		add	sp, sp, #16
  76              	.LCFI3:
  77              		.cfi_def_cfa_offset 0
  78 0034 7047     		bx	lr
  79              	.LVL4:
  80              	.L7:
  81              	.LCFI4:
  82              		.cfi_restore_state
 110:Drivers/STM32F4xx_HAL_Driver/Src/stm32f4xx_ll_usb.c **** 
  83              		.loc 1 110 0
  84 0036 A36B     		ldr	r3, [r4, #56]
  85 0038 23F48033 		bic	r3, r3, #65536
ARM GAS  /var/folders/7p/1_dhylqx7nl5s8914_0f_4w00000gn/T//ccJwiRQE.s 			page 5


  86 003c A363     		str	r3, [r4, #56]
 113:Drivers/STM32F4xx_HAL_Driver/Src/stm32f4xx_ll_usb.c ****    
  87              		.loc 1 113 0
  88 003e E368     		ldr	r3, [r4, #12]
  89 0040 23F48403 		bic	r3, r3, #4325376
  90 0044 23F04003 		bic	r3, r3, #64
  91 0048 E360     		str	r3, [r4, #12]
 116:Drivers/STM32F4xx_HAL_Driver/Src/stm32f4xx_ll_usb.c ****     if(cfg.use_external_vbus == 1U)
  92              		.loc 1 116 0
  93 004a E368     		ldr	r3, [r4, #12]
  94 004c 23F44013 		bic	r3, r3, #3145728
  95 0050 E360     		str	r3, [r4, #12]
 117:Drivers/STM32F4xx_HAL_Driver/Src/stm32f4xx_ll_usb.c ****     {
  96              		.loc 1 117 0
  97 0052 0F9B     		ldr	r3, [sp, #60]
  98 0054 012B     		cmp	r3, #1
  99 0056 03D0     		beq	.L9
 100              	.L3:
 122:Drivers/STM32F4xx_HAL_Driver/Src/stm32f4xx_ll_usb.c ****   }
 101              		.loc 1 122 0
 102 0058 2046     		mov	r0, r4
 103 005a FFF7FEFF 		bl	USB_CoreReset
 104              	.LVL5:
 105 005e E2E7     		b	.L4
 106              	.L9:
 119:Drivers/STM32F4xx_HAL_Driver/Src/stm32f4xx_ll_usb.c ****     }
 107              		.loc 1 119 0
 108 0060 E368     		ldr	r3, [r4, #12]
 109 0062 43F48013 		orr	r3, r3, #1048576
 110 0066 E360     		str	r3, [r4, #12]
 111 0068 F6E7     		b	.L3
 112              	.L8:
 138:Drivers/STM32F4xx_HAL_Driver/Src/stm32f4xx_ll_usb.c ****     USBx->GAHBCFG |= USB_OTG_GAHBCFG_DMAEN;
 113              		.loc 1 138 0
 114 006a A368     		ldr	r3, [r4, #8]
 115 006c 43F00603 		orr	r3, r3, #6
 116 0070 A360     		str	r3, [r4, #8]
 139:Drivers/STM32F4xx_HAL_Driver/Src/stm32f4xx_ll_usb.c ****   }  
 117              		.loc 1 139 0
 118 0072 A368     		ldr	r3, [r4, #8]
 119 0074 43F02003 		orr	r3, r3, #32
 120 0078 A360     		str	r3, [r4, #8]
 121 007a D7E7     		b	.L5
 122              		.cfi_endproc
 123              	.LFE124:
 125              		.section	.text.USB_EnableGlobalInt,"ax",%progbits
 126              		.align	1
 127              		.global	USB_EnableGlobalInt
 128              		.syntax unified
 129              		.thumb
 130              		.thumb_func
 131              		.fpu fpv4-sp-d16
 133              	USB_EnableGlobalInt:
 134              	.LFB125:
 144:Drivers/STM32F4xx_HAL_Driver/Src/stm32f4xx_ll_usb.c **** 
 145:Drivers/STM32F4xx_HAL_Driver/Src/stm32f4xx_ll_usb.c **** /**
 146:Drivers/STM32F4xx_HAL_Driver/Src/stm32f4xx_ll_usb.c ****   * @brief  USB_EnableGlobalInt
ARM GAS  /var/folders/7p/1_dhylqx7nl5s8914_0f_4w00000gn/T//ccJwiRQE.s 			page 6


 147:Drivers/STM32F4xx_HAL_Driver/Src/stm32f4xx_ll_usb.c ****   *         Enables the controller's Global Int in the AHB Config reg
 148:Drivers/STM32F4xx_HAL_Driver/Src/stm32f4xx_ll_usb.c ****   * @param  USBx : Selected device
 149:Drivers/STM32F4xx_HAL_Driver/Src/stm32f4xx_ll_usb.c ****   * @retval HAL status
 150:Drivers/STM32F4xx_HAL_Driver/Src/stm32f4xx_ll_usb.c ****   */
 151:Drivers/STM32F4xx_HAL_Driver/Src/stm32f4xx_ll_usb.c **** HAL_StatusTypeDef USB_EnableGlobalInt(USB_OTG_GlobalTypeDef *USBx)
 152:Drivers/STM32F4xx_HAL_Driver/Src/stm32f4xx_ll_usb.c **** {
 135              		.loc 1 152 0
 136              		.cfi_startproc
 137              		@ args = 0, pretend = 0, frame = 0
 138              		@ frame_needed = 0, uses_anonymous_args = 0
 139              		@ link register save eliminated.
 140              	.LVL6:
 153:Drivers/STM32F4xx_HAL_Driver/Src/stm32f4xx_ll_usb.c ****   USBx->GAHBCFG |= USB_OTG_GAHBCFG_GINT;
 141              		.loc 1 153 0
 142 0000 8368     		ldr	r3, [r0, #8]
 143 0002 43F00103 		orr	r3, r3, #1
 144 0006 8360     		str	r3, [r0, #8]
 154:Drivers/STM32F4xx_HAL_Driver/Src/stm32f4xx_ll_usb.c ****   return HAL_OK;
 155:Drivers/STM32F4xx_HAL_Driver/Src/stm32f4xx_ll_usb.c **** }
 145              		.loc 1 155 0
 146 0008 0020     		movs	r0, #0
 147              	.LVL7:
 148 000a 7047     		bx	lr
 149              		.cfi_endproc
 150              	.LFE125:
 152              		.section	.text.USB_DisableGlobalInt,"ax",%progbits
 153              		.align	1
 154              		.global	USB_DisableGlobalInt
 155              		.syntax unified
 156              		.thumb
 157              		.thumb_func
 158              		.fpu fpv4-sp-d16
 160              	USB_DisableGlobalInt:
 161              	.LFB126:
 156:Drivers/STM32F4xx_HAL_Driver/Src/stm32f4xx_ll_usb.c **** 
 157:Drivers/STM32F4xx_HAL_Driver/Src/stm32f4xx_ll_usb.c **** 
 158:Drivers/STM32F4xx_HAL_Driver/Src/stm32f4xx_ll_usb.c **** /**
 159:Drivers/STM32F4xx_HAL_Driver/Src/stm32f4xx_ll_usb.c ****   * @brief  USB_DisableGlobalInt
 160:Drivers/STM32F4xx_HAL_Driver/Src/stm32f4xx_ll_usb.c ****   *         Disable the controller's Global Int in the AHB Config reg
 161:Drivers/STM32F4xx_HAL_Driver/Src/stm32f4xx_ll_usb.c ****   * @param  USBx : Selected device
 162:Drivers/STM32F4xx_HAL_Driver/Src/stm32f4xx_ll_usb.c ****   * @retval HAL status
 163:Drivers/STM32F4xx_HAL_Driver/Src/stm32f4xx_ll_usb.c **** */
 164:Drivers/STM32F4xx_HAL_Driver/Src/stm32f4xx_ll_usb.c **** HAL_StatusTypeDef USB_DisableGlobalInt(USB_OTG_GlobalTypeDef *USBx)
 165:Drivers/STM32F4xx_HAL_Driver/Src/stm32f4xx_ll_usb.c **** {
 162              		.loc 1 165 0
 163              		.cfi_startproc
 164              		@ args = 0, pretend = 0, frame = 0
 165              		@ frame_needed = 0, uses_anonymous_args = 0
 166              		@ link register save eliminated.
 167              	.LVL8:
 166:Drivers/STM32F4xx_HAL_Driver/Src/stm32f4xx_ll_usb.c ****   USBx->GAHBCFG &= ~USB_OTG_GAHBCFG_GINT;
 168              		.loc 1 166 0
 169 0000 8368     		ldr	r3, [r0, #8]
 170 0002 23F00103 		bic	r3, r3, #1
 171 0006 8360     		str	r3, [r0, #8]
 167:Drivers/STM32F4xx_HAL_Driver/Src/stm32f4xx_ll_usb.c ****   return HAL_OK;
 168:Drivers/STM32F4xx_HAL_Driver/Src/stm32f4xx_ll_usb.c **** }
ARM GAS  /var/folders/7p/1_dhylqx7nl5s8914_0f_4w00000gn/T//ccJwiRQE.s 			page 7


 172              		.loc 1 168 0
 173 0008 0020     		movs	r0, #0
 174              	.LVL9:
 175 000a 7047     		bx	lr
 176              		.cfi_endproc
 177              	.LFE126:
 179              		.section	.text.USB_SetCurrentMode,"ax",%progbits
 180              		.align	1
 181              		.global	USB_SetCurrentMode
 182              		.syntax unified
 183              		.thumb
 184              		.thumb_func
 185              		.fpu fpv4-sp-d16
 187              	USB_SetCurrentMode:
 188              	.LFB127:
 169:Drivers/STM32F4xx_HAL_Driver/Src/stm32f4xx_ll_usb.c ****    
 170:Drivers/STM32F4xx_HAL_Driver/Src/stm32f4xx_ll_usb.c **** /**
 171:Drivers/STM32F4xx_HAL_Driver/Src/stm32f4xx_ll_usb.c ****   * @brief  USB_SetCurrentMode : Set functional mode
 172:Drivers/STM32F4xx_HAL_Driver/Src/stm32f4xx_ll_usb.c ****   * @param  USBx : Selected device
 173:Drivers/STM32F4xx_HAL_Driver/Src/stm32f4xx_ll_usb.c ****   * @param  mode :  current core mode
 174:Drivers/STM32F4xx_HAL_Driver/Src/stm32f4xx_ll_usb.c ****   *          This parameter can be one of these values:
 175:Drivers/STM32F4xx_HAL_Driver/Src/stm32f4xx_ll_usb.c ****   *            @arg USB_OTG_DEVICE_MODE: Peripheral mode
 176:Drivers/STM32F4xx_HAL_Driver/Src/stm32f4xx_ll_usb.c ****   *            @arg USB_OTG_HOST_MODE: Host mode
 177:Drivers/STM32F4xx_HAL_Driver/Src/stm32f4xx_ll_usb.c ****   *            @arg USB_OTG_DRD_MODE: Dual Role Device mode  
 178:Drivers/STM32F4xx_HAL_Driver/Src/stm32f4xx_ll_usb.c ****   * @retval HAL status
 179:Drivers/STM32F4xx_HAL_Driver/Src/stm32f4xx_ll_usb.c ****   */
 180:Drivers/STM32F4xx_HAL_Driver/Src/stm32f4xx_ll_usb.c **** HAL_StatusTypeDef USB_SetCurrentMode(USB_OTG_GlobalTypeDef *USBx , USB_OTG_ModeTypeDef mode)
 181:Drivers/STM32F4xx_HAL_Driver/Src/stm32f4xx_ll_usb.c **** {
 189              		.loc 1 181 0
 190              		.cfi_startproc
 191              		@ args = 0, pretend = 0, frame = 0
 192              		@ frame_needed = 0, uses_anonymous_args = 0
 193              	.LVL10:
 194 0000 08B5     		push	{r3, lr}
 195              	.LCFI5:
 196              		.cfi_def_cfa_offset 8
 197              		.cfi_offset 3, -8
 198              		.cfi_offset 14, -4
 182:Drivers/STM32F4xx_HAL_Driver/Src/stm32f4xx_ll_usb.c ****   USBx->GUSBCFG &= ~(USB_OTG_GUSBCFG_FHMOD | USB_OTG_GUSBCFG_FDMOD); 
 199              		.loc 1 182 0
 200 0002 C368     		ldr	r3, [r0, #12]
 201 0004 23F0C043 		bic	r3, r3, #1610612736
 202 0008 C360     		str	r3, [r0, #12]
 183:Drivers/STM32F4xx_HAL_Driver/Src/stm32f4xx_ll_usb.c ****   
 184:Drivers/STM32F4xx_HAL_Driver/Src/stm32f4xx_ll_usb.c ****   if ( mode == USB_OTG_HOST_MODE)
 203              		.loc 1 184 0
 204 000a 0129     		cmp	r1, #1
 205 000c 09D0     		beq	.L16
 185:Drivers/STM32F4xx_HAL_Driver/Src/stm32f4xx_ll_usb.c ****   {
 186:Drivers/STM32F4xx_HAL_Driver/Src/stm32f4xx_ll_usb.c ****     USBx->GUSBCFG |= USB_OTG_GUSBCFG_FHMOD; 
 187:Drivers/STM32F4xx_HAL_Driver/Src/stm32f4xx_ll_usb.c ****   }
 188:Drivers/STM32F4xx_HAL_Driver/Src/stm32f4xx_ll_usb.c ****   else if ( mode == USB_OTG_DEVICE_MODE)
 206              		.loc 1 188 0
 207 000e 19B9     		cbnz	r1, .L14
 189:Drivers/STM32F4xx_HAL_Driver/Src/stm32f4xx_ll_usb.c ****   {
 190:Drivers/STM32F4xx_HAL_Driver/Src/stm32f4xx_ll_usb.c ****     USBx->GUSBCFG |= USB_OTG_GUSBCFG_FDMOD; 
 208              		.loc 1 190 0
ARM GAS  /var/folders/7p/1_dhylqx7nl5s8914_0f_4w00000gn/T//ccJwiRQE.s 			page 8


 209 0010 C368     		ldr	r3, [r0, #12]
 210 0012 43F08043 		orr	r3, r3, #1073741824
 211 0016 C360     		str	r3, [r0, #12]
 212              	.L14:
 191:Drivers/STM32F4xx_HAL_Driver/Src/stm32f4xx_ll_usb.c ****   }
 192:Drivers/STM32F4xx_HAL_Driver/Src/stm32f4xx_ll_usb.c ****   HAL_Delay(50U);
 213              		.loc 1 192 0
 214 0018 3220     		movs	r0, #50
 215              	.LVL11:
 216 001a FFF7FEFF 		bl	HAL_Delay
 217              	.LVL12:
 193:Drivers/STM32F4xx_HAL_Driver/Src/stm32f4xx_ll_usb.c ****   
 194:Drivers/STM32F4xx_HAL_Driver/Src/stm32f4xx_ll_usb.c ****   return HAL_OK;
 195:Drivers/STM32F4xx_HAL_Driver/Src/stm32f4xx_ll_usb.c **** }
 218              		.loc 1 195 0
 219 001e 0020     		movs	r0, #0
 220 0020 08BD     		pop	{r3, pc}
 221              	.LVL13:
 222              	.L16:
 186:Drivers/STM32F4xx_HAL_Driver/Src/stm32f4xx_ll_usb.c ****   }
 223              		.loc 1 186 0
 224 0022 C368     		ldr	r3, [r0, #12]
 225 0024 43F00053 		orr	r3, r3, #536870912
 226 0028 C360     		str	r3, [r0, #12]
 227 002a F5E7     		b	.L14
 228              		.cfi_endproc
 229              	.LFE127:
 231              		.section	.text.USB_DevInit,"ax",%progbits
 232              		.align	1
 233              		.global	USB_DevInit
 234              		.syntax unified
 235              		.thumb
 236              		.thumb_func
 237              		.fpu fpv4-sp-d16
 239              	USB_DevInit:
 240              	.LFB128:
 196:Drivers/STM32F4xx_HAL_Driver/Src/stm32f4xx_ll_usb.c **** 
 197:Drivers/STM32F4xx_HAL_Driver/Src/stm32f4xx_ll_usb.c **** /**
 198:Drivers/STM32F4xx_HAL_Driver/Src/stm32f4xx_ll_usb.c ****   * @brief  USB_DevInit : Initializes the USB_OTG controller registers 
 199:Drivers/STM32F4xx_HAL_Driver/Src/stm32f4xx_ll_usb.c ****   *         for device mode
 200:Drivers/STM32F4xx_HAL_Driver/Src/stm32f4xx_ll_usb.c ****   * @param  USBx : Selected device
 201:Drivers/STM32F4xx_HAL_Driver/Src/stm32f4xx_ll_usb.c ****   * @param  cfg  : pointer to a USB_OTG_CfgTypeDef structure that contains
 202:Drivers/STM32F4xx_HAL_Driver/Src/stm32f4xx_ll_usb.c ****   *         the configuration information for the specified USBx peripheral.
 203:Drivers/STM32F4xx_HAL_Driver/Src/stm32f4xx_ll_usb.c ****   * @retval HAL status
 204:Drivers/STM32F4xx_HAL_Driver/Src/stm32f4xx_ll_usb.c ****   */
 205:Drivers/STM32F4xx_HAL_Driver/Src/stm32f4xx_ll_usb.c **** HAL_StatusTypeDef USB_DevInit (USB_OTG_GlobalTypeDef *USBx, USB_OTG_CfgTypeDef cfg)
 206:Drivers/STM32F4xx_HAL_Driver/Src/stm32f4xx_ll_usb.c **** {
 241              		.loc 1 206 0
 242              		.cfi_startproc
 243              		@ args = 56, pretend = 16, frame = 0
 244              		@ frame_needed = 0, uses_anonymous_args = 0
 245              	.LVL14:
 246 0000 84B0     		sub	sp, sp, #16
 247              	.LCFI6:
 248              		.cfi_def_cfa_offset 16
 249 0002 F8B5     		push	{r3, r4, r5, r6, r7, lr}
 250              	.LCFI7:
ARM GAS  /var/folders/7p/1_dhylqx7nl5s8914_0f_4w00000gn/T//ccJwiRQE.s 			page 9


 251              		.cfi_def_cfa_offset 40
 252              		.cfi_offset 3, -40
 253              		.cfi_offset 4, -36
 254              		.cfi_offset 5, -32
 255              		.cfi_offset 6, -28
 256              		.cfi_offset 7, -24
 257              		.cfi_offset 14, -20
 258 0004 0546     		mov	r5, r0
 259 0006 07A8     		add	r0, sp, #28
 260              	.LVL15:
 261 0008 80E80E00 		stm	r0, {r1, r2, r3}
 262              	.LVL16:
 207:Drivers/STM32F4xx_HAL_Driver/Src/stm32f4xx_ll_usb.c ****   uint32_t i = 0U;
 208:Drivers/STM32F4xx_HAL_Driver/Src/stm32f4xx_ll_usb.c **** 
 209:Drivers/STM32F4xx_HAL_Driver/Src/stm32f4xx_ll_usb.c ****   /*Activate VBUS Sensing B */
 210:Drivers/STM32F4xx_HAL_Driver/Src/stm32f4xx_ll_usb.c **** #if defined(STM32F446xx) || defined(STM32F469xx) || defined(STM32F479xx) || defined(STM32F412Zx) ||
 211:Drivers/STM32F4xx_HAL_Driver/Src/stm32f4xx_ll_usb.c ****     defined(STM32F412Rx) || defined(STM32F412Cx) || defined(STM32F413xx) || defined(STM32F423xx)
 212:Drivers/STM32F4xx_HAL_Driver/Src/stm32f4xx_ll_usb.c ****   USBx->GCCFG |= USB_OTG_GCCFG_VBDEN;
 213:Drivers/STM32F4xx_HAL_Driver/Src/stm32f4xx_ll_usb.c ****   
 214:Drivers/STM32F4xx_HAL_Driver/Src/stm32f4xx_ll_usb.c ****   if (cfg.vbus_sensing_enable == 0U)
 215:Drivers/STM32F4xx_HAL_Driver/Src/stm32f4xx_ll_usb.c ****   {
 216:Drivers/STM32F4xx_HAL_Driver/Src/stm32f4xx_ll_usb.c ****     /* Deactivate VBUS Sensing B */
 217:Drivers/STM32F4xx_HAL_Driver/Src/stm32f4xx_ll_usb.c ****     USBx->GCCFG &= ~USB_OTG_GCCFG_VBDEN;
 218:Drivers/STM32F4xx_HAL_Driver/Src/stm32f4xx_ll_usb.c ****     
 219:Drivers/STM32F4xx_HAL_Driver/Src/stm32f4xx_ll_usb.c ****     /* B-peripheral session valid override enable*/ 
 220:Drivers/STM32F4xx_HAL_Driver/Src/stm32f4xx_ll_usb.c ****     USBx->GOTGCTL |= USB_OTG_GOTGCTL_BVALOEN;
 221:Drivers/STM32F4xx_HAL_Driver/Src/stm32f4xx_ll_usb.c ****     USBx->GOTGCTL |= USB_OTG_GOTGCTL_BVALOVAL;
 222:Drivers/STM32F4xx_HAL_Driver/Src/stm32f4xx_ll_usb.c ****   }
 223:Drivers/STM32F4xx_HAL_Driver/Src/stm32f4xx_ll_usb.c **** #else
 224:Drivers/STM32F4xx_HAL_Driver/Src/stm32f4xx_ll_usb.c ****   if (cfg.vbus_sensing_enable == 0U)
 263              		.loc 1 224 0
 264 000c 119F     		ldr	r7, [sp, #68]
 265 000e 1FBB     		cbnz	r7, .L18
 225:Drivers/STM32F4xx_HAL_Driver/Src/stm32f4xx_ll_usb.c ****   {
 226:Drivers/STM32F4xx_HAL_Driver/Src/stm32f4xx_ll_usb.c ****     USBx->GCCFG |= USB_OTG_GCCFG_NOVBUSSENS;
 266              		.loc 1 226 0
 267 0010 AB6B     		ldr	r3, [r5, #56]
 268 0012 43F40013 		orr	r3, r3, #2097152
 269 0016 AB63     		str	r3, [r5, #56]
 270              	.L19:
 227:Drivers/STM32F4xx_HAL_Driver/Src/stm32f4xx_ll_usb.c ****   }
 228:Drivers/STM32F4xx_HAL_Driver/Src/stm32f4xx_ll_usb.c ****   else
 229:Drivers/STM32F4xx_HAL_Driver/Src/stm32f4xx_ll_usb.c ****   {
 230:Drivers/STM32F4xx_HAL_Driver/Src/stm32f4xx_ll_usb.c ****     /* Enable VBUS */
 231:Drivers/STM32F4xx_HAL_Driver/Src/stm32f4xx_ll_usb.c ****     USBx->GCCFG |= USB_OTG_GCCFG_VBUSBSEN;
 232:Drivers/STM32F4xx_HAL_Driver/Src/stm32f4xx_ll_usb.c ****   }
 233:Drivers/STM32F4xx_HAL_Driver/Src/stm32f4xx_ll_usb.c **** #endif /* STM32F446xx || STM32F469xx || STM32F479xx || STM32F412Zx || STM32F412Rx || STM32F412Vx ||
 234:Drivers/STM32F4xx_HAL_Driver/Src/stm32f4xx_ll_usb.c ****   
 235:Drivers/STM32F4xx_HAL_Driver/Src/stm32f4xx_ll_usb.c ****   /* Restart the Phy Clock */
 236:Drivers/STM32F4xx_HAL_Driver/Src/stm32f4xx_ll_usb.c ****   USBx_PCGCCTL = 0U;
 271              		.loc 1 236 0
 272 0018 2C46     		mov	r4, r5
 273 001a 0023     		movs	r3, #0
 274 001c C5F8003E 		str	r3, [r5, #3584]
 237:Drivers/STM32F4xx_HAL_Driver/Src/stm32f4xx_ll_usb.c ****   
 238:Drivers/STM32F4xx_HAL_Driver/Src/stm32f4xx_ll_usb.c ****   /* Device mode configuration */
 239:Drivers/STM32F4xx_HAL_Driver/Src/stm32f4xx_ll_usb.c ****   USBx_DEVICE->DCFG |= DCFG_FRAME_INTERVAL_80;
ARM GAS  /var/folders/7p/1_dhylqx7nl5s8914_0f_4w00000gn/T//ccJwiRQE.s 			page 10


 275              		.loc 1 239 0
 276 0020 05F50066 		add	r6, r5, #2048
 277 0024 D5F80038 		ldr	r3, [r5, #2048]
 278 0028 C5F80038 		str	r3, [r5, #2048]
 240:Drivers/STM32F4xx_HAL_Driver/Src/stm32f4xx_ll_usb.c ****   
 241:Drivers/STM32F4xx_HAL_Driver/Src/stm32f4xx_ll_usb.c ****   if(cfg.phy_itface  == USB_OTG_ULPI_PHY)
 279              		.loc 1 241 0
 280 002c 0C9B     		ldr	r3, [sp, #48]
 281 002e 012B     		cmp	r3, #1
 282 0030 17D0     		beq	.L36
 283              	.LVL17:
 242:Drivers/STM32F4xx_HAL_Driver/Src/stm32f4xx_ll_usb.c ****   {
 243:Drivers/STM32F4xx_HAL_Driver/Src/stm32f4xx_ll_usb.c ****     if(cfg.speed == USB_OTG_SPEED_HIGH)
 244:Drivers/STM32F4xx_HAL_Driver/Src/stm32f4xx_ll_usb.c ****     {      
 245:Drivers/STM32F4xx_HAL_Driver/Src/stm32f4xx_ll_usb.c ****       /* Set High speed phy */
 246:Drivers/STM32F4xx_HAL_Driver/Src/stm32f4xx_ll_usb.c ****       USB_SetDevSpeed (USBx , USB_OTG_SPEED_HIGH);
 247:Drivers/STM32F4xx_HAL_Driver/Src/stm32f4xx_ll_usb.c ****     }
 248:Drivers/STM32F4xx_HAL_Driver/Src/stm32f4xx_ll_usb.c ****     else 
 249:Drivers/STM32F4xx_HAL_Driver/Src/stm32f4xx_ll_usb.c ****     {
 250:Drivers/STM32F4xx_HAL_Driver/Src/stm32f4xx_ll_usb.c ****       /* set High speed phy in Full speed mode */
 251:Drivers/STM32F4xx_HAL_Driver/Src/stm32f4xx_ll_usb.c ****       USB_SetDevSpeed (USBx , USB_OTG_SPEED_HIGH_IN_FULL);
 252:Drivers/STM32F4xx_HAL_Driver/Src/stm32f4xx_ll_usb.c ****     }
 253:Drivers/STM32F4xx_HAL_Driver/Src/stm32f4xx_ll_usb.c ****   }
 254:Drivers/STM32F4xx_HAL_Driver/Src/stm32f4xx_ll_usb.c ****   else
 255:Drivers/STM32F4xx_HAL_Driver/Src/stm32f4xx_ll_usb.c ****   {
 256:Drivers/STM32F4xx_HAL_Driver/Src/stm32f4xx_ll_usb.c ****     /* Set Full speed phy */
 257:Drivers/STM32F4xx_HAL_Driver/Src/stm32f4xx_ll_usb.c ****     USB_SetDevSpeed (USBx , USB_OTG_SPEED_FULL);
 284              		.loc 1 257 0
 285 0032 0321     		movs	r1, #3
 286 0034 2846     		mov	r0, r5
 287 0036 FFF7FEFF 		bl	USB_SetDevSpeed
 288              	.LVL18:
 289              	.L22:
 258:Drivers/STM32F4xx_HAL_Driver/Src/stm32f4xx_ll_usb.c ****   }
 259:Drivers/STM32F4xx_HAL_Driver/Src/stm32f4xx_ll_usb.c **** 
 260:Drivers/STM32F4xx_HAL_Driver/Src/stm32f4xx_ll_usb.c ****   /* Flush the FIFOs */
 261:Drivers/STM32F4xx_HAL_Driver/Src/stm32f4xx_ll_usb.c ****   USB_FlushTxFifo(USBx , 0x10U); /* all Tx FIFOs */
 290              		.loc 1 261 0
 291 003a 1021     		movs	r1, #16
 292 003c 2846     		mov	r0, r5
 293 003e FFF7FEFF 		bl	USB_FlushTxFifo
 294              	.LVL19:
 262:Drivers/STM32F4xx_HAL_Driver/Src/stm32f4xx_ll_usb.c ****   USB_FlushRxFifo(USBx);
 295              		.loc 1 262 0
 296 0042 2846     		mov	r0, r5
 297 0044 FFF7FEFF 		bl	USB_FlushRxFifo
 298              	.LVL20:
 263:Drivers/STM32F4xx_HAL_Driver/Src/stm32f4xx_ll_usb.c ****   
 264:Drivers/STM32F4xx_HAL_Driver/Src/stm32f4xx_ll_usb.c ****   /* Clear all pending Device Interrupts */
 265:Drivers/STM32F4xx_HAL_Driver/Src/stm32f4xx_ll_usb.c ****   USBx_DEVICE->DIEPMSK = 0U;
 299              		.loc 1 265 0
 300 0048 0023     		movs	r3, #0
 301 004a 3361     		str	r3, [r6, #16]
 266:Drivers/STM32F4xx_HAL_Driver/Src/stm32f4xx_ll_usb.c ****   USBx_DEVICE->DOEPMSK = 0U;
 302              		.loc 1 266 0
 303 004c 7361     		str	r3, [r6, #20]
 267:Drivers/STM32F4xx_HAL_Driver/Src/stm32f4xx_ll_usb.c ****   USBx_DEVICE->DAINT = 0xFFFFFFFFU;
ARM GAS  /var/folders/7p/1_dhylqx7nl5s8914_0f_4w00000gn/T//ccJwiRQE.s 			page 11


 304              		.loc 1 267 0
 305 004e 4FF0FF32 		mov	r2, #-1
 306 0052 B261     		str	r2, [r6, #24]
 268:Drivers/STM32F4xx_HAL_Driver/Src/stm32f4xx_ll_usb.c ****   USBx_DEVICE->DAINTMSK = 0U;
 307              		.loc 1 268 0
 308 0054 F361     		str	r3, [r6, #28]
 269:Drivers/STM32F4xx_HAL_Driver/Src/stm32f4xx_ll_usb.c ****   
 270:Drivers/STM32F4xx_HAL_Driver/Src/stm32f4xx_ll_usb.c ****   for (i = 0U; i < cfg.dev_endpoints; i++)
 309              		.loc 1 270 0
 310 0056 19E0     		b	.L23
 311              	.LVL21:
 312              	.L18:
 231:Drivers/STM32F4xx_HAL_Driver/Src/stm32f4xx_ll_usb.c ****   }
 313              		.loc 1 231 0
 314 0058 AB6B     		ldr	r3, [r5, #56]
 315 005a 43F40023 		orr	r3, r3, #524288
 316 005e AB63     		str	r3, [r5, #56]
 317 0060 DAE7     		b	.L19
 318              	.LVL22:
 319              	.L36:
 243:Drivers/STM32F4xx_HAL_Driver/Src/stm32f4xx_ll_usb.c ****     {      
 320              		.loc 1 243 0
 321 0062 099B     		ldr	r3, [sp, #36]
 322 0064 23B9     		cbnz	r3, .L21
 246:Drivers/STM32F4xx_HAL_Driver/Src/stm32f4xx_ll_usb.c ****     }
 323              		.loc 1 246 0
 324 0066 0021     		movs	r1, #0
 325 0068 2846     		mov	r0, r5
 326 006a FFF7FEFF 		bl	USB_SetDevSpeed
 327              	.LVL23:
 328 006e E4E7     		b	.L22
 329              	.L21:
 251:Drivers/STM32F4xx_HAL_Driver/Src/stm32f4xx_ll_usb.c ****     }
 330              		.loc 1 251 0
 331 0070 0121     		movs	r1, #1
 332 0072 2846     		mov	r0, r5
 333 0074 FFF7FEFF 		bl	USB_SetDevSpeed
 334              	.LVL24:
 335 0078 DFE7     		b	.L22
 336              	.LVL25:
 337              	.L38:
 271:Drivers/STM32F4xx_HAL_Driver/Src/stm32f4xx_ll_usb.c ****   {
 272:Drivers/STM32F4xx_HAL_Driver/Src/stm32f4xx_ll_usb.c ****     if ((USBx_INEP(i)->DIEPCTL & USB_OTG_DIEPCTL_EPENA) == USB_OTG_DIEPCTL_EPENA)
 273:Drivers/STM32F4xx_HAL_Driver/Src/stm32f4xx_ll_usb.c ****     {
 274:Drivers/STM32F4xx_HAL_Driver/Src/stm32f4xx_ll_usb.c ****       USBx_INEP(i)->DIEPCTL = (USB_OTG_DIEPCTL_EPDIS | USB_OTG_DIEPCTL_SNAK);
 338              		.loc 1 274 0
 339 007a 4FF09040 		mov	r0, #1207959552
 340 007e C2F80009 		str	r0, [r2, #2304]
 341              	.L25:
 275:Drivers/STM32F4xx_HAL_Driver/Src/stm32f4xx_ll_usb.c ****     }
 276:Drivers/STM32F4xx_HAL_Driver/Src/stm32f4xx_ll_usb.c ****     else
 277:Drivers/STM32F4xx_HAL_Driver/Src/stm32f4xx_ll_usb.c ****     {
 278:Drivers/STM32F4xx_HAL_Driver/Src/stm32f4xx_ll_usb.c ****       USBx_INEP(i)->DIEPCTL = 0U;
 279:Drivers/STM32F4xx_HAL_Driver/Src/stm32f4xx_ll_usb.c ****     }
 280:Drivers/STM32F4xx_HAL_Driver/Src/stm32f4xx_ll_usb.c ****     
 281:Drivers/STM32F4xx_HAL_Driver/Src/stm32f4xx_ll_usb.c ****     USBx_INEP(i)->DIEPTSIZ = 0U;
 342              		.loc 1 281 0 discriminator 2
ARM GAS  /var/folders/7p/1_dhylqx7nl5s8914_0f_4w00000gn/T//ccJwiRQE.s 			page 12


 343 0082 0022     		movs	r2, #0
 344 0084 0A61     		str	r2, [r1, #16]
 282:Drivers/STM32F4xx_HAL_Driver/Src/stm32f4xx_ll_usb.c ****     USBx_INEP(i)->DIEPINT  = 0xFFU;
 345              		.loc 1 282 0 discriminator 2
 346 0086 FF22     		movs	r2, #255
 347 0088 8A60     		str	r2, [r1, #8]
 270:Drivers/STM32F4xx_HAL_Driver/Src/stm32f4xx_ll_usb.c ****   {
 348              		.loc 1 270 0 discriminator 2
 349 008a 0133     		adds	r3, r3, #1
 350              	.LVL26:
 351              	.L23:
 270:Drivers/STM32F4xx_HAL_Driver/Src/stm32f4xx_ll_usb.c ****   {
 352              		.loc 1 270 0 is_stmt 0 discriminator 1
 353 008c 0799     		ldr	r1, [sp, #28]
 354 008e 8B42     		cmp	r3, r1
 355 0090 0BD2     		bcs	.L37
 272:Drivers/STM32F4xx_HAL_Driver/Src/stm32f4xx_ll_usb.c ****     {
 356              		.loc 1 272 0 is_stmt 1
 357 0092 04EB4312 		add	r2, r4, r3, lsl #5
 358 0096 02F51061 		add	r1, r2, #2304
 359 009a D2F80009 		ldr	r0, [r2, #2304]
 360 009e 0028     		cmp	r0, #0
 361 00a0 EBDB     		blt	.L38
 278:Drivers/STM32F4xx_HAL_Driver/Src/stm32f4xx_ll_usb.c ****     }
 362              		.loc 1 278 0
 363 00a2 0020     		movs	r0, #0
 364 00a4 C2F80009 		str	r0, [r2, #2304]
 365 00a8 EBE7     		b	.L25
 366              	.L37:
 367 00aa 0023     		movs	r3, #0
 368              	.LVL27:
 369 00ac 08E0     		b	.L27
 370              	.LVL28:
 371              	.L40:
 283:Drivers/STM32F4xx_HAL_Driver/Src/stm32f4xx_ll_usb.c ****   }
 284:Drivers/STM32F4xx_HAL_Driver/Src/stm32f4xx_ll_usb.c ****   
 285:Drivers/STM32F4xx_HAL_Driver/Src/stm32f4xx_ll_usb.c ****   for (i = 0U; i < cfg.dev_endpoints; i++)
 286:Drivers/STM32F4xx_HAL_Driver/Src/stm32f4xx_ll_usb.c ****   {
 287:Drivers/STM32F4xx_HAL_Driver/Src/stm32f4xx_ll_usb.c ****     if ((USBx_OUTEP(i)->DOEPCTL & USB_OTG_DOEPCTL_EPENA) == USB_OTG_DOEPCTL_EPENA)
 288:Drivers/STM32F4xx_HAL_Driver/Src/stm32f4xx_ll_usb.c ****     {
 289:Drivers/STM32F4xx_HAL_Driver/Src/stm32f4xx_ll_usb.c ****       USBx_OUTEP(i)->DOEPCTL = (USB_OTG_DOEPCTL_EPDIS | USB_OTG_DOEPCTL_SNAK);
 372              		.loc 1 289 0
 373 00ae 4FF0904E 		mov	lr, #1207959552
 374 00b2 C2F800EB 		str	lr, [r2, #2816]
 375              	.L29:
 290:Drivers/STM32F4xx_HAL_Driver/Src/stm32f4xx_ll_usb.c ****     }
 291:Drivers/STM32F4xx_HAL_Driver/Src/stm32f4xx_ll_usb.c ****     else
 292:Drivers/STM32F4xx_HAL_Driver/Src/stm32f4xx_ll_usb.c ****     {
 293:Drivers/STM32F4xx_HAL_Driver/Src/stm32f4xx_ll_usb.c ****       USBx_OUTEP(i)->DOEPCTL = 0U;
 294:Drivers/STM32F4xx_HAL_Driver/Src/stm32f4xx_ll_usb.c ****     }
 295:Drivers/STM32F4xx_HAL_Driver/Src/stm32f4xx_ll_usb.c ****     
 296:Drivers/STM32F4xx_HAL_Driver/Src/stm32f4xx_ll_usb.c ****     USBx_OUTEP(i)->DOEPTSIZ = 0U;
 376              		.loc 1 296 0 discriminator 2
 377 00b6 0022     		movs	r2, #0
 378 00b8 0261     		str	r2, [r0, #16]
 297:Drivers/STM32F4xx_HAL_Driver/Src/stm32f4xx_ll_usb.c ****     USBx_OUTEP(i)->DOEPINT  = 0xFFU;
 379              		.loc 1 297 0 discriminator 2
ARM GAS  /var/folders/7p/1_dhylqx7nl5s8914_0f_4w00000gn/T//ccJwiRQE.s 			page 13


 380 00ba FF22     		movs	r2, #255
 381 00bc 8260     		str	r2, [r0, #8]
 285:Drivers/STM32F4xx_HAL_Driver/Src/stm32f4xx_ll_usb.c ****   {
 382              		.loc 1 285 0 discriminator 2
 383 00be 0133     		adds	r3, r3, #1
 384              	.LVL29:
 385              	.L27:
 285:Drivers/STM32F4xx_HAL_Driver/Src/stm32f4xx_ll_usb.c ****   {
 386              		.loc 1 285 0 is_stmt 0 discriminator 1
 387 00c0 8B42     		cmp	r3, r1
 388 00c2 0DD2     		bcs	.L39
 287:Drivers/STM32F4xx_HAL_Driver/Src/stm32f4xx_ll_usb.c ****     {
 389              		.loc 1 287 0 is_stmt 1
 390 00c4 04EB4312 		add	r2, r4, r3, lsl #5
 391 00c8 02F53060 		add	r0, r2, #2816
 392 00cc D2F800EB 		ldr	lr, [r2, #2816]
 393 00d0 BEF1000F 		cmp	lr, #0
 394 00d4 EBDB     		blt	.L40
 293:Drivers/STM32F4xx_HAL_Driver/Src/stm32f4xx_ll_usb.c ****     }
 395              		.loc 1 293 0
 396 00d6 4FF0000E 		mov	lr, #0
 397 00da C2F800EB 		str	lr, [r2, #2816]
 398 00de EAE7     		b	.L29
 399              	.L39:
 298:Drivers/STM32F4xx_HAL_Driver/Src/stm32f4xx_ll_usb.c ****   }
 299:Drivers/STM32F4xx_HAL_Driver/Src/stm32f4xx_ll_usb.c ****   
 300:Drivers/STM32F4xx_HAL_Driver/Src/stm32f4xx_ll_usb.c ****   USBx_DEVICE->DIEPMSK &= ~(USB_OTG_DIEPMSK_TXFURM);
 400              		.loc 1 300 0
 401 00e0 3369     		ldr	r3, [r6, #16]
 402              	.LVL30:
 403 00e2 23F48073 		bic	r3, r3, #256
 404 00e6 3361     		str	r3, [r6, #16]
 301:Drivers/STM32F4xx_HAL_Driver/Src/stm32f4xx_ll_usb.c ****   
 302:Drivers/STM32F4xx_HAL_Driver/Src/stm32f4xx_ll_usb.c ****   if (cfg.dma_enable == 1U)
 405              		.loc 1 302 0
 406 00e8 0A9B     		ldr	r3, [sp, #40]
 407 00ea 012B     		cmp	r3, #1
 408 00ec 1AD0     		beq	.L41
 409              	.L31:
 303:Drivers/STM32F4xx_HAL_Driver/Src/stm32f4xx_ll_usb.c ****   {
 304:Drivers/STM32F4xx_HAL_Driver/Src/stm32f4xx_ll_usb.c ****     /*Set threshold parameters */
 305:Drivers/STM32F4xx_HAL_Driver/Src/stm32f4xx_ll_usb.c ****     USBx_DEVICE->DTHRCTL = (USB_OTG_DTHRCTL_TXTHRLEN_6 | USB_OTG_DTHRCTL_RXTHRLEN_6);
 306:Drivers/STM32F4xx_HAL_Driver/Src/stm32f4xx_ll_usb.c ****     USBx_DEVICE->DTHRCTL |= (USB_OTG_DTHRCTL_RXTHREN | USB_OTG_DTHRCTL_ISOTHREN | USB_OTG_DTHRCTL_N
 307:Drivers/STM32F4xx_HAL_Driver/Src/stm32f4xx_ll_usb.c ****     
 308:Drivers/STM32F4xx_HAL_Driver/Src/stm32f4xx_ll_usb.c ****     i= USBx_DEVICE->DTHRCTL;
 309:Drivers/STM32F4xx_HAL_Driver/Src/stm32f4xx_ll_usb.c ****   }
 310:Drivers/STM32F4xx_HAL_Driver/Src/stm32f4xx_ll_usb.c ****   
 311:Drivers/STM32F4xx_HAL_Driver/Src/stm32f4xx_ll_usb.c ****   /* Disable all interrupts. */
 312:Drivers/STM32F4xx_HAL_Driver/Src/stm32f4xx_ll_usb.c ****   USBx->GINTMSK = 0U;
 410              		.loc 1 312 0
 411 00ee 0022     		movs	r2, #0
 412 00f0 AA61     		str	r2, [r5, #24]
 313:Drivers/STM32F4xx_HAL_Driver/Src/stm32f4xx_ll_usb.c ****   
 314:Drivers/STM32F4xx_HAL_Driver/Src/stm32f4xx_ll_usb.c ****   /* Clear any pending interrupts */
 315:Drivers/STM32F4xx_HAL_Driver/Src/stm32f4xx_ll_usb.c ****   USBx->GINTSTS = 0xBFFFFFFFU;
 413              		.loc 1 315 0
 414 00f2 6FF08042 		mvn	r2, #1073741824
ARM GAS  /var/folders/7p/1_dhylqx7nl5s8914_0f_4w00000gn/T//ccJwiRQE.s 			page 14


 415 00f6 6A61     		str	r2, [r5, #20]
 316:Drivers/STM32F4xx_HAL_Driver/Src/stm32f4xx_ll_usb.c **** 
 317:Drivers/STM32F4xx_HAL_Driver/Src/stm32f4xx_ll_usb.c ****   /* Enable the common interrupts */
 318:Drivers/STM32F4xx_HAL_Driver/Src/stm32f4xx_ll_usb.c ****   if (cfg.dma_enable == DISABLE)
 416              		.loc 1 318 0
 417 00f8 1BB9     		cbnz	r3, .L32
 319:Drivers/STM32F4xx_HAL_Driver/Src/stm32f4xx_ll_usb.c ****   {
 320:Drivers/STM32F4xx_HAL_Driver/Src/stm32f4xx_ll_usb.c ****     USBx->GINTMSK |= USB_OTG_GINTMSK_RXFLVLM; 
 418              		.loc 1 320 0
 419 00fa AB69     		ldr	r3, [r5, #24]
 420 00fc 43F01003 		orr	r3, r3, #16
 421 0100 AB61     		str	r3, [r5, #24]
 422              	.L32:
 321:Drivers/STM32F4xx_HAL_Driver/Src/stm32f4xx_ll_usb.c ****   }
 322:Drivers/STM32F4xx_HAL_Driver/Src/stm32f4xx_ll_usb.c ****   
 323:Drivers/STM32F4xx_HAL_Driver/Src/stm32f4xx_ll_usb.c ****   /* Enable interrupts matching to the Device mode ONLY */
 324:Drivers/STM32F4xx_HAL_Driver/Src/stm32f4xx_ll_usb.c ****   USBx->GINTMSK |= (USB_OTG_GINTMSK_USBSUSPM | USB_OTG_GINTMSK_USBRST |\
 423              		.loc 1 324 0
 424 0102 AA69     		ldr	r2, [r5, #24]
 425 0104 104B     		ldr	r3, .L43
 426 0106 1343     		orrs	r3, r3, r2
 427 0108 AB61     		str	r3, [r5, #24]
 325:Drivers/STM32F4xx_HAL_Driver/Src/stm32f4xx_ll_usb.c ****                     USB_OTG_GINTMSK_ENUMDNEM | USB_OTG_GINTMSK_IEPINT |\
 326:Drivers/STM32F4xx_HAL_Driver/Src/stm32f4xx_ll_usb.c ****                     USB_OTG_GINTMSK_OEPINT   | USB_OTG_GINTMSK_IISOIXFRM|\
 327:Drivers/STM32F4xx_HAL_Driver/Src/stm32f4xx_ll_usb.c ****                     USB_OTG_GINTMSK_PXFRM_IISOOXFRM | USB_OTG_GINTMSK_WUIM);
 328:Drivers/STM32F4xx_HAL_Driver/Src/stm32f4xx_ll_usb.c ****   
 329:Drivers/STM32F4xx_HAL_Driver/Src/stm32f4xx_ll_usb.c ****   if(cfg.Sof_enable)
 428              		.loc 1 329 0
 429 010a 0D9B     		ldr	r3, [sp, #52]
 430 010c 1BB1     		cbz	r3, .L33
 330:Drivers/STM32F4xx_HAL_Driver/Src/stm32f4xx_ll_usb.c ****   {
 331:Drivers/STM32F4xx_HAL_Driver/Src/stm32f4xx_ll_usb.c ****     USBx->GINTMSK |= USB_OTG_GINTMSK_SOFM;
 431              		.loc 1 331 0
 432 010e AB69     		ldr	r3, [r5, #24]
 433 0110 43F00803 		orr	r3, r3, #8
 434 0114 AB61     		str	r3, [r5, #24]
 435              	.L33:
 332:Drivers/STM32F4xx_HAL_Driver/Src/stm32f4xx_ll_usb.c ****   }
 333:Drivers/STM32F4xx_HAL_Driver/Src/stm32f4xx_ll_usb.c **** 
 334:Drivers/STM32F4xx_HAL_Driver/Src/stm32f4xx_ll_usb.c ****   if (cfg.vbus_sensing_enable == ENABLE)
 436              		.loc 1 334 0
 437 0116 012F     		cmp	r7, #1
 438 0118 0ED0     		beq	.L42
 439              	.L34:
 335:Drivers/STM32F4xx_HAL_Driver/Src/stm32f4xx_ll_usb.c ****   {
 336:Drivers/STM32F4xx_HAL_Driver/Src/stm32f4xx_ll_usb.c ****     USBx->GINTMSK |= (USB_OTG_GINTMSK_SRQIM | USB_OTG_GINTMSK_OTGINT); 
 337:Drivers/STM32F4xx_HAL_Driver/Src/stm32f4xx_ll_usb.c ****   }
 338:Drivers/STM32F4xx_HAL_Driver/Src/stm32f4xx_ll_usb.c ****   
 339:Drivers/STM32F4xx_HAL_Driver/Src/stm32f4xx_ll_usb.c ****   return HAL_OK;
 340:Drivers/STM32F4xx_HAL_Driver/Src/stm32f4xx_ll_usb.c **** }
 440              		.loc 1 340 0
 441 011a 0020     		movs	r0, #0
 442 011c BDE8F840 		pop	{r3, r4, r5, r6, r7, lr}
 443              	.LCFI8:
 444              		.cfi_remember_state
 445              		.cfi_restore 14
 446              		.cfi_restore 7
ARM GAS  /var/folders/7p/1_dhylqx7nl5s8914_0f_4w00000gn/T//ccJwiRQE.s 			page 15


 447              		.cfi_restore 6
 448              		.cfi_restore 5
 449              		.cfi_restore 4
 450              		.cfi_restore 3
 451              		.cfi_def_cfa_offset 16
 452              	.LVL31:
 453 0120 04B0     		add	sp, sp, #16
 454              	.LCFI9:
 455              		.cfi_def_cfa_offset 0
 456 0122 7047     		bx	lr
 457              	.LVL32:
 458              	.L41:
 459              	.LCFI10:
 460              		.cfi_restore_state
 305:Drivers/STM32F4xx_HAL_Driver/Src/stm32f4xx_ll_usb.c ****     USBx_DEVICE->DTHRCTL |= (USB_OTG_DTHRCTL_RXTHREN | USB_OTG_DTHRCTL_ISOTHREN | USB_OTG_DTHRCTL_N
 461              		.loc 1 305 0
 462 0124 094A     		ldr	r2, .L43+4
 463 0126 3263     		str	r2, [r6, #48]
 306:Drivers/STM32F4xx_HAL_Driver/Src/stm32f4xx_ll_usb.c ****     
 464              		.loc 1 306 0
 465 0128 326B     		ldr	r2, [r6, #48]
 466 012a 42F48032 		orr	r2, r2, #65536
 467 012e 42F00302 		orr	r2, r2, #3
 468 0132 3263     		str	r2, [r6, #48]
 308:Drivers/STM32F4xx_HAL_Driver/Src/stm32f4xx_ll_usb.c ****   }
 469              		.loc 1 308 0
 470 0134 326B     		ldr	r2, [r6, #48]
 471 0136 DAE7     		b	.L31
 472              	.L42:
 336:Drivers/STM32F4xx_HAL_Driver/Src/stm32f4xx_ll_usb.c ****   }
 473              		.loc 1 336 0
 474 0138 AB69     		ldr	r3, [r5, #24]
 475 013a 43F08043 		orr	r3, r3, #1073741824
 476 013e 43F00403 		orr	r3, r3, #4
 477 0142 AB61     		str	r3, [r5, #24]
 478 0144 E9E7     		b	.L34
 479              	.L44:
 480 0146 00BF     		.align	2
 481              	.L43:
 482 0148 00383C80 		.word	-2143537152
 483 014c 00018000 		.word	8388864
 484              		.cfi_endproc
 485              	.LFE128:
 487              		.section	.text.USB_FlushTxFifo,"ax",%progbits
 488              		.align	1
 489              		.global	USB_FlushTxFifo
 490              		.syntax unified
 491              		.thumb
 492              		.thumb_func
 493              		.fpu fpv4-sp-d16
 495              	USB_FlushTxFifo:
 496              	.LFB129:
 341:Drivers/STM32F4xx_HAL_Driver/Src/stm32f4xx_ll_usb.c **** 
 342:Drivers/STM32F4xx_HAL_Driver/Src/stm32f4xx_ll_usb.c **** 
 343:Drivers/STM32F4xx_HAL_Driver/Src/stm32f4xx_ll_usb.c **** /**
 344:Drivers/STM32F4xx_HAL_Driver/Src/stm32f4xx_ll_usb.c ****   * @brief  USB_OTG_FlushTxFifo : Flush a Tx FIFO
 345:Drivers/STM32F4xx_HAL_Driver/Src/stm32f4xx_ll_usb.c ****   * @param  USBx : Selected device
ARM GAS  /var/folders/7p/1_dhylqx7nl5s8914_0f_4w00000gn/T//ccJwiRQE.s 			page 16


 346:Drivers/STM32F4xx_HAL_Driver/Src/stm32f4xx_ll_usb.c ****   * @param  num : FIFO number
 347:Drivers/STM32F4xx_HAL_Driver/Src/stm32f4xx_ll_usb.c ****   *         This parameter can be a value from 1 to 15
 348:Drivers/STM32F4xx_HAL_Driver/Src/stm32f4xx_ll_usb.c ****             15 means Flush all Tx FIFOs
 349:Drivers/STM32F4xx_HAL_Driver/Src/stm32f4xx_ll_usb.c ****   * @retval HAL status
 350:Drivers/STM32F4xx_HAL_Driver/Src/stm32f4xx_ll_usb.c ****   */
 351:Drivers/STM32F4xx_HAL_Driver/Src/stm32f4xx_ll_usb.c **** HAL_StatusTypeDef USB_FlushTxFifo (USB_OTG_GlobalTypeDef *USBx, uint32_t num )
 352:Drivers/STM32F4xx_HAL_Driver/Src/stm32f4xx_ll_usb.c **** {
 497              		.loc 1 352 0
 498              		.cfi_startproc
 499              		@ args = 0, pretend = 0, frame = 0
 500              		@ frame_needed = 0, uses_anonymous_args = 0
 501              		@ link register save eliminated.
 502              	.LVL33:
 353:Drivers/STM32F4xx_HAL_Driver/Src/stm32f4xx_ll_usb.c ****   uint32_t count = 0;
 354:Drivers/STM32F4xx_HAL_Driver/Src/stm32f4xx_ll_usb.c ****   
 355:Drivers/STM32F4xx_HAL_Driver/Src/stm32f4xx_ll_usb.c ****   USBx->GRSTCTL = ( USB_OTG_GRSTCTL_TXFFLSH |(uint32_t)( num << 6)); 
 503              		.loc 1 355 0
 504 0000 8901     		lsls	r1, r1, #6
 505              	.LVL34:
 506 0002 41F02001 		orr	r1, r1, #32
 507 0006 0161     		str	r1, [r0, #16]
 353:Drivers/STM32F4xx_HAL_Driver/Src/stm32f4xx_ll_usb.c ****   uint32_t count = 0;
 508              		.loc 1 353 0
 509 0008 0023     		movs	r3, #0
 510              	.LVL35:
 511              	.L47:
 356:Drivers/STM32F4xx_HAL_Driver/Src/stm32f4xx_ll_usb.c ****   
 357:Drivers/STM32F4xx_HAL_Driver/Src/stm32f4xx_ll_usb.c ****   do
 358:Drivers/STM32F4xx_HAL_Driver/Src/stm32f4xx_ll_usb.c ****   {
 359:Drivers/STM32F4xx_HAL_Driver/Src/stm32f4xx_ll_usb.c ****     if (++count > 200000)
 512              		.loc 1 359 0
 513 000a 0133     		adds	r3, r3, #1
 514              	.LVL36:
 515 000c 054A     		ldr	r2, .L49
 516 000e 9342     		cmp	r3, r2
 517 0010 05D8     		bhi	.L48
 360:Drivers/STM32F4xx_HAL_Driver/Src/stm32f4xx_ll_usb.c ****     {
 361:Drivers/STM32F4xx_HAL_Driver/Src/stm32f4xx_ll_usb.c ****       return HAL_TIMEOUT;
 362:Drivers/STM32F4xx_HAL_Driver/Src/stm32f4xx_ll_usb.c ****     }
 363:Drivers/STM32F4xx_HAL_Driver/Src/stm32f4xx_ll_usb.c ****   }
 364:Drivers/STM32F4xx_HAL_Driver/Src/stm32f4xx_ll_usb.c ****   while ((USBx->GRSTCTL & USB_OTG_GRSTCTL_TXFFLSH) == USB_OTG_GRSTCTL_TXFFLSH);
 518              		.loc 1 364 0
 519 0012 0269     		ldr	r2, [r0, #16]
 520 0014 12F0200F 		tst	r2, #32
 521 0018 F7D1     		bne	.L47
 365:Drivers/STM32F4xx_HAL_Driver/Src/stm32f4xx_ll_usb.c ****   
 366:Drivers/STM32F4xx_HAL_Driver/Src/stm32f4xx_ll_usb.c ****   return HAL_OK;
 522              		.loc 1 366 0
 523 001a 0020     		movs	r0, #0
 524              	.LVL37:
 525 001c 7047     		bx	lr
 526              	.LVL38:
 527              	.L48:
 361:Drivers/STM32F4xx_HAL_Driver/Src/stm32f4xx_ll_usb.c ****     }
 528              		.loc 1 361 0
 529 001e 0320     		movs	r0, #3
 530              	.LVL39:
ARM GAS  /var/folders/7p/1_dhylqx7nl5s8914_0f_4w00000gn/T//ccJwiRQE.s 			page 17


 367:Drivers/STM32F4xx_HAL_Driver/Src/stm32f4xx_ll_usb.c **** }
 531              		.loc 1 367 0
 532 0020 7047     		bx	lr
 533              	.L50:
 534 0022 00BF     		.align	2
 535              	.L49:
 536 0024 400D0300 		.word	200000
 537              		.cfi_endproc
 538              	.LFE129:
 540              		.section	.text.USB_FlushRxFifo,"ax",%progbits
 541              		.align	1
 542              		.global	USB_FlushRxFifo
 543              		.syntax unified
 544              		.thumb
 545              		.thumb_func
 546              		.fpu fpv4-sp-d16
 548              	USB_FlushRxFifo:
 549              	.LFB130:
 368:Drivers/STM32F4xx_HAL_Driver/Src/stm32f4xx_ll_usb.c **** 
 369:Drivers/STM32F4xx_HAL_Driver/Src/stm32f4xx_ll_usb.c **** 
 370:Drivers/STM32F4xx_HAL_Driver/Src/stm32f4xx_ll_usb.c **** /**
 371:Drivers/STM32F4xx_HAL_Driver/Src/stm32f4xx_ll_usb.c ****   * @brief  USB_FlushRxFifo : Flush Rx FIFO
 372:Drivers/STM32F4xx_HAL_Driver/Src/stm32f4xx_ll_usb.c ****   * @param  USBx : Selected device
 373:Drivers/STM32F4xx_HAL_Driver/Src/stm32f4xx_ll_usb.c ****   * @retval HAL status
 374:Drivers/STM32F4xx_HAL_Driver/Src/stm32f4xx_ll_usb.c ****   */
 375:Drivers/STM32F4xx_HAL_Driver/Src/stm32f4xx_ll_usb.c **** HAL_StatusTypeDef USB_FlushRxFifo(USB_OTG_GlobalTypeDef *USBx)
 376:Drivers/STM32F4xx_HAL_Driver/Src/stm32f4xx_ll_usb.c **** {
 550              		.loc 1 376 0
 551              		.cfi_startproc
 552              		@ args = 0, pretend = 0, frame = 0
 553              		@ frame_needed = 0, uses_anonymous_args = 0
 554              		@ link register save eliminated.
 555              	.LVL40:
 377:Drivers/STM32F4xx_HAL_Driver/Src/stm32f4xx_ll_usb.c ****   uint32_t count = 0;
 378:Drivers/STM32F4xx_HAL_Driver/Src/stm32f4xx_ll_usb.c ****   
 379:Drivers/STM32F4xx_HAL_Driver/Src/stm32f4xx_ll_usb.c ****   USBx->GRSTCTL = USB_OTG_GRSTCTL_RXFFLSH;
 556              		.loc 1 379 0
 557 0000 1023     		movs	r3, #16
 558 0002 0361     		str	r3, [r0, #16]
 377:Drivers/STM32F4xx_HAL_Driver/Src/stm32f4xx_ll_usb.c ****   uint32_t count = 0;
 559              		.loc 1 377 0
 560 0004 0023     		movs	r3, #0
 561              	.LVL41:
 562              	.L53:
 380:Drivers/STM32F4xx_HAL_Driver/Src/stm32f4xx_ll_usb.c ****   
 381:Drivers/STM32F4xx_HAL_Driver/Src/stm32f4xx_ll_usb.c ****   do
 382:Drivers/STM32F4xx_HAL_Driver/Src/stm32f4xx_ll_usb.c ****   {
 383:Drivers/STM32F4xx_HAL_Driver/Src/stm32f4xx_ll_usb.c ****     if (++count > 200000)
 563              		.loc 1 383 0
 564 0006 0133     		adds	r3, r3, #1
 565              	.LVL42:
 566 0008 054A     		ldr	r2, .L55
 567 000a 9342     		cmp	r3, r2
 568 000c 05D8     		bhi	.L54
 384:Drivers/STM32F4xx_HAL_Driver/Src/stm32f4xx_ll_usb.c ****     {
 385:Drivers/STM32F4xx_HAL_Driver/Src/stm32f4xx_ll_usb.c ****       return HAL_TIMEOUT;
 386:Drivers/STM32F4xx_HAL_Driver/Src/stm32f4xx_ll_usb.c ****     }
ARM GAS  /var/folders/7p/1_dhylqx7nl5s8914_0f_4w00000gn/T//ccJwiRQE.s 			page 18


 387:Drivers/STM32F4xx_HAL_Driver/Src/stm32f4xx_ll_usb.c ****   }
 388:Drivers/STM32F4xx_HAL_Driver/Src/stm32f4xx_ll_usb.c ****   while ((USBx->GRSTCTL & USB_OTG_GRSTCTL_RXFFLSH) == USB_OTG_GRSTCTL_RXFFLSH);
 569              		.loc 1 388 0
 570 000e 0269     		ldr	r2, [r0, #16]
 571 0010 12F0100F 		tst	r2, #16
 572 0014 F7D1     		bne	.L53
 389:Drivers/STM32F4xx_HAL_Driver/Src/stm32f4xx_ll_usb.c ****   
 390:Drivers/STM32F4xx_HAL_Driver/Src/stm32f4xx_ll_usb.c ****   return HAL_OK;
 573              		.loc 1 390 0
 574 0016 0020     		movs	r0, #0
 575              	.LVL43:
 576 0018 7047     		bx	lr
 577              	.LVL44:
 578              	.L54:
 385:Drivers/STM32F4xx_HAL_Driver/Src/stm32f4xx_ll_usb.c ****     }
 579              		.loc 1 385 0
 580 001a 0320     		movs	r0, #3
 581              	.LVL45:
 391:Drivers/STM32F4xx_HAL_Driver/Src/stm32f4xx_ll_usb.c **** }
 582              		.loc 1 391 0
 583 001c 7047     		bx	lr
 584              	.L56:
 585 001e 00BF     		.align	2
 586              	.L55:
 587 0020 400D0300 		.word	200000
 588              		.cfi_endproc
 589              	.LFE130:
 591              		.section	.text.USB_SetDevSpeed,"ax",%progbits
 592              		.align	1
 593              		.global	USB_SetDevSpeed
 594              		.syntax unified
 595              		.thumb
 596              		.thumb_func
 597              		.fpu fpv4-sp-d16
 599              	USB_SetDevSpeed:
 600              	.LFB131:
 392:Drivers/STM32F4xx_HAL_Driver/Src/stm32f4xx_ll_usb.c **** 
 393:Drivers/STM32F4xx_HAL_Driver/Src/stm32f4xx_ll_usb.c **** /**
 394:Drivers/STM32F4xx_HAL_Driver/Src/stm32f4xx_ll_usb.c ****   * @brief  USB_SetDevSpeed :Initializes the DevSpd field of DCFG register 
 395:Drivers/STM32F4xx_HAL_Driver/Src/stm32f4xx_ll_usb.c ****   *         depending the PHY type and the enumeration speed of the device.
 396:Drivers/STM32F4xx_HAL_Driver/Src/stm32f4xx_ll_usb.c ****   * @param  USBx : Selected device
 397:Drivers/STM32F4xx_HAL_Driver/Src/stm32f4xx_ll_usb.c ****   * @param  speed : device speed
 398:Drivers/STM32F4xx_HAL_Driver/Src/stm32f4xx_ll_usb.c ****   *          This parameter can be one of these values:
 399:Drivers/STM32F4xx_HAL_Driver/Src/stm32f4xx_ll_usb.c ****   *            @arg USB_OTG_SPEED_HIGH: High speed mode
 400:Drivers/STM32F4xx_HAL_Driver/Src/stm32f4xx_ll_usb.c ****   *            @arg USB_OTG_SPEED_HIGH_IN_FULL: High speed core in Full Speed mode
 401:Drivers/STM32F4xx_HAL_Driver/Src/stm32f4xx_ll_usb.c ****   *            @arg USB_OTG_SPEED_FULL: Full speed mode
 402:Drivers/STM32F4xx_HAL_Driver/Src/stm32f4xx_ll_usb.c ****   *            @arg USB_OTG_SPEED_LOW: Low speed mode
 403:Drivers/STM32F4xx_HAL_Driver/Src/stm32f4xx_ll_usb.c ****   * @retval  Hal status
 404:Drivers/STM32F4xx_HAL_Driver/Src/stm32f4xx_ll_usb.c ****   */
 405:Drivers/STM32F4xx_HAL_Driver/Src/stm32f4xx_ll_usb.c **** HAL_StatusTypeDef USB_SetDevSpeed(USB_OTG_GlobalTypeDef *USBx , uint8_t speed)
 406:Drivers/STM32F4xx_HAL_Driver/Src/stm32f4xx_ll_usb.c **** {
 601              		.loc 1 406 0
 602              		.cfi_startproc
 603              		@ args = 0, pretend = 0, frame = 0
 604              		@ frame_needed = 0, uses_anonymous_args = 0
 605              		@ link register save eliminated.
 606              	.LVL46:
ARM GAS  /var/folders/7p/1_dhylqx7nl5s8914_0f_4w00000gn/T//ccJwiRQE.s 			page 19


 407:Drivers/STM32F4xx_HAL_Driver/Src/stm32f4xx_ll_usb.c ****   USBx_DEVICE->DCFG |= speed;
 607              		.loc 1 407 0
 608 0000 D0F80038 		ldr	r3, [r0, #2048]
 609 0004 1943     		orrs	r1, r1, r3
 610              	.LVL47:
 611 0006 C0F80018 		str	r1, [r0, #2048]
 408:Drivers/STM32F4xx_HAL_Driver/Src/stm32f4xx_ll_usb.c ****   return HAL_OK;
 409:Drivers/STM32F4xx_HAL_Driver/Src/stm32f4xx_ll_usb.c **** }
 612              		.loc 1 409 0
 613 000a 0020     		movs	r0, #0
 614              	.LVL48:
 615 000c 7047     		bx	lr
 616              		.cfi_endproc
 617              	.LFE131:
 619              		.section	.text.USB_GetDevSpeed,"ax",%progbits
 620              		.align	1
 621              		.global	USB_GetDevSpeed
 622              		.syntax unified
 623              		.thumb
 624              		.thumb_func
 625              		.fpu fpv4-sp-d16
 627              	USB_GetDevSpeed:
 628              	.LFB132:
 410:Drivers/STM32F4xx_HAL_Driver/Src/stm32f4xx_ll_usb.c **** 
 411:Drivers/STM32F4xx_HAL_Driver/Src/stm32f4xx_ll_usb.c **** /**
 412:Drivers/STM32F4xx_HAL_Driver/Src/stm32f4xx_ll_usb.c ****   * @brief  USB_GetDevSpeed :Return the  Dev Speed 
 413:Drivers/STM32F4xx_HAL_Driver/Src/stm32f4xx_ll_usb.c ****   * @param  USBx : Selected device
 414:Drivers/STM32F4xx_HAL_Driver/Src/stm32f4xx_ll_usb.c ****   * @retval speed : device speed
 415:Drivers/STM32F4xx_HAL_Driver/Src/stm32f4xx_ll_usb.c ****   *          This parameter can be one of these values:
 416:Drivers/STM32F4xx_HAL_Driver/Src/stm32f4xx_ll_usb.c ****   *            @arg USB_OTG_SPEED_HIGH: High speed mode
 417:Drivers/STM32F4xx_HAL_Driver/Src/stm32f4xx_ll_usb.c ****   *            @arg USB_OTG_SPEED_FULL: Full speed mode
 418:Drivers/STM32F4xx_HAL_Driver/Src/stm32f4xx_ll_usb.c ****   *            @arg USB_OTG_SPEED_LOW: Low speed mode
 419:Drivers/STM32F4xx_HAL_Driver/Src/stm32f4xx_ll_usb.c ****   */
 420:Drivers/STM32F4xx_HAL_Driver/Src/stm32f4xx_ll_usb.c **** uint8_t USB_GetDevSpeed(USB_OTG_GlobalTypeDef *USBx)
 421:Drivers/STM32F4xx_HAL_Driver/Src/stm32f4xx_ll_usb.c **** {
 629              		.loc 1 421 0
 630              		.cfi_startproc
 631              		@ args = 0, pretend = 0, frame = 0
 632              		@ frame_needed = 0, uses_anonymous_args = 0
 633              		@ link register save eliminated.
 634              	.LVL49:
 422:Drivers/STM32F4xx_HAL_Driver/Src/stm32f4xx_ll_usb.c ****   uint8_t speed = 0U;
 423:Drivers/STM32F4xx_HAL_Driver/Src/stm32f4xx_ll_usb.c ****   
 424:Drivers/STM32F4xx_HAL_Driver/Src/stm32f4xx_ll_usb.c ****   if((USBx_DEVICE->DSTS & USB_OTG_DSTS_ENUMSPD) == DSTS_ENUMSPD_HS_PHY_30MHZ_OR_60MHZ)
 635              		.loc 1 424 0
 636 0000 D0F80838 		ldr	r3, [r0, #2056]
 637 0004 00F50060 		add	r0, r0, #2048
 638              	.LVL50:
 639 0008 13F0060F 		tst	r3, #6
 640 000c 10D0     		beq	.L60
 425:Drivers/STM32F4xx_HAL_Driver/Src/stm32f4xx_ll_usb.c ****   {
 426:Drivers/STM32F4xx_HAL_Driver/Src/stm32f4xx_ll_usb.c ****     speed = USB_OTG_SPEED_HIGH;
 427:Drivers/STM32F4xx_HAL_Driver/Src/stm32f4xx_ll_usb.c ****   }
 428:Drivers/STM32F4xx_HAL_Driver/Src/stm32f4xx_ll_usb.c ****   else if (((USBx_DEVICE->DSTS & USB_OTG_DSTS_ENUMSPD) == DSTS_ENUMSPD_FS_PHY_30MHZ_OR_60MHZ)||
 641              		.loc 1 428 0
 642 000e 8368     		ldr	r3, [r0, #8]
 643 0010 03F00603 		and	r3, r3, #6
ARM GAS  /var/folders/7p/1_dhylqx7nl5s8914_0f_4w00000gn/T//ccJwiRQE.s 			page 20


 644 0014 022B     		cmp	r3, #2
 645 0016 0DD0     		beq	.L61
 429:Drivers/STM32F4xx_HAL_Driver/Src/stm32f4xx_ll_usb.c ****            ((USBx_DEVICE->DSTS & USB_OTG_DSTS_ENUMSPD) == DSTS_ENUMSPD_FS_PHY_48MHZ))
 646              		.loc 1 429 0 discriminator 1
 647 0018 8368     		ldr	r3, [r0, #8]
 648 001a 03F00603 		and	r3, r3, #6
 428:Drivers/STM32F4xx_HAL_Driver/Src/stm32f4xx_ll_usb.c ****            ((USBx_DEVICE->DSTS & USB_OTG_DSTS_ENUMSPD) == DSTS_ENUMSPD_FS_PHY_48MHZ))
 649              		.loc 1 428 0 discriminator 1
 650 001e 062B     		cmp	r3, #6
 651 0020 0AD0     		beq	.L62
 430:Drivers/STM32F4xx_HAL_Driver/Src/stm32f4xx_ll_usb.c ****   {
 431:Drivers/STM32F4xx_HAL_Driver/Src/stm32f4xx_ll_usb.c ****     speed = USB_OTG_SPEED_FULL;
 432:Drivers/STM32F4xx_HAL_Driver/Src/stm32f4xx_ll_usb.c ****   }
 433:Drivers/STM32F4xx_HAL_Driver/Src/stm32f4xx_ll_usb.c ****   else if((USBx_DEVICE->DSTS & USB_OTG_DSTS_ENUMSPD) == DSTS_ENUMSPD_LS_PHY_6MHZ)
 652              		.loc 1 433 0
 653 0022 8368     		ldr	r3, [r0, #8]
 654 0024 03F00603 		and	r3, r3, #6
 655 0028 042B     		cmp	r3, #4
 656 002a 07D0     		beq	.L63
 422:Drivers/STM32F4xx_HAL_Driver/Src/stm32f4xx_ll_usb.c ****   
 657              		.loc 1 422 0
 658 002c 0020     		movs	r0, #0
 659              	.LVL51:
 660 002e 7047     		bx	lr
 661              	.L60:
 426:Drivers/STM32F4xx_HAL_Driver/Src/stm32f4xx_ll_usb.c ****   }
 662              		.loc 1 426 0
 663 0030 0020     		movs	r0, #0
 664 0032 7047     		bx	lr
 665              	.L61:
 431:Drivers/STM32F4xx_HAL_Driver/Src/stm32f4xx_ll_usb.c ****   }
 666              		.loc 1 431 0
 667 0034 0320     		movs	r0, #3
 668 0036 7047     		bx	lr
 669              	.L62:
 670 0038 0320     		movs	r0, #3
 671 003a 7047     		bx	lr
 672              	.L63:
 434:Drivers/STM32F4xx_HAL_Driver/Src/stm32f4xx_ll_usb.c ****   {
 435:Drivers/STM32F4xx_HAL_Driver/Src/stm32f4xx_ll_usb.c ****     speed = USB_OTG_SPEED_LOW;
 673              		.loc 1 435 0
 674 003c 0220     		movs	r0, #2
 675              	.LVL52:
 436:Drivers/STM32F4xx_HAL_Driver/Src/stm32f4xx_ll_usb.c ****   }
 437:Drivers/STM32F4xx_HAL_Driver/Src/stm32f4xx_ll_usb.c ****   
 438:Drivers/STM32F4xx_HAL_Driver/Src/stm32f4xx_ll_usb.c ****   return speed;
 439:Drivers/STM32F4xx_HAL_Driver/Src/stm32f4xx_ll_usb.c **** }
 676              		.loc 1 439 0
 677 003e 7047     		bx	lr
 678              		.cfi_endproc
 679              	.LFE132:
 681              		.section	.text.USB_ActivateEndpoint,"ax",%progbits
 682              		.align	1
 683              		.global	USB_ActivateEndpoint
 684              		.syntax unified
 685              		.thumb
 686              		.thumb_func
ARM GAS  /var/folders/7p/1_dhylqx7nl5s8914_0f_4w00000gn/T//ccJwiRQE.s 			page 21


 687              		.fpu fpv4-sp-d16
 689              	USB_ActivateEndpoint:
 690              	.LFB133:
 440:Drivers/STM32F4xx_HAL_Driver/Src/stm32f4xx_ll_usb.c **** 
 441:Drivers/STM32F4xx_HAL_Driver/Src/stm32f4xx_ll_usb.c **** /**
 442:Drivers/STM32F4xx_HAL_Driver/Src/stm32f4xx_ll_usb.c ****   * @brief  Activate and configure an endpoint
 443:Drivers/STM32F4xx_HAL_Driver/Src/stm32f4xx_ll_usb.c ****   * @param  USBx : Selected device
 444:Drivers/STM32F4xx_HAL_Driver/Src/stm32f4xx_ll_usb.c ****   * @param  ep: pointer to endpoint structure
 445:Drivers/STM32F4xx_HAL_Driver/Src/stm32f4xx_ll_usb.c ****   * @retval HAL status
 446:Drivers/STM32F4xx_HAL_Driver/Src/stm32f4xx_ll_usb.c ****   */
 447:Drivers/STM32F4xx_HAL_Driver/Src/stm32f4xx_ll_usb.c **** HAL_StatusTypeDef USB_ActivateEndpoint(USB_OTG_GlobalTypeDef *USBx, USB_OTG_EPTypeDef *ep)
 448:Drivers/STM32F4xx_HAL_Driver/Src/stm32f4xx_ll_usb.c **** {
 691              		.loc 1 448 0
 692              		.cfi_startproc
 693              		@ args = 0, pretend = 0, frame = 0
 694              		@ frame_needed = 0, uses_anonymous_args = 0
 695              		@ link register save eliminated.
 696              	.LVL53:
 697 0000 30B4     		push	{r4, r5}
 698              	.LCFI11:
 699              		.cfi_def_cfa_offset 8
 700              		.cfi_offset 4, -8
 701              		.cfi_offset 5, -4
 449:Drivers/STM32F4xx_HAL_Driver/Src/stm32f4xx_ll_usb.c ****   if (ep->is_in == 1U)
 702              		.loc 1 449 0
 703 0002 4B78     		ldrb	r3, [r1, #1]	@ zero_extendqisi2
 704 0004 012B     		cmp	r3, #1
 705 0006 22D0     		beq	.L68
 450:Drivers/STM32F4xx_HAL_Driver/Src/stm32f4xx_ll_usb.c ****   {
 451:Drivers/STM32F4xx_HAL_Driver/Src/stm32f4xx_ll_usb.c ****    USBx_DEVICE->DAINTMSK |= USB_OTG_DAINTMSK_IEPM & ((1U << (ep->num)));
 452:Drivers/STM32F4xx_HAL_Driver/Src/stm32f4xx_ll_usb.c ****    
 453:Drivers/STM32F4xx_HAL_Driver/Src/stm32f4xx_ll_usb.c ****     if (((USBx_INEP(ep->num)->DIEPCTL) & USB_OTG_DIEPCTL_USBAEP) == 0U)
 454:Drivers/STM32F4xx_HAL_Driver/Src/stm32f4xx_ll_usb.c ****     {
 455:Drivers/STM32F4xx_HAL_Driver/Src/stm32f4xx_ll_usb.c ****       USBx_INEP(ep->num)->DIEPCTL |= ((ep->maxpacket & USB_OTG_DIEPCTL_MPSIZ ) | (ep->type << 18U) 
 456:Drivers/STM32F4xx_HAL_Driver/Src/stm32f4xx_ll_usb.c ****         ((ep->num) << 22U) | (USB_OTG_DIEPCTL_SD0PID_SEVNFRM) | (USB_OTG_DIEPCTL_USBAEP)); 
 457:Drivers/STM32F4xx_HAL_Driver/Src/stm32f4xx_ll_usb.c ****     } 
 458:Drivers/STM32F4xx_HAL_Driver/Src/stm32f4xx_ll_usb.c ****   }
 459:Drivers/STM32F4xx_HAL_Driver/Src/stm32f4xx_ll_usb.c ****   else
 460:Drivers/STM32F4xx_HAL_Driver/Src/stm32f4xx_ll_usb.c ****   {
 461:Drivers/STM32F4xx_HAL_Driver/Src/stm32f4xx_ll_usb.c ****      USBx_DEVICE->DAINTMSK |= USB_OTG_DAINTMSK_OEPM & ((1U << (ep->num)) << 16U);
 706              		.loc 1 461 0
 707 0008 D0F81C38 		ldr	r3, [r0, #2076]
 708 000c 0D78     		ldrb	r5, [r1]	@ zero_extendqisi2
 709 000e 0122     		movs	r2, #1
 710 0010 AA40     		lsls	r2, r2, r5
 711 0012 43EA0243 		orr	r3, r3, r2, lsl #16
 712 0016 C0F81C38 		str	r3, [r0, #2076]
 462:Drivers/STM32F4xx_HAL_Driver/Src/stm32f4xx_ll_usb.c ****      
 463:Drivers/STM32F4xx_HAL_Driver/Src/stm32f4xx_ll_usb.c ****     if (((USBx_OUTEP(ep->num)->DOEPCTL) & USB_OTG_DOEPCTL_USBAEP) == 0U)
 713              		.loc 1 463 0
 714 001a 0B78     		ldrb	r3, [r1]	@ zero_extendqisi2
 715 001c 00EB4310 		add	r0, r0, r3, lsl #5
 716              	.LVL54:
 717 0020 D0F8003B 		ldr	r3, [r0, #2816]
 718 0024 13F4004F 		tst	r3, #32768
 719 0028 0ED1     		bne	.L66
 464:Drivers/STM32F4xx_HAL_Driver/Src/stm32f4xx_ll_usb.c ****     {
ARM GAS  /var/folders/7p/1_dhylqx7nl5s8914_0f_4w00000gn/T//ccJwiRQE.s 			page 22


 465:Drivers/STM32F4xx_HAL_Driver/Src/stm32f4xx_ll_usb.c ****       USBx_OUTEP(ep->num)->DOEPCTL |= ((ep->maxpacket & USB_OTG_DOEPCTL_MPSIZ ) | (ep->type << 18U)
 720              		.loc 1 465 0
 721 002a D0F8003B 		ldr	r3, [r0, #2816]
 722 002e 8A68     		ldr	r2, [r1, #8]
 723 0030 C2F30A02 		ubfx	r2, r2, #0, #11
 724 0034 C978     		ldrb	r1, [r1, #3]	@ zero_extendqisi2
 725              	.LVL55:
 726 0036 42EA8142 		orr	r2, r2, r1, lsl #18
 727 003a 1343     		orrs	r3, r3, r2
 728 003c 43F08053 		orr	r3, r3, #268435456
 729 0040 43F40043 		orr	r3, r3, #32768
 730 0044 C0F8003B 		str	r3, [r0, #2816]
 731              	.L66:
 466:Drivers/STM32F4xx_HAL_Driver/Src/stm32f4xx_ll_usb.c ****        (USB_OTG_DIEPCTL_SD0PID_SEVNFRM)| (USB_OTG_DOEPCTL_USBAEP));
 467:Drivers/STM32F4xx_HAL_Driver/Src/stm32f4xx_ll_usb.c ****     } 
 468:Drivers/STM32F4xx_HAL_Driver/Src/stm32f4xx_ll_usb.c ****   }
 469:Drivers/STM32F4xx_HAL_Driver/Src/stm32f4xx_ll_usb.c ****   return HAL_OK;
 470:Drivers/STM32F4xx_HAL_Driver/Src/stm32f4xx_ll_usb.c **** }
 732              		.loc 1 470 0
 733 0048 0020     		movs	r0, #0
 734 004a 30BC     		pop	{r4, r5}
 735              	.LCFI12:
 736              		.cfi_remember_state
 737              		.cfi_restore 5
 738              		.cfi_restore 4
 739              		.cfi_def_cfa_offset 0
 740 004c 7047     		bx	lr
 741              	.LVL56:
 742              	.L68:
 743              	.LCFI13:
 744              		.cfi_restore_state
 451:Drivers/STM32F4xx_HAL_Driver/Src/stm32f4xx_ll_usb.c ****    
 745              		.loc 1 451 0
 746 004e D0F81C28 		ldr	r2, [r0, #2076]
 747 0052 0D78     		ldrb	r5, [r1]	@ zero_extendqisi2
 748 0054 AB40     		lsls	r3, r3, r5
 749 0056 9BB2     		uxth	r3, r3
 750 0058 1343     		orrs	r3, r3, r2
 751 005a C0F81C38 		str	r3, [r0, #2076]
 453:Drivers/STM32F4xx_HAL_Driver/Src/stm32f4xx_ll_usb.c ****     {
 752              		.loc 1 453 0
 753 005e 0C78     		ldrb	r4, [r1]	@ zero_extendqisi2
 754 0060 00EB4410 		add	r0, r0, r4, lsl #5
 755              	.LVL57:
 756 0064 D0F80039 		ldr	r3, [r0, #2304]
 757 0068 13F4004F 		tst	r3, #32768
 758 006c ECD1     		bne	.L66
 455:Drivers/STM32F4xx_HAL_Driver/Src/stm32f4xx_ll_usb.c ****         ((ep->num) << 22U) | (USB_OTG_DIEPCTL_SD0PID_SEVNFRM) | (USB_OTG_DIEPCTL_USBAEP)); 
 759              		.loc 1 455 0
 760 006e D0F80039 		ldr	r3, [r0, #2304]
 761 0072 8A68     		ldr	r2, [r1, #8]
 762 0074 C2F30A02 		ubfx	r2, r2, #0, #11
 763 0078 C978     		ldrb	r1, [r1, #3]	@ zero_extendqisi2
 764              	.LVL58:
 765 007a 42EA8142 		orr	r2, r2, r1, lsl #18
 766 007e 42EA8452 		orr	r2, r2, r4, lsl #22
 767 0082 1343     		orrs	r3, r3, r2
ARM GAS  /var/folders/7p/1_dhylqx7nl5s8914_0f_4w00000gn/T//ccJwiRQE.s 			page 23


 768 0084 43F08053 		orr	r3, r3, #268435456
 769 0088 43F40043 		orr	r3, r3, #32768
 770 008c C0F80039 		str	r3, [r0, #2304]
 771 0090 DAE7     		b	.L66
 772              		.cfi_endproc
 773              	.LFE133:
 775              		.section	.text.USB_ActivateDedicatedEndpoint,"ax",%progbits
 776              		.align	1
 777              		.global	USB_ActivateDedicatedEndpoint
 778              		.syntax unified
 779              		.thumb
 780              		.thumb_func
 781              		.fpu fpv4-sp-d16
 783              	USB_ActivateDedicatedEndpoint:
 784              	.LFB134:
 471:Drivers/STM32F4xx_HAL_Driver/Src/stm32f4xx_ll_usb.c **** /**
 472:Drivers/STM32F4xx_HAL_Driver/Src/stm32f4xx_ll_usb.c ****   * @brief  Activate and configure a dedicated endpoint
 473:Drivers/STM32F4xx_HAL_Driver/Src/stm32f4xx_ll_usb.c ****   * @param  USBx : Selected device
 474:Drivers/STM32F4xx_HAL_Driver/Src/stm32f4xx_ll_usb.c ****   * @param  ep: pointer to endpoint structure
 475:Drivers/STM32F4xx_HAL_Driver/Src/stm32f4xx_ll_usb.c ****   * @retval HAL status
 476:Drivers/STM32F4xx_HAL_Driver/Src/stm32f4xx_ll_usb.c ****   */
 477:Drivers/STM32F4xx_HAL_Driver/Src/stm32f4xx_ll_usb.c **** HAL_StatusTypeDef USB_ActivateDedicatedEndpoint(USB_OTG_GlobalTypeDef *USBx, USB_OTG_EPTypeDef *ep)
 478:Drivers/STM32F4xx_HAL_Driver/Src/stm32f4xx_ll_usb.c **** {
 785              		.loc 1 478 0
 786              		.cfi_startproc
 787              		@ args = 0, pretend = 0, frame = 0
 788              		@ frame_needed = 0, uses_anonymous_args = 0
 789              		@ link register save eliminated.
 790              	.LVL59:
 791 0000 70B4     		push	{r4, r5, r6}
 792              	.LCFI14:
 793              		.cfi_def_cfa_offset 12
 794              		.cfi_offset 4, -12
 795              		.cfi_offset 5, -8
 796              		.cfi_offset 6, -4
 479:Drivers/STM32F4xx_HAL_Driver/Src/stm32f4xx_ll_usb.c ****   static __IO uint32_t debug = 0U;
 480:Drivers/STM32F4xx_HAL_Driver/Src/stm32f4xx_ll_usb.c ****   
 481:Drivers/STM32F4xx_HAL_Driver/Src/stm32f4xx_ll_usb.c ****   /* Read DEPCTLn register */
 482:Drivers/STM32F4xx_HAL_Driver/Src/stm32f4xx_ll_usb.c ****   if (ep->is_in == 1U)
 797              		.loc 1 482 0
 798 0002 4B78     		ldrb	r3, [r1, #1]	@ zero_extendqisi2
 799 0004 012B     		cmp	r3, #1
 800 0006 39D0     		beq	.L75
 483:Drivers/STM32F4xx_HAL_Driver/Src/stm32f4xx_ll_usb.c ****   {
 484:Drivers/STM32F4xx_HAL_Driver/Src/stm32f4xx_ll_usb.c ****     if (((USBx_INEP(ep->num)->DIEPCTL) & USB_OTG_DIEPCTL_USBAEP) == 0U)
 485:Drivers/STM32F4xx_HAL_Driver/Src/stm32f4xx_ll_usb.c ****     {
 486:Drivers/STM32F4xx_HAL_Driver/Src/stm32f4xx_ll_usb.c ****       USBx_INEP(ep->num)->DIEPCTL |= ((ep->maxpacket & USB_OTG_DIEPCTL_MPSIZ ) | (ep->type << 18U) 
 487:Drivers/STM32F4xx_HAL_Driver/Src/stm32f4xx_ll_usb.c ****         ((ep->num) << 22U) | (USB_OTG_DIEPCTL_SD0PID_SEVNFRM) | (USB_OTG_DIEPCTL_USBAEP)); 
 488:Drivers/STM32F4xx_HAL_Driver/Src/stm32f4xx_ll_usb.c ****     } 
 489:Drivers/STM32F4xx_HAL_Driver/Src/stm32f4xx_ll_usb.c ****     
 490:Drivers/STM32F4xx_HAL_Driver/Src/stm32f4xx_ll_usb.c ****     
 491:Drivers/STM32F4xx_HAL_Driver/Src/stm32f4xx_ll_usb.c ****     debug  |= ((ep->maxpacket & USB_OTG_DIEPCTL_MPSIZ ) | (ep->type << 18U) |\
 492:Drivers/STM32F4xx_HAL_Driver/Src/stm32f4xx_ll_usb.c ****         ((ep->num) << 22U) | (USB_OTG_DIEPCTL_SD0PID_SEVNFRM) | (USB_OTG_DIEPCTL_USBAEP)); 
 493:Drivers/STM32F4xx_HAL_Driver/Src/stm32f4xx_ll_usb.c ****     
 494:Drivers/STM32F4xx_HAL_Driver/Src/stm32f4xx_ll_usb.c ****    USBx_DEVICE->DEACHMSK |= USB_OTG_DAINTMSK_IEPM & ((1U << (ep->num)));
 495:Drivers/STM32F4xx_HAL_Driver/Src/stm32f4xx_ll_usb.c ****   }
 496:Drivers/STM32F4xx_HAL_Driver/Src/stm32f4xx_ll_usb.c ****   else
ARM GAS  /var/folders/7p/1_dhylqx7nl5s8914_0f_4w00000gn/T//ccJwiRQE.s 			page 24


 497:Drivers/STM32F4xx_HAL_Driver/Src/stm32f4xx_ll_usb.c ****   {
 498:Drivers/STM32F4xx_HAL_Driver/Src/stm32f4xx_ll_usb.c ****     if (((USBx_OUTEP(ep->num)->DOEPCTL) & USB_OTG_DOEPCTL_USBAEP) == 0U)
 801              		.loc 1 498 0
 802 0008 0D78     		ldrb	r5, [r1]	@ zero_extendqisi2
 803 000a 00EB4512 		add	r2, r0, r5, lsl #5
 804 000e D2F8003B 		ldr	r3, [r2, #2816]
 805 0012 13F4004F 		tst	r3, #32768
 806 0016 25D1     		bne	.L73
 499:Drivers/STM32F4xx_HAL_Driver/Src/stm32f4xx_ll_usb.c ****     {
 500:Drivers/STM32F4xx_HAL_Driver/Src/stm32f4xx_ll_usb.c ****       USBx_OUTEP(ep->num)->DOEPCTL |= ((ep->maxpacket & USB_OTG_DOEPCTL_MPSIZ ) | (ep->type << 18U)
 807              		.loc 1 500 0
 808 0018 D2F8004B 		ldr	r4, [r2, #2816]
 809 001c 8B68     		ldr	r3, [r1, #8]
 810 001e C3F30A03 		ubfx	r3, r3, #0, #11
 811 0022 CE78     		ldrb	r6, [r1, #3]	@ zero_extendqisi2
 812 0024 43EA8643 		orr	r3, r3, r6, lsl #18
 813 0028 43EA8553 		orr	r3, r3, r5, lsl #22
 814 002c 2343     		orrs	r3, r3, r4
 815 002e 43F40043 		orr	r3, r3, #32768
 816 0032 C2F8003B 		str	r3, [r2, #2816]
 501:Drivers/STM32F4xx_HAL_Driver/Src/stm32f4xx_ll_usb.c ****         ((ep->num) << 22U) | (USB_OTG_DOEPCTL_USBAEP));
 502:Drivers/STM32F4xx_HAL_Driver/Src/stm32f4xx_ll_usb.c ****       
 503:Drivers/STM32F4xx_HAL_Driver/Src/stm32f4xx_ll_usb.c ****       debug = (uint32_t)(((uint32_t )USBx) + USB_OTG_OUT_ENDPOINT_BASE + (0U)*USB_OTG_EP_REG_SIZE);
 817              		.loc 1 503 0
 818 0036 00F53063 		add	r3, r0, #2816
 819 003a 2A4A     		ldr	r2, .L76
 820 003c 1360     		str	r3, [r2]
 504:Drivers/STM32F4xx_HAL_Driver/Src/stm32f4xx_ll_usb.c ****       debug = (uint32_t )&USBx_OUTEP(ep->num)->DOEPCTL;
 821              		.loc 1 504 0
 822 003e 0D78     		ldrb	r5, [r1]	@ zero_extendqisi2
 823 0040 00EB4514 		add	r4, r0, r5, lsl #5
 824 0044 04F53064 		add	r4, r4, #2816
 825 0048 1460     		str	r4, [r2]
 505:Drivers/STM32F4xx_HAL_Driver/Src/stm32f4xx_ll_usb.c ****       debug |= ((ep->maxpacket & USB_OTG_DOEPCTL_MPSIZ ) | (ep->type << 18U) |\
 826              		.loc 1 505 0
 827 004a 8B68     		ldr	r3, [r1, #8]
 828 004c C3F30A03 		ubfx	r3, r3, #0, #11
 829 0050 CC78     		ldrb	r4, [r1, #3]	@ zero_extendqisi2
 830 0052 43EA8443 		orr	r3, r3, r4, lsl #18
 831 0056 43EA8553 		orr	r3, r3, r5, lsl #22
 832 005a 1468     		ldr	r4, [r2]
 833 005c 2343     		orrs	r3, r3, r4
 834 005e 43F40043 		orr	r3, r3, #32768
 835 0062 1360     		str	r3, [r2]
 836              	.L73:
 506:Drivers/STM32F4xx_HAL_Driver/Src/stm32f4xx_ll_usb.c ****         ((ep->num) << 22U) | (USB_OTG_DOEPCTL_USBAEP)); 
 507:Drivers/STM32F4xx_HAL_Driver/Src/stm32f4xx_ll_usb.c ****     } 
 508:Drivers/STM32F4xx_HAL_Driver/Src/stm32f4xx_ll_usb.c ****     
 509:Drivers/STM32F4xx_HAL_Driver/Src/stm32f4xx_ll_usb.c ****      USBx_DEVICE->DEACHMSK |= USB_OTG_DAINTMSK_OEPM & ((1U << (ep->num)) << 16U);
 837              		.loc 1 509 0
 838 0064 D0F83C38 		ldr	r3, [r0, #2108]
 839 0068 0978     		ldrb	r1, [r1]	@ zero_extendqisi2
 840              	.LVL60:
 841 006a 0122     		movs	r2, #1
 842 006c 8A40     		lsls	r2, r2, r1
 843 006e 43EA0243 		orr	r3, r3, r2, lsl #16
 844 0072 C0F83C38 		str	r3, [r0, #2108]
ARM GAS  /var/folders/7p/1_dhylqx7nl5s8914_0f_4w00000gn/T//ccJwiRQE.s 			page 25


 845              	.L72:
 510:Drivers/STM32F4xx_HAL_Driver/Src/stm32f4xx_ll_usb.c ****   }
 511:Drivers/STM32F4xx_HAL_Driver/Src/stm32f4xx_ll_usb.c **** 
 512:Drivers/STM32F4xx_HAL_Driver/Src/stm32f4xx_ll_usb.c ****   return HAL_OK;
 513:Drivers/STM32F4xx_HAL_Driver/Src/stm32f4xx_ll_usb.c **** }
 846              		.loc 1 513 0
 847 0076 0020     		movs	r0, #0
 848              	.LVL61:
 849 0078 70BC     		pop	{r4, r5, r6}
 850              	.LCFI15:
 851              		.cfi_remember_state
 852              		.cfi_restore 6
 853              		.cfi_restore 5
 854              		.cfi_restore 4
 855              		.cfi_def_cfa_offset 0
 856 007a 7047     		bx	lr
 857              	.LVL62:
 858              	.L75:
 859              	.LCFI16:
 860              		.cfi_restore_state
 484:Drivers/STM32F4xx_HAL_Driver/Src/stm32f4xx_ll_usb.c ****     {
 861              		.loc 1 484 0
 862 007c 0D78     		ldrb	r5, [r1]	@ zero_extendqisi2
 863 007e 00EB4514 		add	r4, r0, r5, lsl #5
 864 0082 D4F80039 		ldr	r3, [r4, #2304]
 865 0086 13F4004F 		tst	r3, #32768
 866 008a 10D1     		bne	.L71
 486:Drivers/STM32F4xx_HAL_Driver/Src/stm32f4xx_ll_usb.c ****         ((ep->num) << 22U) | (USB_OTG_DIEPCTL_SD0PID_SEVNFRM) | (USB_OTG_DIEPCTL_USBAEP)); 
 867              		.loc 1 486 0
 868 008c D4F80039 		ldr	r3, [r4, #2304]
 869 0090 8A68     		ldr	r2, [r1, #8]
 870 0092 C2F30A02 		ubfx	r2, r2, #0, #11
 871 0096 CE78     		ldrb	r6, [r1, #3]	@ zero_extendqisi2
 872 0098 42EA8642 		orr	r2, r2, r6, lsl #18
 873 009c 42EA8552 		orr	r2, r2, r5, lsl #22
 874 00a0 1343     		orrs	r3, r3, r2
 875 00a2 43F08053 		orr	r3, r3, #268435456
 876 00a6 43F40043 		orr	r3, r3, #32768
 877 00aa C4F80039 		str	r3, [r4, #2304]
 878              	.L71:
 491:Drivers/STM32F4xx_HAL_Driver/Src/stm32f4xx_ll_usb.c ****         ((ep->num) << 22U) | (USB_OTG_DIEPCTL_SD0PID_SEVNFRM) | (USB_OTG_DIEPCTL_USBAEP)); 
 879              		.loc 1 491 0
 880 00ae 8B68     		ldr	r3, [r1, #8]
 881 00b0 C3F30A03 		ubfx	r3, r3, #0, #11
 882 00b4 CA78     		ldrb	r2, [r1, #3]	@ zero_extendqisi2
 883 00b6 43EA8243 		orr	r3, r3, r2, lsl #18
 492:Drivers/STM32F4xx_HAL_Driver/Src/stm32f4xx_ll_usb.c ****     
 884              		.loc 1 492 0
 885 00ba 0978     		ldrb	r1, [r1]	@ zero_extendqisi2
 886              	.LVL63:
 491:Drivers/STM32F4xx_HAL_Driver/Src/stm32f4xx_ll_usb.c ****         ((ep->num) << 22U) | (USB_OTG_DIEPCTL_SD0PID_SEVNFRM) | (USB_OTG_DIEPCTL_USBAEP)); 
 887              		.loc 1 491 0
 888 00bc 43EA8153 		orr	r3, r3, r1, lsl #22
 889 00c0 084A     		ldr	r2, .L76
 890 00c2 1468     		ldr	r4, [r2]
 891 00c4 2343     		orrs	r3, r3, r4
 892 00c6 43F08053 		orr	r3, r3, #268435456
ARM GAS  /var/folders/7p/1_dhylqx7nl5s8914_0f_4w00000gn/T//ccJwiRQE.s 			page 26


 893 00ca 43F40043 		orr	r3, r3, #32768
 894 00ce 1360     		str	r3, [r2]
 494:Drivers/STM32F4xx_HAL_Driver/Src/stm32f4xx_ll_usb.c ****   }
 895              		.loc 1 494 0
 896 00d0 D0F83C28 		ldr	r2, [r0, #2108]
 897 00d4 0123     		movs	r3, #1
 898 00d6 8B40     		lsls	r3, r3, r1
 899 00d8 9BB2     		uxth	r3, r3
 900 00da 1343     		orrs	r3, r3, r2
 901 00dc C0F83C38 		str	r3, [r0, #2108]
 902 00e0 C9E7     		b	.L72
 903              	.L77:
 904 00e2 00BF     		.align	2
 905              	.L76:
 906 00e4 00000000 		.word	.LANCHOR0
 907              		.cfi_endproc
 908              	.LFE134:
 910              		.section	.text.USB_DeactivateEndpoint,"ax",%progbits
 911              		.align	1
 912              		.global	USB_DeactivateEndpoint
 913              		.syntax unified
 914              		.thumb
 915              		.thumb_func
 916              		.fpu fpv4-sp-d16
 918              	USB_DeactivateEndpoint:
 919              	.LFB135:
 514:Drivers/STM32F4xx_HAL_Driver/Src/stm32f4xx_ll_usb.c **** /**
 515:Drivers/STM32F4xx_HAL_Driver/Src/stm32f4xx_ll_usb.c ****   * @brief  De-activate and de-initialize an endpoint
 516:Drivers/STM32F4xx_HAL_Driver/Src/stm32f4xx_ll_usb.c ****   * @param  USBx : Selected device
 517:Drivers/STM32F4xx_HAL_Driver/Src/stm32f4xx_ll_usb.c ****   * @param  ep: pointer to endpoint structure
 518:Drivers/STM32F4xx_HAL_Driver/Src/stm32f4xx_ll_usb.c ****   * @retval HAL status
 519:Drivers/STM32F4xx_HAL_Driver/Src/stm32f4xx_ll_usb.c ****   */
 520:Drivers/STM32F4xx_HAL_Driver/Src/stm32f4xx_ll_usb.c **** HAL_StatusTypeDef USB_DeactivateEndpoint(USB_OTG_GlobalTypeDef *USBx, USB_OTG_EPTypeDef *ep)
 521:Drivers/STM32F4xx_HAL_Driver/Src/stm32f4xx_ll_usb.c **** {
 920              		.loc 1 521 0
 921              		.cfi_startproc
 922              		@ args = 0, pretend = 0, frame = 0
 923              		@ frame_needed = 0, uses_anonymous_args = 0
 924              	.LVL64:
 925 0000 38B5     		push	{r3, r4, r5, lr}
 926              	.LCFI17:
 927              		.cfi_def_cfa_offset 16
 928              		.cfi_offset 3, -16
 929              		.cfi_offset 4, -12
 930              		.cfi_offset 5, -8
 931              		.cfi_offset 14, -4
 932              	.LVL65:
 522:Drivers/STM32F4xx_HAL_Driver/Src/stm32f4xx_ll_usb.c ****   uint32_t count = 0U;
 523:Drivers/STM32F4xx_HAL_Driver/Src/stm32f4xx_ll_usb.c ****   
 524:Drivers/STM32F4xx_HAL_Driver/Src/stm32f4xx_ll_usb.c ****   /* Disable the IN endpoint */
 525:Drivers/STM32F4xx_HAL_Driver/Src/stm32f4xx_ll_usb.c ****   if (ep->is_in == 1U)
 933              		.loc 1 525 0
 934 0002 4B78     		ldrb	r3, [r1, #1]	@ zero_extendqisi2
 935 0004 012B     		cmp	r3, #1
 936 0006 36D0     		beq	.L86
 526:Drivers/STM32F4xx_HAL_Driver/Src/stm32f4xx_ll_usb.c ****   {
 527:Drivers/STM32F4xx_HAL_Driver/Src/stm32f4xx_ll_usb.c ****     USBx_INEP(ep->num)->DIEPCTL &= ~USB_OTG_DIEPCTL_USBAEP;  
ARM GAS  /var/folders/7p/1_dhylqx7nl5s8914_0f_4w00000gn/T//ccJwiRQE.s 			page 27


 528:Drivers/STM32F4xx_HAL_Driver/Src/stm32f4xx_ll_usb.c ****     
 529:Drivers/STM32F4xx_HAL_Driver/Src/stm32f4xx_ll_usb.c ****     /* sets the NAK bit for the IN endpoint */
 530:Drivers/STM32F4xx_HAL_Driver/Src/stm32f4xx_ll_usb.c ****     USBx_INEP(ep->num)->DIEPCTL = USB_OTG_DIEPCTL_SNAK;
 531:Drivers/STM32F4xx_HAL_Driver/Src/stm32f4xx_ll_usb.c ****     
 532:Drivers/STM32F4xx_HAL_Driver/Src/stm32f4xx_ll_usb.c ****     /* Disable IN endpoint */
 533:Drivers/STM32F4xx_HAL_Driver/Src/stm32f4xx_ll_usb.c ****     USBx_INEP(ep->num)->DIEPCTL = USB_OTG_DIEPCTL_EPDIS;
 534:Drivers/STM32F4xx_HAL_Driver/Src/stm32f4xx_ll_usb.c ****     
 535:Drivers/STM32F4xx_HAL_Driver/Src/stm32f4xx_ll_usb.c ****     do
 536:Drivers/STM32F4xx_HAL_Driver/Src/stm32f4xx_ll_usb.c ****     {
 537:Drivers/STM32F4xx_HAL_Driver/Src/stm32f4xx_ll_usb.c ****       if (++count > 200000U)
 538:Drivers/STM32F4xx_HAL_Driver/Src/stm32f4xx_ll_usb.c ****       {
 539:Drivers/STM32F4xx_HAL_Driver/Src/stm32f4xx_ll_usb.c ****         return HAL_TIMEOUT;
 540:Drivers/STM32F4xx_HAL_Driver/Src/stm32f4xx_ll_usb.c ****       }
 541:Drivers/STM32F4xx_HAL_Driver/Src/stm32f4xx_ll_usb.c ****     }
 542:Drivers/STM32F4xx_HAL_Driver/Src/stm32f4xx_ll_usb.c ****     
 543:Drivers/STM32F4xx_HAL_Driver/Src/stm32f4xx_ll_usb.c ****     /*Wait for  EPDISD endpoint disabled interrupt*/ 
 544:Drivers/STM32F4xx_HAL_Driver/Src/stm32f4xx_ll_usb.c ****     while ((USBx_INEP(ep->num)->DIEPINT & USB_OTG_DIEPCTL_EPDIS) == USB_OTG_DIEPCTL_EPDIS);
 545:Drivers/STM32F4xx_HAL_Driver/Src/stm32f4xx_ll_usb.c ****     
 546:Drivers/STM32F4xx_HAL_Driver/Src/stm32f4xx_ll_usb.c ****     
 547:Drivers/STM32F4xx_HAL_Driver/Src/stm32f4xx_ll_usb.c ****     /* Flush any data remaining in the TxFIFO */
 548:Drivers/STM32F4xx_HAL_Driver/Src/stm32f4xx_ll_usb.c ****     USB_FlushTxFifo(USBx , 0x10U);
 549:Drivers/STM32F4xx_HAL_Driver/Src/stm32f4xx_ll_usb.c ****     
 550:Drivers/STM32F4xx_HAL_Driver/Src/stm32f4xx_ll_usb.c ****     /* Disable endpoint interrupts */
 551:Drivers/STM32F4xx_HAL_Driver/Src/stm32f4xx_ll_usb.c ****     USBx_DEVICE->DAINTMSK &= ~(USB_OTG_DAINTMSK_IEPM & ((1U << (ep->num))));   
 552:Drivers/STM32F4xx_HAL_Driver/Src/stm32f4xx_ll_usb.c ****   
 553:Drivers/STM32F4xx_HAL_Driver/Src/stm32f4xx_ll_usb.c ****   }
 554:Drivers/STM32F4xx_HAL_Driver/Src/stm32f4xx_ll_usb.c ****   else /* Disable the OUT endpoint */
 555:Drivers/STM32F4xx_HAL_Driver/Src/stm32f4xx_ll_usb.c ****   {
 556:Drivers/STM32F4xx_HAL_Driver/Src/stm32f4xx_ll_usb.c ****     
 557:Drivers/STM32F4xx_HAL_Driver/Src/stm32f4xx_ll_usb.c ****     USBx_OUTEP(ep->num)->DOEPCTL &= ~USB_OTG_DOEPCTL_USBAEP;  
 937              		.loc 1 557 0
 938 0008 0B78     		ldrb	r3, [r1]	@ zero_extendqisi2
 939 000a 0446     		mov	r4, r0
 940 000c 00EB4313 		add	r3, r0, r3, lsl #5
 941 0010 D3F8002B 		ldr	r2, [r3, #2816]
 942 0014 22F40042 		bic	r2, r2, #32768
 943 0018 C3F8002B 		str	r2, [r3, #2816]
 558:Drivers/STM32F4xx_HAL_Driver/Src/stm32f4xx_ll_usb.c ****     
 559:Drivers/STM32F4xx_HAL_Driver/Src/stm32f4xx_ll_usb.c ****     /* sets the NAK bit for the OUT endpoint */
 560:Drivers/STM32F4xx_HAL_Driver/Src/stm32f4xx_ll_usb.c ****     USBx_OUTEP(ep->num)->DOEPCTL = USB_OTG_DOEPCTL_SNAK;
 944              		.loc 1 560 0
 945 001c 0B78     		ldrb	r3, [r1]	@ zero_extendqisi2
 946 001e 00EB4313 		add	r3, r0, r3, lsl #5
 947 0022 4FF00062 		mov	r2, #134217728
 948 0026 C3F8002B 		str	r2, [r3, #2816]
 561:Drivers/STM32F4xx_HAL_Driver/Src/stm32f4xx_ll_usb.c ****     
 562:Drivers/STM32F4xx_HAL_Driver/Src/stm32f4xx_ll_usb.c ****     /* Disable OUT endpoint */
 563:Drivers/STM32F4xx_HAL_Driver/Src/stm32f4xx_ll_usb.c ****     USBx_OUTEP(ep->num)->DOEPCTL = USB_OTG_DOEPCTL_EPDIS;
 949              		.loc 1 563 0
 950 002a 0B78     		ldrb	r3, [r1]	@ zero_extendqisi2
 951 002c 00EB4313 		add	r3, r0, r3, lsl #5
 952 0030 4FF08042 		mov	r2, #1073741824
 953 0034 C3F8002B 		str	r2, [r3, #2816]
 522:Drivers/STM32F4xx_HAL_Driver/Src/stm32f4xx_ll_usb.c ****   
 954              		.loc 1 522 0
 955 0038 0022     		movs	r2, #0
 956              	.LVL66:
ARM GAS  /var/folders/7p/1_dhylqx7nl5s8914_0f_4w00000gn/T//ccJwiRQE.s 			page 28


 957              	.L82:
 564:Drivers/STM32F4xx_HAL_Driver/Src/stm32f4xx_ll_usb.c ****     
 565:Drivers/STM32F4xx_HAL_Driver/Src/stm32f4xx_ll_usb.c ****     do
 566:Drivers/STM32F4xx_HAL_Driver/Src/stm32f4xx_ll_usb.c ****     {
 567:Drivers/STM32F4xx_HAL_Driver/Src/stm32f4xx_ll_usb.c ****       if (++count > 200000U)
 958              		.loc 1 567 0
 959 003a 0132     		adds	r2, r2, #1
 960              	.LVL67:
 961 003c 2B4B     		ldr	r3, .L87
 962 003e 9A42     		cmp	r2, r3
 963 0040 52D8     		bhi	.L84
 568:Drivers/STM32F4xx_HAL_Driver/Src/stm32f4xx_ll_usb.c ****       {
 569:Drivers/STM32F4xx_HAL_Driver/Src/stm32f4xx_ll_usb.c ****         return HAL_TIMEOUT;
 570:Drivers/STM32F4xx_HAL_Driver/Src/stm32f4xx_ll_usb.c ****       }
 571:Drivers/STM32F4xx_HAL_Driver/Src/stm32f4xx_ll_usb.c ****     }
 572:Drivers/STM32F4xx_HAL_Driver/Src/stm32f4xx_ll_usb.c ****     
 573:Drivers/STM32F4xx_HAL_Driver/Src/stm32f4xx_ll_usb.c ****     /*Wait for  EPDISD endpoint disabled interrupt*/ 
 574:Drivers/STM32F4xx_HAL_Driver/Src/stm32f4xx_ll_usb.c ****     while ((USBx_OUTEP(ep->num)->DOEPINT & USB_OTG_DOEPINT_OTEPDIS) == USB_OTG_DOEPINT_OTEPDIS);
 964              		.loc 1 574 0
 965 0042 0B78     		ldrb	r3, [r1]	@ zero_extendqisi2
 966 0044 04EB4313 		add	r3, r4, r3, lsl #5
 967 0048 03F53063 		add	r3, r3, #2816
 968 004c 9B68     		ldr	r3, [r3, #8]
 969 004e 13F0100F 		tst	r3, #16
 970 0052 F2D1     		bne	.L82
 575:Drivers/STM32F4xx_HAL_Driver/Src/stm32f4xx_ll_usb.c ****     
 576:Drivers/STM32F4xx_HAL_Driver/Src/stm32f4xx_ll_usb.c ****     /* Set the "Clear the Global OUT NAK bit" to disable global OUT NAK mode */
 577:Drivers/STM32F4xx_HAL_Driver/Src/stm32f4xx_ll_usb.c ****     USBx_DEVICE->DCTL |= USB_OTG_DCTL_CGONAK;
 971              		.loc 1 577 0
 972 0054 D0F80438 		ldr	r3, [r0, #2052]
 973 0058 43F48063 		orr	r3, r3, #1024
 974 005c C0F80438 		str	r3, [r0, #2052]
 578:Drivers/STM32F4xx_HAL_Driver/Src/stm32f4xx_ll_usb.c ****     
 579:Drivers/STM32F4xx_HAL_Driver/Src/stm32f4xx_ll_usb.c ****     /* Disable endpoint interrupts */
 580:Drivers/STM32F4xx_HAL_Driver/Src/stm32f4xx_ll_usb.c ****     USBx_DEVICE->DAINTMSK &= ~(USB_OTG_DAINTMSK_OEPM & ((1U << (ep->num)) << 16U));         
 975              		.loc 1 580 0
 976 0060 D0F81C38 		ldr	r3, [r0, #2076]
 977 0064 0978     		ldrb	r1, [r1]	@ zero_extendqisi2
 978              	.LVL68:
 979 0066 0122     		movs	r2, #1
 980              	.LVL69:
 981 0068 8A40     		lsls	r2, r2, r1
 982 006a 23EA0243 		bic	r3, r3, r2, lsl #16
 983 006e C0F81C38 		str	r3, [r0, #2076]
 581:Drivers/STM32F4xx_HAL_Driver/Src/stm32f4xx_ll_usb.c ****   }
 582:Drivers/STM32F4xx_HAL_Driver/Src/stm32f4xx_ll_usb.c ****   return HAL_OK;
 984              		.loc 1 582 0
 985 0072 0020     		movs	r0, #0
 986              	.LVL70:
 987 0074 38BD     		pop	{r3, r4, r5, pc}
 988              	.LVL71:
 989              	.L86:
 527:Drivers/STM32F4xx_HAL_Driver/Src/stm32f4xx_ll_usb.c ****     
 990              		.loc 1 527 0
 991 0076 0B78     		ldrb	r3, [r1]	@ zero_extendqisi2
 992 0078 0446     		mov	r4, r0
 993 007a 00EB4313 		add	r3, r0, r3, lsl #5
ARM GAS  /var/folders/7p/1_dhylqx7nl5s8914_0f_4w00000gn/T//ccJwiRQE.s 			page 29


 994 007e D3F80029 		ldr	r2, [r3, #2304]
 995 0082 22F40042 		bic	r2, r2, #32768
 996 0086 C3F80029 		str	r2, [r3, #2304]
 530:Drivers/STM32F4xx_HAL_Driver/Src/stm32f4xx_ll_usb.c ****     
 997              		.loc 1 530 0
 998 008a 0B78     		ldrb	r3, [r1]	@ zero_extendqisi2
 999 008c 00EB4313 		add	r3, r0, r3, lsl #5
 1000 0090 4FF00062 		mov	r2, #134217728
 1001 0094 C3F80029 		str	r2, [r3, #2304]
 533:Drivers/STM32F4xx_HAL_Driver/Src/stm32f4xx_ll_usb.c ****     
 1002              		.loc 1 533 0
 1003 0098 0B78     		ldrb	r3, [r1]	@ zero_extendqisi2
 1004 009a 00EB4313 		add	r3, r0, r3, lsl #5
 1005 009e 4FF08042 		mov	r2, #1073741824
 1006 00a2 C3F80029 		str	r2, [r3, #2304]
 522:Drivers/STM32F4xx_HAL_Driver/Src/stm32f4xx_ll_usb.c ****   
 1007              		.loc 1 522 0
 1008 00a6 0022     		movs	r2, #0
 1009              	.LVL72:
 1010              	.L81:
 537:Drivers/STM32F4xx_HAL_Driver/Src/stm32f4xx_ll_usb.c ****       {
 1011              		.loc 1 537 0
 1012 00a8 0132     		adds	r2, r2, #1
 1013              	.LVL73:
 1014 00aa 104B     		ldr	r3, .L87
 1015 00ac 9A42     		cmp	r2, r3
 1016 00ae 19D8     		bhi	.L83
 544:Drivers/STM32F4xx_HAL_Driver/Src/stm32f4xx_ll_usb.c ****     
 1017              		.loc 1 544 0
 1018 00b0 0B78     		ldrb	r3, [r1]	@ zero_extendqisi2
 1019 00b2 04EB4313 		add	r3, r4, r3, lsl #5
 1020 00b6 03F51063 		add	r3, r3, #2304
 1021 00ba 9B68     		ldr	r3, [r3, #8]
 1022 00bc 13F0804F 		tst	r3, #1073741824
 1023 00c0 F2D1     		bne	.L81
 1024 00c2 0D46     		mov	r5, r1
 1025 00c4 0446     		mov	r4, r0
 548:Drivers/STM32F4xx_HAL_Driver/Src/stm32f4xx_ll_usb.c ****     
 1026              		.loc 1 548 0
 1027 00c6 1021     		movs	r1, #16
 1028              	.LVL74:
 1029 00c8 FFF7FEFF 		bl	USB_FlushTxFifo
 1030              	.LVL75:
 551:Drivers/STM32F4xx_HAL_Driver/Src/stm32f4xx_ll_usb.c ****   
 1031              		.loc 1 551 0
 1032 00cc D4F81C28 		ldr	r2, [r4, #2076]
 1033 00d0 2978     		ldrb	r1, [r5]	@ zero_extendqisi2
 1034 00d2 0123     		movs	r3, #1
 1035 00d4 8B40     		lsls	r3, r3, r1
 1036 00d6 9BB2     		uxth	r3, r3
 1037 00d8 22EA0303 		bic	r3, r2, r3
 1038 00dc C4F81C38 		str	r3, [r4, #2076]
 1039              		.loc 1 582 0
 1040 00e0 0020     		movs	r0, #0
 1041 00e2 38BD     		pop	{r3, r4, r5, pc}
 1042              	.LVL76:
 1043              	.L83:
ARM GAS  /var/folders/7p/1_dhylqx7nl5s8914_0f_4w00000gn/T//ccJwiRQE.s 			page 30


 539:Drivers/STM32F4xx_HAL_Driver/Src/stm32f4xx_ll_usb.c ****       }
 1044              		.loc 1 539 0
 1045 00e4 0320     		movs	r0, #3
 1046              	.LVL77:
 1047 00e6 38BD     		pop	{r3, r4, r5, pc}
 1048              	.LVL78:
 1049              	.L84:
 569:Drivers/STM32F4xx_HAL_Driver/Src/stm32f4xx_ll_usb.c ****       }
 1050              		.loc 1 569 0
 1051 00e8 0320     		movs	r0, #3
 1052              	.LVL79:
 583:Drivers/STM32F4xx_HAL_Driver/Src/stm32f4xx_ll_usb.c **** }
 1053              		.loc 1 583 0
 1054 00ea 38BD     		pop	{r3, r4, r5, pc}
 1055              	.LVL80:
 1056              	.L88:
 1057              		.align	2
 1058              	.L87:
 1059 00ec 400D0300 		.word	200000
 1060              		.cfi_endproc
 1061              	.LFE135:
 1063              		.section	.text.USB_DeactivateDedicatedEndpoint,"ax",%progbits
 1064              		.align	1
 1065              		.global	USB_DeactivateDedicatedEndpoint
 1066              		.syntax unified
 1067              		.thumb
 1068              		.thumb_func
 1069              		.fpu fpv4-sp-d16
 1071              	USB_DeactivateDedicatedEndpoint:
 1072              	.LFB136:
 584:Drivers/STM32F4xx_HAL_Driver/Src/stm32f4xx_ll_usb.c **** 
 585:Drivers/STM32F4xx_HAL_Driver/Src/stm32f4xx_ll_usb.c **** /**
 586:Drivers/STM32F4xx_HAL_Driver/Src/stm32f4xx_ll_usb.c ****   * @brief  De-activate and de-initialize a dedicated endpoint
 587:Drivers/STM32F4xx_HAL_Driver/Src/stm32f4xx_ll_usb.c ****   * @param  USBx : Selected device
 588:Drivers/STM32F4xx_HAL_Driver/Src/stm32f4xx_ll_usb.c ****   * @param  ep: pointer to endpoint structure
 589:Drivers/STM32F4xx_HAL_Driver/Src/stm32f4xx_ll_usb.c ****   * @retval HAL status
 590:Drivers/STM32F4xx_HAL_Driver/Src/stm32f4xx_ll_usb.c ****   */
 591:Drivers/STM32F4xx_HAL_Driver/Src/stm32f4xx_ll_usb.c **** HAL_StatusTypeDef USB_DeactivateDedicatedEndpoint(USB_OTG_GlobalTypeDef *USBx, USB_OTG_EPTypeDef *e
 592:Drivers/STM32F4xx_HAL_Driver/Src/stm32f4xx_ll_usb.c **** {
 1073              		.loc 1 592 0
 1074              		.cfi_startproc
 1075              		@ args = 0, pretend = 0, frame = 0
 1076              		@ frame_needed = 0, uses_anonymous_args = 0
 1077              	.LVL81:
 1078 0000 38B5     		push	{r3, r4, r5, lr}
 1079              	.LCFI18:
 1080              		.cfi_def_cfa_offset 16
 1081              		.cfi_offset 3, -16
 1082              		.cfi_offset 4, -12
 1083              		.cfi_offset 5, -8
 1084              		.cfi_offset 14, -4
 1085              	.LVL82:
 593:Drivers/STM32F4xx_HAL_Driver/Src/stm32f4xx_ll_usb.c ****   uint32_t count = 0U;
 594:Drivers/STM32F4xx_HAL_Driver/Src/stm32f4xx_ll_usb.c ****   
 595:Drivers/STM32F4xx_HAL_Driver/Src/stm32f4xx_ll_usb.c ****   /* Disable the IN endpoint */
 596:Drivers/STM32F4xx_HAL_Driver/Src/stm32f4xx_ll_usb.c ****   if (ep->is_in == 1U)
 1086              		.loc 1 596 0
ARM GAS  /var/folders/7p/1_dhylqx7nl5s8914_0f_4w00000gn/T//ccJwiRQE.s 			page 31


 1087 0002 4B78     		ldrb	r3, [r1, #1]	@ zero_extendqisi2
 1088 0004 012B     		cmp	r3, #1
 1089 0006 36D0     		beq	.L97
 597:Drivers/STM32F4xx_HAL_Driver/Src/stm32f4xx_ll_usb.c ****   {
 598:Drivers/STM32F4xx_HAL_Driver/Src/stm32f4xx_ll_usb.c ****     USBx_INEP(ep->num)->DIEPCTL &= ~USB_OTG_DIEPCTL_USBAEP;  
 599:Drivers/STM32F4xx_HAL_Driver/Src/stm32f4xx_ll_usb.c ****     
 600:Drivers/STM32F4xx_HAL_Driver/Src/stm32f4xx_ll_usb.c ****     /* sets the NAK bit for the IN endpoint */
 601:Drivers/STM32F4xx_HAL_Driver/Src/stm32f4xx_ll_usb.c ****     USBx_INEP(ep->num)->DIEPCTL = USB_OTG_DIEPCTL_SNAK;
 602:Drivers/STM32F4xx_HAL_Driver/Src/stm32f4xx_ll_usb.c ****     
 603:Drivers/STM32F4xx_HAL_Driver/Src/stm32f4xx_ll_usb.c ****     /* Disable IN endpoint */
 604:Drivers/STM32F4xx_HAL_Driver/Src/stm32f4xx_ll_usb.c ****     USBx_INEP(ep->num)->DIEPCTL = USB_OTG_DIEPCTL_EPDIS;
 605:Drivers/STM32F4xx_HAL_Driver/Src/stm32f4xx_ll_usb.c ****     
 606:Drivers/STM32F4xx_HAL_Driver/Src/stm32f4xx_ll_usb.c ****     do
 607:Drivers/STM32F4xx_HAL_Driver/Src/stm32f4xx_ll_usb.c ****     {
 608:Drivers/STM32F4xx_HAL_Driver/Src/stm32f4xx_ll_usb.c ****       if (++count > 200000U)
 609:Drivers/STM32F4xx_HAL_Driver/Src/stm32f4xx_ll_usb.c ****       {
 610:Drivers/STM32F4xx_HAL_Driver/Src/stm32f4xx_ll_usb.c ****         return HAL_TIMEOUT;
 611:Drivers/STM32F4xx_HAL_Driver/Src/stm32f4xx_ll_usb.c ****       }
 612:Drivers/STM32F4xx_HAL_Driver/Src/stm32f4xx_ll_usb.c ****     }
 613:Drivers/STM32F4xx_HAL_Driver/Src/stm32f4xx_ll_usb.c ****     
 614:Drivers/STM32F4xx_HAL_Driver/Src/stm32f4xx_ll_usb.c ****     /*Wait for  EPDISD endpoint disabled interrupt*/ 
 615:Drivers/STM32F4xx_HAL_Driver/Src/stm32f4xx_ll_usb.c ****     while ((USBx_INEP(ep->num)->DIEPINT & USB_OTG_DIEPCTL_EPDIS) == USB_OTG_DIEPCTL_EPDIS);
 616:Drivers/STM32F4xx_HAL_Driver/Src/stm32f4xx_ll_usb.c ****     
 617:Drivers/STM32F4xx_HAL_Driver/Src/stm32f4xx_ll_usb.c ****     
 618:Drivers/STM32F4xx_HAL_Driver/Src/stm32f4xx_ll_usb.c ****     /* Flush any data remaining in the TxFIFO */
 619:Drivers/STM32F4xx_HAL_Driver/Src/stm32f4xx_ll_usb.c ****     USB_FlushTxFifo(USBx , 0x10U);
 620:Drivers/STM32F4xx_HAL_Driver/Src/stm32f4xx_ll_usb.c ****     
 621:Drivers/STM32F4xx_HAL_Driver/Src/stm32f4xx_ll_usb.c ****     /* Disable endpoint interrupts */
 622:Drivers/STM32F4xx_HAL_Driver/Src/stm32f4xx_ll_usb.c ****     USBx_DEVICE->DAINTMSK &= ~(USB_OTG_DAINTMSK_IEPM & ((1U << (ep->num))));   
 623:Drivers/STM32F4xx_HAL_Driver/Src/stm32f4xx_ll_usb.c ****   
 624:Drivers/STM32F4xx_HAL_Driver/Src/stm32f4xx_ll_usb.c ****   }
 625:Drivers/STM32F4xx_HAL_Driver/Src/stm32f4xx_ll_usb.c ****   else /* Disable the OUT endpoint */
 626:Drivers/STM32F4xx_HAL_Driver/Src/stm32f4xx_ll_usb.c ****   {
 627:Drivers/STM32F4xx_HAL_Driver/Src/stm32f4xx_ll_usb.c ****     
 628:Drivers/STM32F4xx_HAL_Driver/Src/stm32f4xx_ll_usb.c ****     USBx_OUTEP(ep->num)->DOEPCTL &= ~USB_OTG_DOEPCTL_USBAEP;  
 1090              		.loc 1 628 0
 1091 0008 0B78     		ldrb	r3, [r1]	@ zero_extendqisi2
 1092 000a 0446     		mov	r4, r0
 1093 000c 00EB4313 		add	r3, r0, r3, lsl #5
 1094 0010 D3F8002B 		ldr	r2, [r3, #2816]
 1095 0014 22F40042 		bic	r2, r2, #32768
 1096 0018 C3F8002B 		str	r2, [r3, #2816]
 629:Drivers/STM32F4xx_HAL_Driver/Src/stm32f4xx_ll_usb.c ****     
 630:Drivers/STM32F4xx_HAL_Driver/Src/stm32f4xx_ll_usb.c ****     /* sets the NAK bit for the OUT endpoint */
 631:Drivers/STM32F4xx_HAL_Driver/Src/stm32f4xx_ll_usb.c ****     USBx_OUTEP(ep->num)->DOEPCTL = USB_OTG_DOEPCTL_SNAK;
 1097              		.loc 1 631 0
 1098 001c 0B78     		ldrb	r3, [r1]	@ zero_extendqisi2
 1099 001e 00EB4313 		add	r3, r0, r3, lsl #5
 1100 0022 4FF00062 		mov	r2, #134217728
 1101 0026 C3F8002B 		str	r2, [r3, #2816]
 632:Drivers/STM32F4xx_HAL_Driver/Src/stm32f4xx_ll_usb.c ****     
 633:Drivers/STM32F4xx_HAL_Driver/Src/stm32f4xx_ll_usb.c ****     /* Disable OUT endpoint */
 634:Drivers/STM32F4xx_HAL_Driver/Src/stm32f4xx_ll_usb.c ****     USBx_OUTEP(ep->num)->DOEPCTL = USB_OTG_DOEPCTL_EPDIS;
 1102              		.loc 1 634 0
 1103 002a 0B78     		ldrb	r3, [r1]	@ zero_extendqisi2
 1104 002c 00EB4313 		add	r3, r0, r3, lsl #5
 1105 0030 4FF08042 		mov	r2, #1073741824
ARM GAS  /var/folders/7p/1_dhylqx7nl5s8914_0f_4w00000gn/T//ccJwiRQE.s 			page 32


 1106 0034 C3F8002B 		str	r2, [r3, #2816]
 593:Drivers/STM32F4xx_HAL_Driver/Src/stm32f4xx_ll_usb.c ****   
 1107              		.loc 1 593 0
 1108 0038 0022     		movs	r2, #0
 1109              	.LVL83:
 1110              	.L93:
 635:Drivers/STM32F4xx_HAL_Driver/Src/stm32f4xx_ll_usb.c ****     
 636:Drivers/STM32F4xx_HAL_Driver/Src/stm32f4xx_ll_usb.c ****     do
 637:Drivers/STM32F4xx_HAL_Driver/Src/stm32f4xx_ll_usb.c ****     {
 638:Drivers/STM32F4xx_HAL_Driver/Src/stm32f4xx_ll_usb.c ****       if (++count > 200000U)
 1111              		.loc 1 638 0
 1112 003a 0132     		adds	r2, r2, #1
 1113              	.LVL84:
 1114 003c 2B4B     		ldr	r3, .L98
 1115 003e 9A42     		cmp	r2, r3
 1116 0040 52D8     		bhi	.L95
 639:Drivers/STM32F4xx_HAL_Driver/Src/stm32f4xx_ll_usb.c ****       {
 640:Drivers/STM32F4xx_HAL_Driver/Src/stm32f4xx_ll_usb.c ****         return HAL_TIMEOUT;
 641:Drivers/STM32F4xx_HAL_Driver/Src/stm32f4xx_ll_usb.c ****       }
 642:Drivers/STM32F4xx_HAL_Driver/Src/stm32f4xx_ll_usb.c ****     }
 643:Drivers/STM32F4xx_HAL_Driver/Src/stm32f4xx_ll_usb.c ****     
 644:Drivers/STM32F4xx_HAL_Driver/Src/stm32f4xx_ll_usb.c ****     /*Wait for  EPDISD endpoint disabled interrupt*/ 
 645:Drivers/STM32F4xx_HAL_Driver/Src/stm32f4xx_ll_usb.c ****     while ((USBx_OUTEP(ep->num)->DOEPINT & USB_OTG_DOEPINT_OTEPDIS) == USB_OTG_DOEPINT_OTEPDIS);
 1117              		.loc 1 645 0
 1118 0042 0B78     		ldrb	r3, [r1]	@ zero_extendqisi2
 1119 0044 04EB4313 		add	r3, r4, r3, lsl #5
 1120 0048 03F53063 		add	r3, r3, #2816
 1121 004c 9B68     		ldr	r3, [r3, #8]
 1122 004e 13F0100F 		tst	r3, #16
 1123 0052 F2D1     		bne	.L93
 646:Drivers/STM32F4xx_HAL_Driver/Src/stm32f4xx_ll_usb.c ****     
 647:Drivers/STM32F4xx_HAL_Driver/Src/stm32f4xx_ll_usb.c ****     /* Set the "Clear the Global OUT NAK bit" to disable global OUT NAK mode */
 648:Drivers/STM32F4xx_HAL_Driver/Src/stm32f4xx_ll_usb.c ****     USBx_DEVICE->DCTL |= USB_OTG_DCTL_CGONAK;
 1124              		.loc 1 648 0
 1125 0054 D0F80438 		ldr	r3, [r0, #2052]
 1126 0058 43F48063 		orr	r3, r3, #1024
 1127 005c C0F80438 		str	r3, [r0, #2052]
 649:Drivers/STM32F4xx_HAL_Driver/Src/stm32f4xx_ll_usb.c ****     
 650:Drivers/STM32F4xx_HAL_Driver/Src/stm32f4xx_ll_usb.c ****     /* Disable endpoint interrupts */
 651:Drivers/STM32F4xx_HAL_Driver/Src/stm32f4xx_ll_usb.c ****     USBx_DEVICE->DAINTMSK &= ~(USB_OTG_DAINTMSK_OEPM & ((1U << (ep->num)) << 16U));         
 1128              		.loc 1 651 0
 1129 0060 D0F81C38 		ldr	r3, [r0, #2076]
 1130 0064 0978     		ldrb	r1, [r1]	@ zero_extendqisi2
 1131              	.LVL85:
 1132 0066 0122     		movs	r2, #1
 1133              	.LVL86:
 1134 0068 8A40     		lsls	r2, r2, r1
 1135 006a 23EA0243 		bic	r3, r3, r2, lsl #16
 1136 006e C0F81C38 		str	r3, [r0, #2076]
 652:Drivers/STM32F4xx_HAL_Driver/Src/stm32f4xx_ll_usb.c ****   }
 653:Drivers/STM32F4xx_HAL_Driver/Src/stm32f4xx_ll_usb.c ****   return HAL_OK;
 1137              		.loc 1 653 0
 1138 0072 0020     		movs	r0, #0
 1139              	.LVL87:
 1140 0074 38BD     		pop	{r3, r4, r5, pc}
 1141              	.LVL88:
 1142              	.L97:
ARM GAS  /var/folders/7p/1_dhylqx7nl5s8914_0f_4w00000gn/T//ccJwiRQE.s 			page 33


 598:Drivers/STM32F4xx_HAL_Driver/Src/stm32f4xx_ll_usb.c ****     
 1143              		.loc 1 598 0
 1144 0076 0B78     		ldrb	r3, [r1]	@ zero_extendqisi2
 1145 0078 0446     		mov	r4, r0
 1146 007a 00EB4313 		add	r3, r0, r3, lsl #5
 1147 007e D3F80029 		ldr	r2, [r3, #2304]
 1148 0082 22F40042 		bic	r2, r2, #32768
 1149 0086 C3F80029 		str	r2, [r3, #2304]
 601:Drivers/STM32F4xx_HAL_Driver/Src/stm32f4xx_ll_usb.c ****     
 1150              		.loc 1 601 0
 1151 008a 0B78     		ldrb	r3, [r1]	@ zero_extendqisi2
 1152 008c 00EB4313 		add	r3, r0, r3, lsl #5
 1153 0090 4FF00062 		mov	r2, #134217728
 1154 0094 C3F80029 		str	r2, [r3, #2304]
 604:Drivers/STM32F4xx_HAL_Driver/Src/stm32f4xx_ll_usb.c ****     
 1155              		.loc 1 604 0
 1156 0098 0B78     		ldrb	r3, [r1]	@ zero_extendqisi2
 1157 009a 00EB4313 		add	r3, r0, r3, lsl #5
 1158 009e 4FF08042 		mov	r2, #1073741824
 1159 00a2 C3F80029 		str	r2, [r3, #2304]
 593:Drivers/STM32F4xx_HAL_Driver/Src/stm32f4xx_ll_usb.c ****   
 1160              		.loc 1 593 0
 1161 00a6 0022     		movs	r2, #0
 1162              	.LVL89:
 1163              	.L92:
 608:Drivers/STM32F4xx_HAL_Driver/Src/stm32f4xx_ll_usb.c ****       {
 1164              		.loc 1 608 0
 1165 00a8 0132     		adds	r2, r2, #1
 1166              	.LVL90:
 1167 00aa 104B     		ldr	r3, .L98
 1168 00ac 9A42     		cmp	r2, r3
 1169 00ae 19D8     		bhi	.L94
 615:Drivers/STM32F4xx_HAL_Driver/Src/stm32f4xx_ll_usb.c ****     
 1170              		.loc 1 615 0
 1171 00b0 0B78     		ldrb	r3, [r1]	@ zero_extendqisi2
 1172 00b2 04EB4313 		add	r3, r4, r3, lsl #5
 1173 00b6 03F51063 		add	r3, r3, #2304
 1174 00ba 9B68     		ldr	r3, [r3, #8]
 1175 00bc 13F0804F 		tst	r3, #1073741824
 1176 00c0 F2D1     		bne	.L92
 1177 00c2 0D46     		mov	r5, r1
 1178 00c4 0446     		mov	r4, r0
 619:Drivers/STM32F4xx_HAL_Driver/Src/stm32f4xx_ll_usb.c ****     
 1179              		.loc 1 619 0
 1180 00c6 1021     		movs	r1, #16
 1181              	.LVL91:
 1182 00c8 FFF7FEFF 		bl	USB_FlushTxFifo
 1183              	.LVL92:
 622:Drivers/STM32F4xx_HAL_Driver/Src/stm32f4xx_ll_usb.c ****   
 1184              		.loc 1 622 0
 1185 00cc D4F81C28 		ldr	r2, [r4, #2076]
 1186 00d0 2978     		ldrb	r1, [r5]	@ zero_extendqisi2
 1187 00d2 0123     		movs	r3, #1
 1188 00d4 8B40     		lsls	r3, r3, r1
 1189 00d6 9BB2     		uxth	r3, r3
 1190 00d8 22EA0303 		bic	r3, r2, r3
 1191 00dc C4F81C38 		str	r3, [r4, #2076]
ARM GAS  /var/folders/7p/1_dhylqx7nl5s8914_0f_4w00000gn/T//ccJwiRQE.s 			page 34


 1192              		.loc 1 653 0
 1193 00e0 0020     		movs	r0, #0
 1194 00e2 38BD     		pop	{r3, r4, r5, pc}
 1195              	.LVL93:
 1196              	.L94:
 610:Drivers/STM32F4xx_HAL_Driver/Src/stm32f4xx_ll_usb.c ****       }
 1197              		.loc 1 610 0
 1198 00e4 0320     		movs	r0, #3
 1199              	.LVL94:
 1200 00e6 38BD     		pop	{r3, r4, r5, pc}
 1201              	.LVL95:
 1202              	.L95:
 640:Drivers/STM32F4xx_HAL_Driver/Src/stm32f4xx_ll_usb.c ****       }
 1203              		.loc 1 640 0
 1204 00e8 0320     		movs	r0, #3
 1205              	.LVL96:
 654:Drivers/STM32F4xx_HAL_Driver/Src/stm32f4xx_ll_usb.c **** 
 655:Drivers/STM32F4xx_HAL_Driver/Src/stm32f4xx_ll_usb.c **** }
 1206              		.loc 1 655 0
 1207 00ea 38BD     		pop	{r3, r4, r5, pc}
 1208              	.LVL97:
 1209              	.L99:
 1210              		.align	2
 1211              	.L98:
 1212 00ec 400D0300 		.word	200000
 1213              		.cfi_endproc
 1214              	.LFE136:
 1216              		.section	.text.USB_EPStartXfer,"ax",%progbits
 1217              		.align	1
 1218              		.global	USB_EPStartXfer
 1219              		.syntax unified
 1220              		.thumb
 1221              		.thumb_func
 1222              		.fpu fpv4-sp-d16
 1224              	USB_EPStartXfer:
 1225              	.LFB137:
 656:Drivers/STM32F4xx_HAL_Driver/Src/stm32f4xx_ll_usb.c **** 
 657:Drivers/STM32F4xx_HAL_Driver/Src/stm32f4xx_ll_usb.c **** /**
 658:Drivers/STM32F4xx_HAL_Driver/Src/stm32f4xx_ll_usb.c ****   * @brief  USB_EPStartXfer : setup and starts a transfer over an EP
 659:Drivers/STM32F4xx_HAL_Driver/Src/stm32f4xx_ll_usb.c ****   * @param  USBx : Selected device
 660:Drivers/STM32F4xx_HAL_Driver/Src/stm32f4xx_ll_usb.c ****   * @param  ep: pointer to endpoint structure
 661:Drivers/STM32F4xx_HAL_Driver/Src/stm32f4xx_ll_usb.c ****   * @param  dma: USB dma enabled or disabled 
 662:Drivers/STM32F4xx_HAL_Driver/Src/stm32f4xx_ll_usb.c ****   *          This parameter can be one of these values:
 663:Drivers/STM32F4xx_HAL_Driver/Src/stm32f4xx_ll_usb.c ****   *           0 : DMA feature not used 
 664:Drivers/STM32F4xx_HAL_Driver/Src/stm32f4xx_ll_usb.c ****   *           1 : DMA feature used  
 665:Drivers/STM32F4xx_HAL_Driver/Src/stm32f4xx_ll_usb.c ****   * @retval HAL status
 666:Drivers/STM32F4xx_HAL_Driver/Src/stm32f4xx_ll_usb.c ****   */
 667:Drivers/STM32F4xx_HAL_Driver/Src/stm32f4xx_ll_usb.c **** HAL_StatusTypeDef USB_EPStartXfer(USB_OTG_GlobalTypeDef *USBx , USB_OTG_EPTypeDef *ep, uint8_t dma)
 668:Drivers/STM32F4xx_HAL_Driver/Src/stm32f4xx_ll_usb.c **** {
 1226              		.loc 1 668 0
 1227              		.cfi_startproc
 1228              		@ args = 0, pretend = 0, frame = 0
 1229              		@ frame_needed = 0, uses_anonymous_args = 0
 1230              	.LVL98:
 1231 0000 70B5     		push	{r4, r5, r6, lr}
 1232              	.LCFI19:
 1233              		.cfi_def_cfa_offset 16
ARM GAS  /var/folders/7p/1_dhylqx7nl5s8914_0f_4w00000gn/T//ccJwiRQE.s 			page 35


 1234              		.cfi_offset 4, -16
 1235              		.cfi_offset 5, -12
 1236              		.cfi_offset 6, -8
 1237              		.cfi_offset 14, -4
 1238 0002 82B0     		sub	sp, sp, #8
 1239              	.LCFI20:
 1240              		.cfi_def_cfa_offset 24
 1241              	.LVL99:
 669:Drivers/STM32F4xx_HAL_Driver/Src/stm32f4xx_ll_usb.c ****   uint16_t pktcnt = 0U;
 670:Drivers/STM32F4xx_HAL_Driver/Src/stm32f4xx_ll_usb.c ****   
 671:Drivers/STM32F4xx_HAL_Driver/Src/stm32f4xx_ll_usb.c ****   /* IN endpoint */
 672:Drivers/STM32F4xx_HAL_Driver/Src/stm32f4xx_ll_usb.c ****   if (ep->is_in == 1U)
 1242              		.loc 1 672 0
 1243 0004 4B78     		ldrb	r3, [r1, #1]	@ zero_extendqisi2
 1244 0006 012B     		cmp	r3, #1
 1245 0008 3ED0     		beq	.L115
 673:Drivers/STM32F4xx_HAL_Driver/Src/stm32f4xx_ll_usb.c ****   {
 674:Drivers/STM32F4xx_HAL_Driver/Src/stm32f4xx_ll_usb.c ****     /* Zero Length Packet? */
 675:Drivers/STM32F4xx_HAL_Driver/Src/stm32f4xx_ll_usb.c ****     if (ep->xfer_len == 0U)
 676:Drivers/STM32F4xx_HAL_Driver/Src/stm32f4xx_ll_usb.c ****     {
 677:Drivers/STM32F4xx_HAL_Driver/Src/stm32f4xx_ll_usb.c ****       USBx_INEP(ep->num)->DIEPTSIZ &= ~(USB_OTG_DIEPTSIZ_PKTCNT); 
 678:Drivers/STM32F4xx_HAL_Driver/Src/stm32f4xx_ll_usb.c ****       USBx_INEP(ep->num)->DIEPTSIZ |= (USB_OTG_DIEPTSIZ_PKTCNT & (1U << 19U)) ;
 679:Drivers/STM32F4xx_HAL_Driver/Src/stm32f4xx_ll_usb.c ****       USBx_INEP(ep->num)->DIEPTSIZ &= ~(USB_OTG_DIEPTSIZ_XFRSIZ); 
 680:Drivers/STM32F4xx_HAL_Driver/Src/stm32f4xx_ll_usb.c ****     }
 681:Drivers/STM32F4xx_HAL_Driver/Src/stm32f4xx_ll_usb.c ****     else
 682:Drivers/STM32F4xx_HAL_Driver/Src/stm32f4xx_ll_usb.c ****     {
 683:Drivers/STM32F4xx_HAL_Driver/Src/stm32f4xx_ll_usb.c ****       /* Program the transfer size and packet count
 684:Drivers/STM32F4xx_HAL_Driver/Src/stm32f4xx_ll_usb.c ****       * as follows: xfersize = N * maxpacket +
 685:Drivers/STM32F4xx_HAL_Driver/Src/stm32f4xx_ll_usb.c ****       * short_packet pktcnt = N + (short_packet
 686:Drivers/STM32F4xx_HAL_Driver/Src/stm32f4xx_ll_usb.c ****       * exist ? 1 : 0)
 687:Drivers/STM32F4xx_HAL_Driver/Src/stm32f4xx_ll_usb.c ****       */
 688:Drivers/STM32F4xx_HAL_Driver/Src/stm32f4xx_ll_usb.c ****       USBx_INEP(ep->num)->DIEPTSIZ &= ~(USB_OTG_DIEPTSIZ_XFRSIZ);
 689:Drivers/STM32F4xx_HAL_Driver/Src/stm32f4xx_ll_usb.c ****       USBx_INEP(ep->num)->DIEPTSIZ &= ~(USB_OTG_DIEPTSIZ_PKTCNT); 
 690:Drivers/STM32F4xx_HAL_Driver/Src/stm32f4xx_ll_usb.c ****       USBx_INEP(ep->num)->DIEPTSIZ |= (USB_OTG_DIEPTSIZ_PKTCNT & (((ep->xfer_len + ep->maxpacket -1
 691:Drivers/STM32F4xx_HAL_Driver/Src/stm32f4xx_ll_usb.c ****       USBx_INEP(ep->num)->DIEPTSIZ |= (USB_OTG_DIEPTSIZ_XFRSIZ & ep->xfer_len); 
 692:Drivers/STM32F4xx_HAL_Driver/Src/stm32f4xx_ll_usb.c ****       
 693:Drivers/STM32F4xx_HAL_Driver/Src/stm32f4xx_ll_usb.c ****       if (ep->type == EP_TYPE_ISOC)
 694:Drivers/STM32F4xx_HAL_Driver/Src/stm32f4xx_ll_usb.c ****       {
 695:Drivers/STM32F4xx_HAL_Driver/Src/stm32f4xx_ll_usb.c ****         USBx_INEP(ep->num)->DIEPTSIZ &= ~(USB_OTG_DIEPTSIZ_MULCNT); 
 696:Drivers/STM32F4xx_HAL_Driver/Src/stm32f4xx_ll_usb.c ****         USBx_INEP(ep->num)->DIEPTSIZ |= (USB_OTG_DIEPTSIZ_MULCNT & (1U << 29U)); 
 697:Drivers/STM32F4xx_HAL_Driver/Src/stm32f4xx_ll_usb.c ****       }       
 698:Drivers/STM32F4xx_HAL_Driver/Src/stm32f4xx_ll_usb.c ****     }
 699:Drivers/STM32F4xx_HAL_Driver/Src/stm32f4xx_ll_usb.c **** 
 700:Drivers/STM32F4xx_HAL_Driver/Src/stm32f4xx_ll_usb.c ****     if (dma == 1U)
 701:Drivers/STM32F4xx_HAL_Driver/Src/stm32f4xx_ll_usb.c ****     {
 702:Drivers/STM32F4xx_HAL_Driver/Src/stm32f4xx_ll_usb.c ****       USBx_INEP(ep->num)->DIEPDMA = (uint32_t)(ep->dma_addr);
 703:Drivers/STM32F4xx_HAL_Driver/Src/stm32f4xx_ll_usb.c ****     }
 704:Drivers/STM32F4xx_HAL_Driver/Src/stm32f4xx_ll_usb.c ****     else
 705:Drivers/STM32F4xx_HAL_Driver/Src/stm32f4xx_ll_usb.c ****     {
 706:Drivers/STM32F4xx_HAL_Driver/Src/stm32f4xx_ll_usb.c ****       if (ep->type != EP_TYPE_ISOC)
 707:Drivers/STM32F4xx_HAL_Driver/Src/stm32f4xx_ll_usb.c ****       {
 708:Drivers/STM32F4xx_HAL_Driver/Src/stm32f4xx_ll_usb.c ****         /* Enable the Tx FIFO Empty Interrupt for this EP */
 709:Drivers/STM32F4xx_HAL_Driver/Src/stm32f4xx_ll_usb.c ****         if (ep->xfer_len > 0U)
 710:Drivers/STM32F4xx_HAL_Driver/Src/stm32f4xx_ll_usb.c ****         {
 711:Drivers/STM32F4xx_HAL_Driver/Src/stm32f4xx_ll_usb.c ****           USBx_DEVICE->DIEPEMPMSK |= 1U << ep->num;
 712:Drivers/STM32F4xx_HAL_Driver/Src/stm32f4xx_ll_usb.c ****         }
 713:Drivers/STM32F4xx_HAL_Driver/Src/stm32f4xx_ll_usb.c ****       }
ARM GAS  /var/folders/7p/1_dhylqx7nl5s8914_0f_4w00000gn/T//ccJwiRQE.s 			page 36


 714:Drivers/STM32F4xx_HAL_Driver/Src/stm32f4xx_ll_usb.c ****     }
 715:Drivers/STM32F4xx_HAL_Driver/Src/stm32f4xx_ll_usb.c **** 
 716:Drivers/STM32F4xx_HAL_Driver/Src/stm32f4xx_ll_usb.c ****     if (ep->type == EP_TYPE_ISOC)
 717:Drivers/STM32F4xx_HAL_Driver/Src/stm32f4xx_ll_usb.c ****     {
 718:Drivers/STM32F4xx_HAL_Driver/Src/stm32f4xx_ll_usb.c ****       if ((USBx_DEVICE->DSTS & ( 1U << 8U )) == 0U)
 719:Drivers/STM32F4xx_HAL_Driver/Src/stm32f4xx_ll_usb.c ****       {
 720:Drivers/STM32F4xx_HAL_Driver/Src/stm32f4xx_ll_usb.c ****         USBx_INEP(ep->num)->DIEPCTL |= USB_OTG_DIEPCTL_SODDFRM;
 721:Drivers/STM32F4xx_HAL_Driver/Src/stm32f4xx_ll_usb.c ****       }
 722:Drivers/STM32F4xx_HAL_Driver/Src/stm32f4xx_ll_usb.c ****       else
 723:Drivers/STM32F4xx_HAL_Driver/Src/stm32f4xx_ll_usb.c ****       {
 724:Drivers/STM32F4xx_HAL_Driver/Src/stm32f4xx_ll_usb.c ****         USBx_INEP(ep->num)->DIEPCTL |= USB_OTG_DIEPCTL_SD0PID_SEVNFRM;
 725:Drivers/STM32F4xx_HAL_Driver/Src/stm32f4xx_ll_usb.c ****       }
 726:Drivers/STM32F4xx_HAL_Driver/Src/stm32f4xx_ll_usb.c ****     } 
 727:Drivers/STM32F4xx_HAL_Driver/Src/stm32f4xx_ll_usb.c ****     
 728:Drivers/STM32F4xx_HAL_Driver/Src/stm32f4xx_ll_usb.c ****     /* EP enable, IN data in FIFO */
 729:Drivers/STM32F4xx_HAL_Driver/Src/stm32f4xx_ll_usb.c ****     USBx_INEP(ep->num)->DIEPCTL |= (USB_OTG_DIEPCTL_CNAK | USB_OTG_DIEPCTL_EPENA);
 730:Drivers/STM32F4xx_HAL_Driver/Src/stm32f4xx_ll_usb.c ****     
 731:Drivers/STM32F4xx_HAL_Driver/Src/stm32f4xx_ll_usb.c ****     if (ep->type == EP_TYPE_ISOC)
 732:Drivers/STM32F4xx_HAL_Driver/Src/stm32f4xx_ll_usb.c ****     {
 733:Drivers/STM32F4xx_HAL_Driver/Src/stm32f4xx_ll_usb.c ****       USB_WritePacket(USBx, ep->xfer_buff, ep->num, ep->xfer_len, dma);   
 734:Drivers/STM32F4xx_HAL_Driver/Src/stm32f4xx_ll_usb.c ****     }    
 735:Drivers/STM32F4xx_HAL_Driver/Src/stm32f4xx_ll_usb.c ****   }
 736:Drivers/STM32F4xx_HAL_Driver/Src/stm32f4xx_ll_usb.c ****   else /* OUT endpoint */
 737:Drivers/STM32F4xx_HAL_Driver/Src/stm32f4xx_ll_usb.c ****   {
 738:Drivers/STM32F4xx_HAL_Driver/Src/stm32f4xx_ll_usb.c ****     /* Program the transfer size and packet count as follows:
 739:Drivers/STM32F4xx_HAL_Driver/Src/stm32f4xx_ll_usb.c ****     * pktcnt = N
 740:Drivers/STM32F4xx_HAL_Driver/Src/stm32f4xx_ll_usb.c ****     * xfersize = N * maxpacket
 741:Drivers/STM32F4xx_HAL_Driver/Src/stm32f4xx_ll_usb.c ****     */  
 742:Drivers/STM32F4xx_HAL_Driver/Src/stm32f4xx_ll_usb.c ****     USBx_OUTEP(ep->num)->DOEPTSIZ &= ~(USB_OTG_DOEPTSIZ_XFRSIZ); 
 1246              		.loc 1 742 0
 1247 000a 0B78     		ldrb	r3, [r1]	@ zero_extendqisi2
 1248 000c 00EB4313 		add	r3, r0, r3, lsl #5
 1249 0010 D3F8104B 		ldr	r4, [r3, #2832]
 1250 0014 E40C     		lsrs	r4, r4, #19
 1251 0016 E404     		lsls	r4, r4, #19
 1252 0018 C3F8104B 		str	r4, [r3, #2832]
 743:Drivers/STM32F4xx_HAL_Driver/Src/stm32f4xx_ll_usb.c ****     USBx_OUTEP(ep->num)->DOEPTSIZ &= ~(USB_OTG_DOEPTSIZ_PKTCNT); 
 1253              		.loc 1 743 0
 1254 001c 0B78     		ldrb	r3, [r1]	@ zero_extendqisi2
 1255 001e 00EB4313 		add	r3, r0, r3, lsl #5
 1256 0022 D3F8104B 		ldr	r4, [r3, #2832]
 1257 0026 24F0FF54 		bic	r4, r4, #534773760
 1258 002a 24F4C014 		bic	r4, r4, #1572864
 1259 002e C3F8104B 		str	r4, [r3, #2832]
 744:Drivers/STM32F4xx_HAL_Driver/Src/stm32f4xx_ll_usb.c **** 
 745:Drivers/STM32F4xx_HAL_Driver/Src/stm32f4xx_ll_usb.c ****     if (ep->xfer_len == 0U)
 1260              		.loc 1 745 0
 1261 0032 4B69     		ldr	r3, [r1, #20]
 1262 0034 002B     		cmp	r3, #0
 1263 0036 40F0D480 		bne	.L109
 746:Drivers/STM32F4xx_HAL_Driver/Src/stm32f4xx_ll_usb.c ****     {
 747:Drivers/STM32F4xx_HAL_Driver/Src/stm32f4xx_ll_usb.c ****       USBx_OUTEP(ep->num)->DOEPTSIZ |= (USB_OTG_DOEPTSIZ_XFRSIZ & ep->maxpacket);
 1264              		.loc 1 747 0
 1265 003a 0B78     		ldrb	r3, [r1]	@ zero_extendqisi2
 1266 003c 00EB4313 		add	r3, r0, r3, lsl #5
 1267 0040 D3F8104B 		ldr	r4, [r3, #2832]
 1268 0044 8D68     		ldr	r5, [r1, #8]
ARM GAS  /var/folders/7p/1_dhylqx7nl5s8914_0f_4w00000gn/T//ccJwiRQE.s 			page 37


 1269 0046 C5F31205 		ubfx	r5, r5, #0, #19
 1270 004a 2C43     		orrs	r4, r4, r5
 1271 004c C3F8104B 		str	r4, [r3, #2832]
 748:Drivers/STM32F4xx_HAL_Driver/Src/stm32f4xx_ll_usb.c ****       USBx_OUTEP(ep->num)->DOEPTSIZ |= (USB_OTG_DOEPTSIZ_PKTCNT & (1U << 19U));
 1272              		.loc 1 748 0
 1273 0050 0B78     		ldrb	r3, [r1]	@ zero_extendqisi2
 1274 0052 00EB4313 		add	r3, r0, r3, lsl #5
 1275 0056 D3F8104B 		ldr	r4, [r3, #2832]
 1276 005a 44F40024 		orr	r4, r4, #524288
 1277 005e C3F8104B 		str	r4, [r3, #2832]
 1278              	.LVL100:
 1279              	.L110:
 749:Drivers/STM32F4xx_HAL_Driver/Src/stm32f4xx_ll_usb.c ****     }
 750:Drivers/STM32F4xx_HAL_Driver/Src/stm32f4xx_ll_usb.c ****     else
 751:Drivers/STM32F4xx_HAL_Driver/Src/stm32f4xx_ll_usb.c ****     {
 752:Drivers/STM32F4xx_HAL_Driver/Src/stm32f4xx_ll_usb.c ****       pktcnt = (ep->xfer_len + ep->maxpacket -1U)/ ep->maxpacket; 
 753:Drivers/STM32F4xx_HAL_Driver/Src/stm32f4xx_ll_usb.c ****       USBx_OUTEP(ep->num)->DOEPTSIZ |= (USB_OTG_DOEPTSIZ_PKTCNT & (pktcnt << 19U));
 754:Drivers/STM32F4xx_HAL_Driver/Src/stm32f4xx_ll_usb.c ****       USBx_OUTEP(ep->num)->DOEPTSIZ |= (USB_OTG_DOEPTSIZ_XFRSIZ & (ep->maxpacket * pktcnt));
 755:Drivers/STM32F4xx_HAL_Driver/Src/stm32f4xx_ll_usb.c ****     }
 756:Drivers/STM32F4xx_HAL_Driver/Src/stm32f4xx_ll_usb.c **** 
 757:Drivers/STM32F4xx_HAL_Driver/Src/stm32f4xx_ll_usb.c ****     if (dma == 1U)
 1280              		.loc 1 757 0
 1281 0062 012A     		cmp	r2, #1
 1282 0064 00F0DC80 		beq	.L116
 1283              	.LVL101:
 1284              	.L111:
 758:Drivers/STM32F4xx_HAL_Driver/Src/stm32f4xx_ll_usb.c ****     {
 759:Drivers/STM32F4xx_HAL_Driver/Src/stm32f4xx_ll_usb.c ****       USBx_OUTEP(ep->num)->DOEPDMA = (uint32_t)ep->xfer_buff;
 760:Drivers/STM32F4xx_HAL_Driver/Src/stm32f4xx_ll_usb.c ****     }
 761:Drivers/STM32F4xx_HAL_Driver/Src/stm32f4xx_ll_usb.c ****     
 762:Drivers/STM32F4xx_HAL_Driver/Src/stm32f4xx_ll_usb.c ****     if (ep->type == EP_TYPE_ISOC)
 1285              		.loc 1 762 0
 1286 0068 CB78     		ldrb	r3, [r1, #3]	@ zero_extendqisi2
 1287 006a 012B     		cmp	r3, #1
 1288 006c 00F0DF80 		beq	.L117
 1289              	.L112:
 763:Drivers/STM32F4xx_HAL_Driver/Src/stm32f4xx_ll_usb.c ****     {
 764:Drivers/STM32F4xx_HAL_Driver/Src/stm32f4xx_ll_usb.c ****       if ((USBx_DEVICE->DSTS & ( 1U << 8U )) == 0U)
 765:Drivers/STM32F4xx_HAL_Driver/Src/stm32f4xx_ll_usb.c ****       {
 766:Drivers/STM32F4xx_HAL_Driver/Src/stm32f4xx_ll_usb.c ****         USBx_OUTEP(ep->num)->DOEPCTL |= USB_OTG_DOEPCTL_SODDFRM;
 767:Drivers/STM32F4xx_HAL_Driver/Src/stm32f4xx_ll_usb.c ****       }
 768:Drivers/STM32F4xx_HAL_Driver/Src/stm32f4xx_ll_usb.c ****       else
 769:Drivers/STM32F4xx_HAL_Driver/Src/stm32f4xx_ll_usb.c ****       {
 770:Drivers/STM32F4xx_HAL_Driver/Src/stm32f4xx_ll_usb.c ****         USBx_OUTEP(ep->num)->DOEPCTL |= USB_OTG_DOEPCTL_SD0PID_SEVNFRM;
 771:Drivers/STM32F4xx_HAL_Driver/Src/stm32f4xx_ll_usb.c ****       }
 772:Drivers/STM32F4xx_HAL_Driver/Src/stm32f4xx_ll_usb.c ****     }
 773:Drivers/STM32F4xx_HAL_Driver/Src/stm32f4xx_ll_usb.c ****     /* EP enable */
 774:Drivers/STM32F4xx_HAL_Driver/Src/stm32f4xx_ll_usb.c ****     USBx_OUTEP(ep->num)->DOEPCTL |= (USB_OTG_DOEPCTL_CNAK | USB_OTG_DOEPCTL_EPENA);
 1290              		.loc 1 774 0
 1291 0070 0B78     		ldrb	r3, [r1]	@ zero_extendqisi2
 1292 0072 00EB4310 		add	r0, r0, r3, lsl #5
 1293              	.LVL102:
 1294 0076 D0F8003B 		ldr	r3, [r0, #2816]
 1295 007a 43F00443 		orr	r3, r3, #-2080374784
 1296 007e C0F8003B 		str	r3, [r0, #2816]
 1297              	.LVL103:
 1298              	.L108:
ARM GAS  /var/folders/7p/1_dhylqx7nl5s8914_0f_4w00000gn/T//ccJwiRQE.s 			page 38


 775:Drivers/STM32F4xx_HAL_Driver/Src/stm32f4xx_ll_usb.c ****   }
 776:Drivers/STM32F4xx_HAL_Driver/Src/stm32f4xx_ll_usb.c ****   return HAL_OK;
 777:Drivers/STM32F4xx_HAL_Driver/Src/stm32f4xx_ll_usb.c **** }
 1299              		.loc 1 777 0
 1300 0082 0020     		movs	r0, #0
 1301 0084 02B0     		add	sp, sp, #8
 1302              	.LCFI21:
 1303              		.cfi_remember_state
 1304              		.cfi_def_cfa_offset 16
 1305              		@ sp needed
 1306 0086 70BD     		pop	{r4, r5, r6, pc}
 1307              	.LVL104:
 1308              	.L115:
 1309              	.LCFI22:
 1310              		.cfi_restore_state
 675:Drivers/STM32F4xx_HAL_Driver/Src/stm32f4xx_ll_usb.c ****     {
 1311              		.loc 1 675 0
 1312 0088 4B69     		ldr	r3, [r1, #20]
 1313 008a 6BBB     		cbnz	r3, .L102
 677:Drivers/STM32F4xx_HAL_Driver/Src/stm32f4xx_ll_usb.c ****       USBx_INEP(ep->num)->DIEPTSIZ |= (USB_OTG_DIEPTSIZ_PKTCNT & (1U << 19U)) ;
 1314              		.loc 1 677 0
 1315 008c 0B78     		ldrb	r3, [r1]	@ zero_extendqisi2
 1316 008e 00EB4313 		add	r3, r0, r3, lsl #5
 1317 0092 D3F81049 		ldr	r4, [r3, #2320]
 1318 0096 24F0FF54 		bic	r4, r4, #534773760
 1319 009a 24F4C014 		bic	r4, r4, #1572864
 1320 009e C3F81049 		str	r4, [r3, #2320]
 678:Drivers/STM32F4xx_HAL_Driver/Src/stm32f4xx_ll_usb.c ****       USBx_INEP(ep->num)->DIEPTSIZ &= ~(USB_OTG_DIEPTSIZ_XFRSIZ); 
 1321              		.loc 1 678 0
 1322 00a2 0B78     		ldrb	r3, [r1]	@ zero_extendqisi2
 1323 00a4 00EB4313 		add	r3, r0, r3, lsl #5
 1324 00a8 D3F81049 		ldr	r4, [r3, #2320]
 1325 00ac 44F40024 		orr	r4, r4, #524288
 1326 00b0 C3F81049 		str	r4, [r3, #2320]
 679:Drivers/STM32F4xx_HAL_Driver/Src/stm32f4xx_ll_usb.c ****     }
 1327              		.loc 1 679 0
 1328 00b4 0B78     		ldrb	r3, [r1]	@ zero_extendqisi2
 1329 00b6 00EB4313 		add	r3, r0, r3, lsl #5
 1330 00ba D3F81049 		ldr	r4, [r3, #2320]
 1331 00be E40C     		lsrs	r4, r4, #19
 1332 00c0 E404     		lsls	r4, r4, #19
 1333 00c2 C3F81049 		str	r4, [r3, #2320]
 1334              	.L103:
 700:Drivers/STM32F4xx_HAL_Driver/Src/stm32f4xx_ll_usb.c ****     {
 1335              		.loc 1 700 0
 1336 00c6 012A     		cmp	r2, #1
 1337 00c8 54D0     		beq	.L118
 706:Drivers/STM32F4xx_HAL_Driver/Src/stm32f4xx_ll_usb.c ****       {
 1338              		.loc 1 706 0
 1339 00ca CB78     		ldrb	r3, [r1, #3]	@ zero_extendqisi2
 1340 00cc 012B     		cmp	r3, #1
 1341 00ce 57D0     		beq	.L105
 709:Drivers/STM32F4xx_HAL_Driver/Src/stm32f4xx_ll_usb.c ****         {
 1342              		.loc 1 709 0
 1343 00d0 4B69     		ldr	r3, [r1, #20]
 1344 00d2 002B     		cmp	r3, #0
 1345 00d4 54D0     		beq	.L105
ARM GAS  /var/folders/7p/1_dhylqx7nl5s8914_0f_4w00000gn/T//ccJwiRQE.s 			page 39


 711:Drivers/STM32F4xx_HAL_Driver/Src/stm32f4xx_ll_usb.c ****         }
 1346              		.loc 1 711 0
 1347 00d6 D0F83438 		ldr	r3, [r0, #2100]
 1348 00da 0E78     		ldrb	r6, [r1]	@ zero_extendqisi2
 1349 00dc 0124     		movs	r4, #1
 1350 00de B440     		lsls	r4, r4, r6
 1351 00e0 2343     		orrs	r3, r3, r4
 1352 00e2 C0F83438 		str	r3, [r0, #2100]
 1353 00e6 4BE0     		b	.L105
 1354              	.L102:
 688:Drivers/STM32F4xx_HAL_Driver/Src/stm32f4xx_ll_usb.c ****       USBx_INEP(ep->num)->DIEPTSIZ &= ~(USB_OTG_DIEPTSIZ_PKTCNT); 
 1355              		.loc 1 688 0
 1356 00e8 0B78     		ldrb	r3, [r1]	@ zero_extendqisi2
 1357 00ea 00EB4313 		add	r3, r0, r3, lsl #5
 1358 00ee D3F81049 		ldr	r4, [r3, #2320]
 1359 00f2 E40C     		lsrs	r4, r4, #19
 1360 00f4 E404     		lsls	r4, r4, #19
 1361 00f6 C3F81049 		str	r4, [r3, #2320]
 689:Drivers/STM32F4xx_HAL_Driver/Src/stm32f4xx_ll_usb.c ****       USBx_INEP(ep->num)->DIEPTSIZ |= (USB_OTG_DIEPTSIZ_PKTCNT & (((ep->xfer_len + ep->maxpacket -1
 1362              		.loc 1 689 0
 1363 00fa 0B78     		ldrb	r3, [r1]	@ zero_extendqisi2
 1364 00fc 00EB4313 		add	r3, r0, r3, lsl #5
 1365 0100 D3F81049 		ldr	r4, [r3, #2320]
 1366 0104 24F0FF54 		bic	r4, r4, #534773760
 1367 0108 24F4C014 		bic	r4, r4, #1572864
 1368 010c C3F81049 		str	r4, [r3, #2320]
 690:Drivers/STM32F4xx_HAL_Driver/Src/stm32f4xx_ll_usb.c ****       USBx_INEP(ep->num)->DIEPTSIZ |= (USB_OTG_DIEPTSIZ_XFRSIZ & ep->xfer_len); 
 1369              		.loc 1 690 0
 1370 0110 0C78     		ldrb	r4, [r1]	@ zero_extendqisi2
 1371 0112 00EB4414 		add	r4, r0, r4, lsl #5
 1372 0116 D4F81059 		ldr	r5, [r4, #2320]
 1373 011a 4B69     		ldr	r3, [r1, #20]
 1374 011c 8E68     		ldr	r6, [r1, #8]
 1375 011e 3344     		add	r3, r3, r6
 1376 0120 013B     		subs	r3, r3, #1
 1377 0122 B3FBF6F3 		udiv	r3, r3, r6
 1378 0126 4E4E     		ldr	r6, .L120
 1379 0128 06EAC343 		and	r3, r6, r3, lsl #19
 1380 012c 2B43     		orrs	r3, r3, r5
 1381 012e C4F81039 		str	r3, [r4, #2320]
 691:Drivers/STM32F4xx_HAL_Driver/Src/stm32f4xx_ll_usb.c ****       
 1382              		.loc 1 691 0
 1383 0132 0B78     		ldrb	r3, [r1]	@ zero_extendqisi2
 1384 0134 00EB4313 		add	r3, r0, r3, lsl #5
 1385 0138 D3F81049 		ldr	r4, [r3, #2320]
 1386 013c 4D69     		ldr	r5, [r1, #20]
 1387 013e C5F31205 		ubfx	r5, r5, #0, #19
 1388 0142 2C43     		orrs	r4, r4, r5
 1389 0144 C3F81049 		str	r4, [r3, #2320]
 693:Drivers/STM32F4xx_HAL_Driver/Src/stm32f4xx_ll_usb.c ****       {
 1390              		.loc 1 693 0
 1391 0148 CB78     		ldrb	r3, [r1, #3]	@ zero_extendqisi2
 1392 014a 012B     		cmp	r3, #1
 1393 014c BBD1     		bne	.L103
 695:Drivers/STM32F4xx_HAL_Driver/Src/stm32f4xx_ll_usb.c ****         USBx_INEP(ep->num)->DIEPTSIZ |= (USB_OTG_DIEPTSIZ_MULCNT & (1U << 29U)); 
 1394              		.loc 1 695 0
 1395 014e 0B78     		ldrb	r3, [r1]	@ zero_extendqisi2
ARM GAS  /var/folders/7p/1_dhylqx7nl5s8914_0f_4w00000gn/T//ccJwiRQE.s 			page 40


 1396 0150 00EB4313 		add	r3, r0, r3, lsl #5
 1397 0154 D3F81049 		ldr	r4, [r3, #2320]
 1398 0158 24F0C044 		bic	r4, r4, #1610612736
 1399 015c C3F81049 		str	r4, [r3, #2320]
 696:Drivers/STM32F4xx_HAL_Driver/Src/stm32f4xx_ll_usb.c ****       }       
 1400              		.loc 1 696 0
 1401 0160 0B78     		ldrb	r3, [r1]	@ zero_extendqisi2
 1402 0162 00EB4313 		add	r3, r0, r3, lsl #5
 1403 0166 D3F81049 		ldr	r4, [r3, #2320]
 1404 016a 44F00054 		orr	r4, r4, #536870912
 1405 016e C3F81049 		str	r4, [r3, #2320]
 1406 0172 A8E7     		b	.L103
 1407              	.L118:
 702:Drivers/STM32F4xx_HAL_Driver/Src/stm32f4xx_ll_usb.c ****     }
 1408              		.loc 1 702 0
 1409 0174 0B78     		ldrb	r3, [r1]	@ zero_extendqisi2
 1410 0176 00EB4313 		add	r3, r0, r3, lsl #5
 1411 017a 0C69     		ldr	r4, [r1, #16]
 1412 017c C3F81449 		str	r4, [r3, #2324]
 1413              	.L105:
 716:Drivers/STM32F4xx_HAL_Driver/Src/stm32f4xx_ll_usb.c ****     {
 1414              		.loc 1 716 0
 1415 0180 CB78     		ldrb	r3, [r1, #3]	@ zero_extendqisi2
 1416 0182 012B     		cmp	r3, #1
 1417 0184 14D0     		beq	.L119
 1418              	.L106:
 729:Drivers/STM32F4xx_HAL_Driver/Src/stm32f4xx_ll_usb.c ****     
 1419              		.loc 1 729 0
 1420 0186 0B78     		ldrb	r3, [r1]	@ zero_extendqisi2
 1421 0188 00EB4313 		add	r3, r0, r3, lsl #5
 1422 018c D3F80049 		ldr	r4, [r3, #2304]
 1423 0190 44F00444 		orr	r4, r4, #-2080374784
 1424 0194 C3F80049 		str	r4, [r3, #2304]
 731:Drivers/STM32F4xx_HAL_Driver/Src/stm32f4xx_ll_usb.c ****     {
 1425              		.loc 1 731 0
 1426 0198 CB78     		ldrb	r3, [r1, #3]	@ zero_extendqisi2
 1427 019a 012B     		cmp	r3, #1
 1428 019c 7FF471AF 		bne	.L108
 1429 01a0 1446     		mov	r4, r2
 733:Drivers/STM32F4xx_HAL_Driver/Src/stm32f4xx_ll_usb.c ****     }    
 1430              		.loc 1 733 0
 1431 01a2 8B8A     		ldrh	r3, [r1, #20]
 1432 01a4 0A78     		ldrb	r2, [r1]	@ zero_extendqisi2
 1433              	.LVL105:
 1434 01a6 C968     		ldr	r1, [r1, #12]
 1435              	.LVL106:
 1436 01a8 0094     		str	r4, [sp]
 1437 01aa FFF7FEFF 		bl	USB_WritePacket
 1438              	.LVL107:
 1439 01ae 68E7     		b	.L108
 1440              	.LVL108:
 1441              	.L119:
 718:Drivers/STM32F4xx_HAL_Driver/Src/stm32f4xx_ll_usb.c ****       {
 1442              		.loc 1 718 0
 1443 01b0 D0F80838 		ldr	r3, [r0, #2056]
 1444 01b4 13F4807F 		tst	r3, #256
 1445 01b8 09D1     		bne	.L107
ARM GAS  /var/folders/7p/1_dhylqx7nl5s8914_0f_4w00000gn/T//ccJwiRQE.s 			page 41


 720:Drivers/STM32F4xx_HAL_Driver/Src/stm32f4xx_ll_usb.c ****       }
 1446              		.loc 1 720 0
 1447 01ba 0B78     		ldrb	r3, [r1]	@ zero_extendqisi2
 1448 01bc 00EB4313 		add	r3, r0, r3, lsl #5
 1449 01c0 D3F80049 		ldr	r4, [r3, #2304]
 1450 01c4 44F00054 		orr	r4, r4, #536870912
 1451 01c8 C3F80049 		str	r4, [r3, #2304]
 1452 01cc DBE7     		b	.L106
 1453              	.L107:
 724:Drivers/STM32F4xx_HAL_Driver/Src/stm32f4xx_ll_usb.c ****       }
 1454              		.loc 1 724 0
 1455 01ce 0B78     		ldrb	r3, [r1]	@ zero_extendqisi2
 1456 01d0 00EB4313 		add	r3, r0, r3, lsl #5
 1457 01d4 D3F80049 		ldr	r4, [r3, #2304]
 1458 01d8 44F08054 		orr	r4, r4, #268435456
 1459 01dc C3F80049 		str	r4, [r3, #2304]
 1460 01e0 D1E7     		b	.L106
 1461              	.L109:
 752:Drivers/STM32F4xx_HAL_Driver/Src/stm32f4xx_ll_usb.c ****       USBx_OUTEP(ep->num)->DOEPTSIZ |= (USB_OTG_DOEPTSIZ_PKTCNT & (pktcnt << 19U));
 1462              		.loc 1 752 0
 1463 01e2 8C68     		ldr	r4, [r1, #8]
 1464 01e4 2344     		add	r3, r3, r4
 1465 01e6 013B     		subs	r3, r3, #1
 1466 01e8 B3FBF4F3 		udiv	r3, r3, r4
 1467              	.LVL109:
 753:Drivers/STM32F4xx_HAL_Driver/Src/stm32f4xx_ll_usb.c ****       USBx_OUTEP(ep->num)->DOEPTSIZ |= (USB_OTG_DOEPTSIZ_XFRSIZ & (ep->maxpacket * pktcnt));
 1468              		.loc 1 753 0
 1469 01ec 0C78     		ldrb	r4, [r1]	@ zero_extendqisi2
 1470 01ee 00EB4414 		add	r4, r0, r4, lsl #5
 1471 01f2 D4F8105B 		ldr	r5, [r4, #2832]
 1472 01f6 1A4E     		ldr	r6, .L120
 1473 01f8 06EAC346 		and	r6, r6, r3, lsl #19
 1474 01fc 3543     		orrs	r5, r5, r6
 1475 01fe C4F8105B 		str	r5, [r4, #2832]
 754:Drivers/STM32F4xx_HAL_Driver/Src/stm32f4xx_ll_usb.c ****     }
 1476              		.loc 1 754 0
 1477 0202 0C78     		ldrb	r4, [r1]	@ zero_extendqisi2
 1478 0204 00EB4414 		add	r4, r0, r4, lsl #5
 1479 0208 D4F8106B 		ldr	r6, [r4, #2832]
 1480 020c 8D68     		ldr	r5, [r1, #8]
 1481 020e 9BB2     		uxth	r3, r3
 1482 0210 05FB03F5 		mul	r5, r5, r3
 1483 0214 C5F31205 		ubfx	r5, r5, #0, #19
 1484 0218 3543     		orrs	r5, r5, r6
 1485 021a C4F8105B 		str	r5, [r4, #2832]
 1486 021e 20E7     		b	.L110
 1487              	.LVL110:
 1488              	.L116:
 759:Drivers/STM32F4xx_HAL_Driver/Src/stm32f4xx_ll_usb.c ****     }
 1489              		.loc 1 759 0
 1490 0220 0B78     		ldrb	r3, [r1]	@ zero_extendqisi2
 1491 0222 00EB4313 		add	r3, r0, r3, lsl #5
 1492 0226 CA68     		ldr	r2, [r1, #12]
 1493              	.LVL111:
 1494 0228 C3F8142B 		str	r2, [r3, #2836]
 1495 022c 1CE7     		b	.L111
 1496              	.L117:
ARM GAS  /var/folders/7p/1_dhylqx7nl5s8914_0f_4w00000gn/T//ccJwiRQE.s 			page 42


 764:Drivers/STM32F4xx_HAL_Driver/Src/stm32f4xx_ll_usb.c ****       {
 1497              		.loc 1 764 0
 1498 022e D0F80838 		ldr	r3, [r0, #2056]
 1499 0232 13F4807F 		tst	r3, #256
 1500 0236 09D1     		bne	.L113
 766:Drivers/STM32F4xx_HAL_Driver/Src/stm32f4xx_ll_usb.c ****       }
 1501              		.loc 1 766 0
 1502 0238 0B78     		ldrb	r3, [r1]	@ zero_extendqisi2
 1503 023a 00EB4313 		add	r3, r0, r3, lsl #5
 1504 023e D3F8002B 		ldr	r2, [r3, #2816]
 1505 0242 42F00052 		orr	r2, r2, #536870912
 1506 0246 C3F8002B 		str	r2, [r3, #2816]
 1507 024a 11E7     		b	.L112
 1508              	.L113:
 770:Drivers/STM32F4xx_HAL_Driver/Src/stm32f4xx_ll_usb.c ****       }
 1509              		.loc 1 770 0
 1510 024c 0B78     		ldrb	r3, [r1]	@ zero_extendqisi2
 1511 024e 00EB4313 		add	r3, r0, r3, lsl #5
 1512 0252 D3F8002B 		ldr	r2, [r3, #2816]
 1513 0256 42F08052 		orr	r2, r2, #268435456
 1514 025a C3F8002B 		str	r2, [r3, #2816]
 1515 025e 07E7     		b	.L112
 1516              	.L121:
 1517              		.align	2
 1518              	.L120:
 1519 0260 0000F81F 		.word	536346624
 1520              		.cfi_endproc
 1521              	.LFE137:
 1523              		.section	.text.USB_EP0StartXfer,"ax",%progbits
 1524              		.align	1
 1525              		.global	USB_EP0StartXfer
 1526              		.syntax unified
 1527              		.thumb
 1528              		.thumb_func
 1529              		.fpu fpv4-sp-d16
 1531              	USB_EP0StartXfer:
 1532              	.LFB138:
 778:Drivers/STM32F4xx_HAL_Driver/Src/stm32f4xx_ll_usb.c **** 
 779:Drivers/STM32F4xx_HAL_Driver/Src/stm32f4xx_ll_usb.c **** /**
 780:Drivers/STM32F4xx_HAL_Driver/Src/stm32f4xx_ll_usb.c ****   * @brief  USB_EP0StartXfer : setup and starts a transfer over the EP  0
 781:Drivers/STM32F4xx_HAL_Driver/Src/stm32f4xx_ll_usb.c ****   * @param  USBx : Selected device
 782:Drivers/STM32F4xx_HAL_Driver/Src/stm32f4xx_ll_usb.c ****   * @param  ep: pointer to endpoint structure
 783:Drivers/STM32F4xx_HAL_Driver/Src/stm32f4xx_ll_usb.c ****   * @param  dma: USB dma enabled or disabled 
 784:Drivers/STM32F4xx_HAL_Driver/Src/stm32f4xx_ll_usb.c ****   *          This parameter can be one of these values:
 785:Drivers/STM32F4xx_HAL_Driver/Src/stm32f4xx_ll_usb.c ****   *           0 : DMA feature not used 
 786:Drivers/STM32F4xx_HAL_Driver/Src/stm32f4xx_ll_usb.c ****   *           1 : DMA feature used  
 787:Drivers/STM32F4xx_HAL_Driver/Src/stm32f4xx_ll_usb.c ****   * @retval HAL status
 788:Drivers/STM32F4xx_HAL_Driver/Src/stm32f4xx_ll_usb.c ****   */
 789:Drivers/STM32F4xx_HAL_Driver/Src/stm32f4xx_ll_usb.c **** HAL_StatusTypeDef USB_EP0StartXfer(USB_OTG_GlobalTypeDef *USBx , USB_OTG_EPTypeDef *ep, uint8_t dma
 790:Drivers/STM32F4xx_HAL_Driver/Src/stm32f4xx_ll_usb.c **** {
 1533              		.loc 1 790 0
 1534              		.cfi_startproc
 1535              		@ args = 0, pretend = 0, frame = 0
 1536              		@ frame_needed = 0, uses_anonymous_args = 0
 1537              		@ link register save eliminated.
 1538              	.LVL112:
 1539 0000 30B4     		push	{r4, r5}
ARM GAS  /var/folders/7p/1_dhylqx7nl5s8914_0f_4w00000gn/T//ccJwiRQE.s 			page 43


 1540              	.LCFI23:
 1541              		.cfi_def_cfa_offset 8
 1542              		.cfi_offset 4, -8
 1543              		.cfi_offset 5, -4
 791:Drivers/STM32F4xx_HAL_Driver/Src/stm32f4xx_ll_usb.c ****   /* IN endpoint */
 792:Drivers/STM32F4xx_HAL_Driver/Src/stm32f4xx_ll_usb.c ****   if (ep->is_in == 1U)
 1544              		.loc 1 792 0
 1545 0002 4B78     		ldrb	r3, [r1, #1]	@ zero_extendqisi2
 1546 0004 012B     		cmp	r3, #1
 1547 0006 39D0     		beq	.L132
 793:Drivers/STM32F4xx_HAL_Driver/Src/stm32f4xx_ll_usb.c ****   {
 794:Drivers/STM32F4xx_HAL_Driver/Src/stm32f4xx_ll_usb.c ****     /* Zero Length Packet? */
 795:Drivers/STM32F4xx_HAL_Driver/Src/stm32f4xx_ll_usb.c ****     if (ep->xfer_len == 0U)
 796:Drivers/STM32F4xx_HAL_Driver/Src/stm32f4xx_ll_usb.c ****     {
 797:Drivers/STM32F4xx_HAL_Driver/Src/stm32f4xx_ll_usb.c ****       USBx_INEP(ep->num)->DIEPTSIZ &= ~(USB_OTG_DIEPTSIZ_PKTCNT); 
 798:Drivers/STM32F4xx_HAL_Driver/Src/stm32f4xx_ll_usb.c ****       USBx_INEP(ep->num)->DIEPTSIZ |= (USB_OTG_DIEPTSIZ_PKTCNT & (1U << 19U)) ;
 799:Drivers/STM32F4xx_HAL_Driver/Src/stm32f4xx_ll_usb.c ****       USBx_INEP(ep->num)->DIEPTSIZ &= ~(USB_OTG_DIEPTSIZ_XFRSIZ); 
 800:Drivers/STM32F4xx_HAL_Driver/Src/stm32f4xx_ll_usb.c ****     }
 801:Drivers/STM32F4xx_HAL_Driver/Src/stm32f4xx_ll_usb.c ****     else
 802:Drivers/STM32F4xx_HAL_Driver/Src/stm32f4xx_ll_usb.c ****     {
 803:Drivers/STM32F4xx_HAL_Driver/Src/stm32f4xx_ll_usb.c ****       /* Program the transfer size and packet count
 804:Drivers/STM32F4xx_HAL_Driver/Src/stm32f4xx_ll_usb.c ****       * as follows: xfersize = N * maxpacket +
 805:Drivers/STM32F4xx_HAL_Driver/Src/stm32f4xx_ll_usb.c ****       * short_packet pktcnt = N + (short_packet
 806:Drivers/STM32F4xx_HAL_Driver/Src/stm32f4xx_ll_usb.c ****       * exist ? 1 : 0)
 807:Drivers/STM32F4xx_HAL_Driver/Src/stm32f4xx_ll_usb.c ****       */
 808:Drivers/STM32F4xx_HAL_Driver/Src/stm32f4xx_ll_usb.c ****       USBx_INEP(ep->num)->DIEPTSIZ &= ~(USB_OTG_DIEPTSIZ_XFRSIZ);
 809:Drivers/STM32F4xx_HAL_Driver/Src/stm32f4xx_ll_usb.c ****       USBx_INEP(ep->num)->DIEPTSIZ &= ~(USB_OTG_DIEPTSIZ_PKTCNT); 
 810:Drivers/STM32F4xx_HAL_Driver/Src/stm32f4xx_ll_usb.c ****       
 811:Drivers/STM32F4xx_HAL_Driver/Src/stm32f4xx_ll_usb.c ****       if(ep->xfer_len > ep->maxpacket)
 812:Drivers/STM32F4xx_HAL_Driver/Src/stm32f4xx_ll_usb.c ****       {
 813:Drivers/STM32F4xx_HAL_Driver/Src/stm32f4xx_ll_usb.c ****         ep->xfer_len = ep->maxpacket;
 814:Drivers/STM32F4xx_HAL_Driver/Src/stm32f4xx_ll_usb.c ****       }
 815:Drivers/STM32F4xx_HAL_Driver/Src/stm32f4xx_ll_usb.c ****       USBx_INEP(ep->num)->DIEPTSIZ |= (USB_OTG_DIEPTSIZ_PKTCNT & (1U << 19U)) ;
 816:Drivers/STM32F4xx_HAL_Driver/Src/stm32f4xx_ll_usb.c ****       USBx_INEP(ep->num)->DIEPTSIZ |= (USB_OTG_DIEPTSIZ_XFRSIZ & ep->xfer_len); 
 817:Drivers/STM32F4xx_HAL_Driver/Src/stm32f4xx_ll_usb.c ****     
 818:Drivers/STM32F4xx_HAL_Driver/Src/stm32f4xx_ll_usb.c ****     }
 819:Drivers/STM32F4xx_HAL_Driver/Src/stm32f4xx_ll_usb.c ****     
 820:Drivers/STM32F4xx_HAL_Driver/Src/stm32f4xx_ll_usb.c ****     /* EP enable, IN data in FIFO */
 821:Drivers/STM32F4xx_HAL_Driver/Src/stm32f4xx_ll_usb.c ****     USBx_INEP(ep->num)->DIEPCTL |= (USB_OTG_DIEPCTL_CNAK | USB_OTG_DIEPCTL_EPENA);     
 822:Drivers/STM32F4xx_HAL_Driver/Src/stm32f4xx_ll_usb.c ****     
 823:Drivers/STM32F4xx_HAL_Driver/Src/stm32f4xx_ll_usb.c ****     if (dma == 1)
 824:Drivers/STM32F4xx_HAL_Driver/Src/stm32f4xx_ll_usb.c ****     {
 825:Drivers/STM32F4xx_HAL_Driver/Src/stm32f4xx_ll_usb.c ****       USBx_INEP(ep->num)->DIEPDMA = (uint32_t)(ep->dma_addr);
 826:Drivers/STM32F4xx_HAL_Driver/Src/stm32f4xx_ll_usb.c ****     }
 827:Drivers/STM32F4xx_HAL_Driver/Src/stm32f4xx_ll_usb.c ****     else
 828:Drivers/STM32F4xx_HAL_Driver/Src/stm32f4xx_ll_usb.c ****     {
 829:Drivers/STM32F4xx_HAL_Driver/Src/stm32f4xx_ll_usb.c ****       /* Enable the Tx FIFO Empty Interrupt for this EP */
 830:Drivers/STM32F4xx_HAL_Driver/Src/stm32f4xx_ll_usb.c ****       if (ep->xfer_len > 0U)
 831:Drivers/STM32F4xx_HAL_Driver/Src/stm32f4xx_ll_usb.c ****       {
 832:Drivers/STM32F4xx_HAL_Driver/Src/stm32f4xx_ll_usb.c ****         USBx_DEVICE->DIEPEMPMSK |= 1U << (ep->num);
 833:Drivers/STM32F4xx_HAL_Driver/Src/stm32f4xx_ll_usb.c ****       }
 834:Drivers/STM32F4xx_HAL_Driver/Src/stm32f4xx_ll_usb.c ****     }
 835:Drivers/STM32F4xx_HAL_Driver/Src/stm32f4xx_ll_usb.c ****   }
 836:Drivers/STM32F4xx_HAL_Driver/Src/stm32f4xx_ll_usb.c ****   
 837:Drivers/STM32F4xx_HAL_Driver/Src/stm32f4xx_ll_usb.c ****   else /* OUT endpoint */
 838:Drivers/STM32F4xx_HAL_Driver/Src/stm32f4xx_ll_usb.c ****   {
 839:Drivers/STM32F4xx_HAL_Driver/Src/stm32f4xx_ll_usb.c ****     /* Program the transfer size and packet count as follows:
ARM GAS  /var/folders/7p/1_dhylqx7nl5s8914_0f_4w00000gn/T//ccJwiRQE.s 			page 44


 840:Drivers/STM32F4xx_HAL_Driver/Src/stm32f4xx_ll_usb.c ****     * pktcnt = N
 841:Drivers/STM32F4xx_HAL_Driver/Src/stm32f4xx_ll_usb.c ****     * xfersize = N * maxpacket
 842:Drivers/STM32F4xx_HAL_Driver/Src/stm32f4xx_ll_usb.c ****     */
 843:Drivers/STM32F4xx_HAL_Driver/Src/stm32f4xx_ll_usb.c ****     USBx_OUTEP(ep->num)->DOEPTSIZ &= ~(USB_OTG_DOEPTSIZ_XFRSIZ); 
 1548              		.loc 1 843 0
 1549 0008 0B78     		ldrb	r3, [r1]	@ zero_extendqisi2
 1550 000a 00EB4313 		add	r3, r0, r3, lsl #5
 1551 000e D3F8104B 		ldr	r4, [r3, #2832]
 1552 0012 E40C     		lsrs	r4, r4, #19
 1553 0014 E404     		lsls	r4, r4, #19
 1554 0016 C3F8104B 		str	r4, [r3, #2832]
 844:Drivers/STM32F4xx_HAL_Driver/Src/stm32f4xx_ll_usb.c ****     USBx_OUTEP(ep->num)->DOEPTSIZ &= ~(USB_OTG_DOEPTSIZ_PKTCNT); 
 1555              		.loc 1 844 0
 1556 001a 0B78     		ldrb	r3, [r1]	@ zero_extendqisi2
 1557 001c 00EB4313 		add	r3, r0, r3, lsl #5
 1558 0020 D3F8104B 		ldr	r4, [r3, #2832]
 1559 0024 24F0FF54 		bic	r4, r4, #534773760
 1560 0028 24F4C014 		bic	r4, r4, #1572864
 1561 002c C3F8104B 		str	r4, [r3, #2832]
 845:Drivers/STM32F4xx_HAL_Driver/Src/stm32f4xx_ll_usb.c ****       
 846:Drivers/STM32F4xx_HAL_Driver/Src/stm32f4xx_ll_usb.c ****     if (ep->xfer_len > 0U)
 1562              		.loc 1 846 0
 1563 0030 4B69     		ldr	r3, [r1, #20]
 1564 0032 0BB1     		cbz	r3, .L129
 847:Drivers/STM32F4xx_HAL_Driver/Src/stm32f4xx_ll_usb.c ****     {
 848:Drivers/STM32F4xx_HAL_Driver/Src/stm32f4xx_ll_usb.c ****       ep->xfer_len = ep->maxpacket;
 1565              		.loc 1 848 0
 1566 0034 8B68     		ldr	r3, [r1, #8]
 1567 0036 4B61     		str	r3, [r1, #20]
 1568              	.L129:
 849:Drivers/STM32F4xx_HAL_Driver/Src/stm32f4xx_ll_usb.c ****     }
 850:Drivers/STM32F4xx_HAL_Driver/Src/stm32f4xx_ll_usb.c ****     
 851:Drivers/STM32F4xx_HAL_Driver/Src/stm32f4xx_ll_usb.c ****     USBx_OUTEP(ep->num)->DOEPTSIZ |= (USB_OTG_DOEPTSIZ_PKTCNT & (1U << 19U));
 1569              		.loc 1 851 0
 1570 0038 0B78     		ldrb	r3, [r1]	@ zero_extendqisi2
 1571 003a 00EB4313 		add	r3, r0, r3, lsl #5
 1572 003e D3F8104B 		ldr	r4, [r3, #2832]
 1573 0042 44F40024 		orr	r4, r4, #524288
 1574 0046 C3F8104B 		str	r4, [r3, #2832]
 852:Drivers/STM32F4xx_HAL_Driver/Src/stm32f4xx_ll_usb.c ****     USBx_OUTEP(ep->num)->DOEPTSIZ |= (USB_OTG_DOEPTSIZ_XFRSIZ & (ep->maxpacket)); 
 1575              		.loc 1 852 0
 1576 004a 0B78     		ldrb	r3, [r1]	@ zero_extendqisi2
 1577 004c 00EB4313 		add	r3, r0, r3, lsl #5
 1578 0050 D3F8104B 		ldr	r4, [r3, #2832]
 1579 0054 8D68     		ldr	r5, [r1, #8]
 1580 0056 C5F31205 		ubfx	r5, r5, #0, #19
 1581 005a 2C43     		orrs	r4, r4, r5
 1582 005c C3F8104B 		str	r4, [r3, #2832]
 853:Drivers/STM32F4xx_HAL_Driver/Src/stm32f4xx_ll_usb.c ****     
 854:Drivers/STM32F4xx_HAL_Driver/Src/stm32f4xx_ll_usb.c **** 
 855:Drivers/STM32F4xx_HAL_Driver/Src/stm32f4xx_ll_usb.c ****     if (dma == 1U)
 1583              		.loc 1 855 0
 1584 0060 012A     		cmp	r2, #1
 1585 0062 76D0     		beq	.L133
 1586              	.LVL113:
 1587              	.L130:
 856:Drivers/STM32F4xx_HAL_Driver/Src/stm32f4xx_ll_usb.c ****     {
ARM GAS  /var/folders/7p/1_dhylqx7nl5s8914_0f_4w00000gn/T//ccJwiRQE.s 			page 45


 857:Drivers/STM32F4xx_HAL_Driver/Src/stm32f4xx_ll_usb.c ****       USBx_OUTEP(ep->num)->DOEPDMA = (uint32_t)(ep->xfer_buff);
 858:Drivers/STM32F4xx_HAL_Driver/Src/stm32f4xx_ll_usb.c ****     }
 859:Drivers/STM32F4xx_HAL_Driver/Src/stm32f4xx_ll_usb.c ****     
 860:Drivers/STM32F4xx_HAL_Driver/Src/stm32f4xx_ll_usb.c ****     /* EP enable */
 861:Drivers/STM32F4xx_HAL_Driver/Src/stm32f4xx_ll_usb.c ****     USBx_OUTEP(ep->num)->DOEPCTL |= (USB_OTG_DOEPCTL_CNAK | USB_OTG_DOEPCTL_EPENA);    
 1588              		.loc 1 861 0
 1589 0064 0B78     		ldrb	r3, [r1]	@ zero_extendqisi2
 1590 0066 00EB4310 		add	r0, r0, r3, lsl #5
 1591              	.LVL114:
 1592 006a D0F8003B 		ldr	r3, [r0, #2816]
 1593 006e 43F00443 		orr	r3, r3, #-2080374784
 1594 0072 C0F8003B 		str	r3, [r0, #2816]
 1595              	.LVL115:
 1596              	.L128:
 862:Drivers/STM32F4xx_HAL_Driver/Src/stm32f4xx_ll_usb.c ****   }
 863:Drivers/STM32F4xx_HAL_Driver/Src/stm32f4xx_ll_usb.c ****   return HAL_OK;
 864:Drivers/STM32F4xx_HAL_Driver/Src/stm32f4xx_ll_usb.c **** }
 1597              		.loc 1 864 0
 1598 0076 0020     		movs	r0, #0
 1599 0078 30BC     		pop	{r4, r5}
 1600              	.LCFI24:
 1601              		.cfi_remember_state
 1602              		.cfi_restore 5
 1603              		.cfi_restore 4
 1604              		.cfi_def_cfa_offset 0
 1605 007a 7047     		bx	lr
 1606              	.LVL116:
 1607              	.L132:
 1608              	.LCFI25:
 1609              		.cfi_restore_state
 795:Drivers/STM32F4xx_HAL_Driver/Src/stm32f4xx_ll_usb.c ****     {
 1610              		.loc 1 795 0
 1611 007c 4B69     		ldr	r3, [r1, #20]
 1612 007e 9BBB     		cbnz	r3, .L124
 797:Drivers/STM32F4xx_HAL_Driver/Src/stm32f4xx_ll_usb.c ****       USBx_INEP(ep->num)->DIEPTSIZ |= (USB_OTG_DIEPTSIZ_PKTCNT & (1U << 19U)) ;
 1613              		.loc 1 797 0
 1614 0080 0B78     		ldrb	r3, [r1]	@ zero_extendqisi2
 1615 0082 00EB4313 		add	r3, r0, r3, lsl #5
 1616 0086 D3F81049 		ldr	r4, [r3, #2320]
 1617 008a 24F0FF54 		bic	r4, r4, #534773760
 1618 008e 24F4C014 		bic	r4, r4, #1572864
 1619 0092 C3F81049 		str	r4, [r3, #2320]
 798:Drivers/STM32F4xx_HAL_Driver/Src/stm32f4xx_ll_usb.c ****       USBx_INEP(ep->num)->DIEPTSIZ &= ~(USB_OTG_DIEPTSIZ_XFRSIZ); 
 1620              		.loc 1 798 0
 1621 0096 0B78     		ldrb	r3, [r1]	@ zero_extendqisi2
 1622 0098 00EB4313 		add	r3, r0, r3, lsl #5
 1623 009c D3F81049 		ldr	r4, [r3, #2320]
 1624 00a0 44F40024 		orr	r4, r4, #524288
 1625 00a4 C3F81049 		str	r4, [r3, #2320]
 799:Drivers/STM32F4xx_HAL_Driver/Src/stm32f4xx_ll_usb.c ****     }
 1626              		.loc 1 799 0
 1627 00a8 0B78     		ldrb	r3, [r1]	@ zero_extendqisi2
 1628 00aa 00EB4313 		add	r3, r0, r3, lsl #5
 1629 00ae D3F81049 		ldr	r4, [r3, #2320]
 1630 00b2 E40C     		lsrs	r4, r4, #19
 1631 00b4 E404     		lsls	r4, r4, #19
 1632 00b6 C3F81049 		str	r4, [r3, #2320]
ARM GAS  /var/folders/7p/1_dhylqx7nl5s8914_0f_4w00000gn/T//ccJwiRQE.s 			page 46


 1633              	.L125:
 821:Drivers/STM32F4xx_HAL_Driver/Src/stm32f4xx_ll_usb.c ****     
 1634              		.loc 1 821 0
 1635 00ba 0B78     		ldrb	r3, [r1]	@ zero_extendqisi2
 1636 00bc 00EB4313 		add	r3, r0, r3, lsl #5
 1637 00c0 D3F80049 		ldr	r4, [r3, #2304]
 1638 00c4 44F00444 		orr	r4, r4, #-2080374784
 1639 00c8 C3F80049 		str	r4, [r3, #2304]
 823:Drivers/STM32F4xx_HAL_Driver/Src/stm32f4xx_ll_usb.c ****     {
 1640              		.loc 1 823 0
 1641 00cc 012A     		cmp	r2, #1
 1642 00ce 39D0     		beq	.L134
 830:Drivers/STM32F4xx_HAL_Driver/Src/stm32f4xx_ll_usb.c ****       {
 1643              		.loc 1 830 0
 1644 00d0 4B69     		ldr	r3, [r1, #20]
 1645 00d2 002B     		cmp	r3, #0
 1646 00d4 CFD0     		beq	.L128
 832:Drivers/STM32F4xx_HAL_Driver/Src/stm32f4xx_ll_usb.c ****       }
 1647              		.loc 1 832 0
 1648 00d6 D0F83438 		ldr	r3, [r0, #2100]
 1649 00da 0978     		ldrb	r1, [r1]	@ zero_extendqisi2
 1650              	.LVL117:
 1651 00dc 0122     		movs	r2, #1
 1652              	.LVL118:
 1653 00de 8A40     		lsls	r2, r2, r1
 1654 00e0 1343     		orrs	r3, r3, r2
 1655 00e2 C0F83438 		str	r3, [r0, #2100]
 1656 00e6 C6E7     		b	.L128
 1657              	.LVL119:
 1658              	.L124:
 808:Drivers/STM32F4xx_HAL_Driver/Src/stm32f4xx_ll_usb.c ****       USBx_INEP(ep->num)->DIEPTSIZ &= ~(USB_OTG_DIEPTSIZ_PKTCNT); 
 1659              		.loc 1 808 0
 1660 00e8 0B78     		ldrb	r3, [r1]	@ zero_extendqisi2
 1661 00ea 00EB4313 		add	r3, r0, r3, lsl #5
 1662 00ee D3F81049 		ldr	r4, [r3, #2320]
 1663 00f2 E40C     		lsrs	r4, r4, #19
 1664 00f4 E404     		lsls	r4, r4, #19
 1665 00f6 C3F81049 		str	r4, [r3, #2320]
 809:Drivers/STM32F4xx_HAL_Driver/Src/stm32f4xx_ll_usb.c ****       
 1666              		.loc 1 809 0
 1667 00fa 0B78     		ldrb	r3, [r1]	@ zero_extendqisi2
 1668 00fc 00EB4313 		add	r3, r0, r3, lsl #5
 1669 0100 D3F81049 		ldr	r4, [r3, #2320]
 1670 0104 24F0FF54 		bic	r4, r4, #534773760
 1671 0108 24F4C014 		bic	r4, r4, #1572864
 1672 010c C3F81049 		str	r4, [r3, #2320]
 811:Drivers/STM32F4xx_HAL_Driver/Src/stm32f4xx_ll_usb.c ****       {
 1673              		.loc 1 811 0
 1674 0110 4C69     		ldr	r4, [r1, #20]
 1675 0112 8B68     		ldr	r3, [r1, #8]
 1676 0114 9C42     		cmp	r4, r3
 1677 0116 00D9     		bls	.L126
 813:Drivers/STM32F4xx_HAL_Driver/Src/stm32f4xx_ll_usb.c ****       }
 1678              		.loc 1 813 0
 1679 0118 4B61     		str	r3, [r1, #20]
 1680              	.L126:
 815:Drivers/STM32F4xx_HAL_Driver/Src/stm32f4xx_ll_usb.c ****       USBx_INEP(ep->num)->DIEPTSIZ |= (USB_OTG_DIEPTSIZ_XFRSIZ & ep->xfer_len); 
ARM GAS  /var/folders/7p/1_dhylqx7nl5s8914_0f_4w00000gn/T//ccJwiRQE.s 			page 47


 1681              		.loc 1 815 0
 1682 011a 0B78     		ldrb	r3, [r1]	@ zero_extendqisi2
 1683 011c 00EB4313 		add	r3, r0, r3, lsl #5
 1684 0120 D3F81049 		ldr	r4, [r3, #2320]
 1685 0124 44F40024 		orr	r4, r4, #524288
 1686 0128 C3F81049 		str	r4, [r3, #2320]
 816:Drivers/STM32F4xx_HAL_Driver/Src/stm32f4xx_ll_usb.c ****     
 1687              		.loc 1 816 0
 1688 012c 0B78     		ldrb	r3, [r1]	@ zero_extendqisi2
 1689 012e 00EB4313 		add	r3, r0, r3, lsl #5
 1690 0132 D3F81049 		ldr	r4, [r3, #2320]
 1691 0136 4D69     		ldr	r5, [r1, #20]
 1692 0138 C5F31205 		ubfx	r5, r5, #0, #19
 1693 013c 2C43     		orrs	r4, r4, r5
 1694 013e C3F81049 		str	r4, [r3, #2320]
 1695 0142 BAE7     		b	.L125
 1696              	.L134:
 825:Drivers/STM32F4xx_HAL_Driver/Src/stm32f4xx_ll_usb.c ****     }
 1697              		.loc 1 825 0
 1698 0144 0B78     		ldrb	r3, [r1]	@ zero_extendqisi2
 1699 0146 00EB4310 		add	r0, r0, r3, lsl #5
 1700              	.LVL120:
 1701 014a 0B69     		ldr	r3, [r1, #16]
 1702 014c C0F81439 		str	r3, [r0, #2324]
 1703 0150 91E7     		b	.L128
 1704              	.LVL121:
 1705              	.L133:
 857:Drivers/STM32F4xx_HAL_Driver/Src/stm32f4xx_ll_usb.c ****     }
 1706              		.loc 1 857 0
 1707 0152 0B78     		ldrb	r3, [r1]	@ zero_extendqisi2
 1708 0154 00EB4313 		add	r3, r0, r3, lsl #5
 1709 0158 CA68     		ldr	r2, [r1, #12]
 1710              	.LVL122:
 1711 015a C3F8142B 		str	r2, [r3, #2836]
 1712 015e 81E7     		b	.L130
 1713              		.cfi_endproc
 1714              	.LFE138:
 1716              		.section	.text.USB_WritePacket,"ax",%progbits
 1717              		.align	1
 1718              		.global	USB_WritePacket
 1719              		.syntax unified
 1720              		.thumb
 1721              		.thumb_func
 1722              		.fpu fpv4-sp-d16
 1724              	USB_WritePacket:
 1725              	.LFB139:
 865:Drivers/STM32F4xx_HAL_Driver/Src/stm32f4xx_ll_usb.c **** 
 866:Drivers/STM32F4xx_HAL_Driver/Src/stm32f4xx_ll_usb.c **** /**
 867:Drivers/STM32F4xx_HAL_Driver/Src/stm32f4xx_ll_usb.c ****   * @brief  USB_WritePacket : Writes a packet into the Tx FIFO associated 
 868:Drivers/STM32F4xx_HAL_Driver/Src/stm32f4xx_ll_usb.c ****   *         with the EP/channel
 869:Drivers/STM32F4xx_HAL_Driver/Src/stm32f4xx_ll_usb.c ****   * @param  USBx : Selected device           
 870:Drivers/STM32F4xx_HAL_Driver/Src/stm32f4xx_ll_usb.c ****   * @param  src :  pointer to source buffer
 871:Drivers/STM32F4xx_HAL_Driver/Src/stm32f4xx_ll_usb.c ****   * @param  ch_ep_num : endpoint or host channel number
 872:Drivers/STM32F4xx_HAL_Driver/Src/stm32f4xx_ll_usb.c ****   * @param  len : Number of bytes to write
 873:Drivers/STM32F4xx_HAL_Driver/Src/stm32f4xx_ll_usb.c ****   * @param  dma: USB dma enabled or disabled 
 874:Drivers/STM32F4xx_HAL_Driver/Src/stm32f4xx_ll_usb.c ****   *          This parameter can be one of these values:
 875:Drivers/STM32F4xx_HAL_Driver/Src/stm32f4xx_ll_usb.c ****   *           0 : DMA feature not used 
ARM GAS  /var/folders/7p/1_dhylqx7nl5s8914_0f_4w00000gn/T//ccJwiRQE.s 			page 48


 876:Drivers/STM32F4xx_HAL_Driver/Src/stm32f4xx_ll_usb.c ****   *           1 : DMA feature used  
 877:Drivers/STM32F4xx_HAL_Driver/Src/stm32f4xx_ll_usb.c ****   * @retval HAL status
 878:Drivers/STM32F4xx_HAL_Driver/Src/stm32f4xx_ll_usb.c ****   */
 879:Drivers/STM32F4xx_HAL_Driver/Src/stm32f4xx_ll_usb.c **** HAL_StatusTypeDef USB_WritePacket(USB_OTG_GlobalTypeDef *USBx, uint8_t *src, uint8_t ch_ep_num, uin
 880:Drivers/STM32F4xx_HAL_Driver/Src/stm32f4xx_ll_usb.c **** {
 1726              		.loc 1 880 0
 1727              		.cfi_startproc
 1728              		@ args = 4, pretend = 0, frame = 0
 1729              		@ frame_needed = 0, uses_anonymous_args = 0
 1730              		@ link register save eliminated.
 1731              	.LVL123:
 1732 0000 70B4     		push	{r4, r5, r6}
 1733              	.LCFI26:
 1734              		.cfi_def_cfa_offset 12
 1735              		.cfi_offset 4, -12
 1736              		.cfi_offset 5, -8
 1737              		.cfi_offset 6, -4
 1738 0002 9DF80C40 		ldrb	r4, [sp, #12]	@ zero_extendqisi2
 1739              	.LVL124:
 881:Drivers/STM32F4xx_HAL_Driver/Src/stm32f4xx_ll_usb.c ****   uint32_t count32b = 0U , i = 0U;
 882:Drivers/STM32F4xx_HAL_Driver/Src/stm32f4xx_ll_usb.c ****   
 883:Drivers/STM32F4xx_HAL_Driver/Src/stm32f4xx_ll_usb.c ****   if (dma == 0U)
 1740              		.loc 1 883 0
 1741 0006 64B9     		cbnz	r4, .L136
 884:Drivers/STM32F4xx_HAL_Driver/Src/stm32f4xx_ll_usb.c ****   {
 885:Drivers/STM32F4xx_HAL_Driver/Src/stm32f4xx_ll_usb.c ****     count32b =  (len + 3U) / 4U;
 1742              		.loc 1 885 0
 1743 0008 0333     		adds	r3, r3, #3
 1744              	.LVL125:
 1745 000a 9E08     		lsrs	r6, r3, #2
 1746              	.LVL126:
 886:Drivers/STM32F4xx_HAL_Driver/Src/stm32f4xx_ll_usb.c ****     for (i = 0U; i < count32b; i++, src += 4U)
 1747              		.loc 1 886 0
 1748 000c 07E0     		b	.L137
 1749              	.LVL127:
 1750              	.L138:
 887:Drivers/STM32F4xx_HAL_Driver/Src/stm32f4xx_ll_usb.c ****     {
 888:Drivers/STM32F4xx_HAL_Driver/Src/stm32f4xx_ll_usb.c ****       USBx_DFIFO(ch_ep_num) = *((__packed uint32_t *)src);
 1751              		.loc 1 888 0 discriminator 3
 1752 000e 00EB0233 		add	r3, r0, r2, lsl #12
 1753 0012 03F58053 		add	r3, r3, #4096
 1754 0016 51F8045B 		ldr	r5, [r1], #4
 1755              	.LVL128:
 1756 001a 1D60     		str	r5, [r3]
 886:Drivers/STM32F4xx_HAL_Driver/Src/stm32f4xx_ll_usb.c ****     for (i = 0U; i < count32b; i++, src += 4U)
 1757              		.loc 1 886 0 discriminator 3
 1758 001c 0134     		adds	r4, r4, #1
 1759              	.LVL129:
 1760              	.L137:
 886:Drivers/STM32F4xx_HAL_Driver/Src/stm32f4xx_ll_usb.c ****     for (i = 0U; i < count32b; i++, src += 4U)
 1761              		.loc 1 886 0 is_stmt 0 discriminator 1
 1762 001e B442     		cmp	r4, r6
 1763 0020 F5D3     		bcc	.L138
 1764              	.LVL130:
 1765              	.L136:
 889:Drivers/STM32F4xx_HAL_Driver/Src/stm32f4xx_ll_usb.c ****     }
 890:Drivers/STM32F4xx_HAL_Driver/Src/stm32f4xx_ll_usb.c ****   }
ARM GAS  /var/folders/7p/1_dhylqx7nl5s8914_0f_4w00000gn/T//ccJwiRQE.s 			page 49


 891:Drivers/STM32F4xx_HAL_Driver/Src/stm32f4xx_ll_usb.c ****   return HAL_OK;
 892:Drivers/STM32F4xx_HAL_Driver/Src/stm32f4xx_ll_usb.c **** }
 1766              		.loc 1 892 0 is_stmt 1
 1767 0022 0020     		movs	r0, #0
 1768              	.LVL131:
 1769 0024 70BC     		pop	{r4, r5, r6}
 1770              	.LCFI27:
 1771              		.cfi_restore 6
 1772              		.cfi_restore 5
 1773              		.cfi_restore 4
 1774              		.cfi_def_cfa_offset 0
 1775              	.LVL132:
 1776 0026 7047     		bx	lr
 1777              		.cfi_endproc
 1778              	.LFE139:
 1780              		.section	.text.USB_ReadPacket,"ax",%progbits
 1781              		.align	1
 1782              		.global	USB_ReadPacket
 1783              		.syntax unified
 1784              		.thumb
 1785              		.thumb_func
 1786              		.fpu fpv4-sp-d16
 1788              	USB_ReadPacket:
 1789              	.LFB140:
 893:Drivers/STM32F4xx_HAL_Driver/Src/stm32f4xx_ll_usb.c **** 
 894:Drivers/STM32F4xx_HAL_Driver/Src/stm32f4xx_ll_usb.c **** /**
 895:Drivers/STM32F4xx_HAL_Driver/Src/stm32f4xx_ll_usb.c ****   * @brief  USB_ReadPacket : read a packet from the Tx FIFO associated 
 896:Drivers/STM32F4xx_HAL_Driver/Src/stm32f4xx_ll_usb.c ****   *         with the EP/channel
 897:Drivers/STM32F4xx_HAL_Driver/Src/stm32f4xx_ll_usb.c ****   * @param  USBx : Selected device  
 898:Drivers/STM32F4xx_HAL_Driver/Src/stm32f4xx_ll_usb.c ****   * @param  src : source pointer
 899:Drivers/STM32F4xx_HAL_Driver/Src/stm32f4xx_ll_usb.c ****   * @param  ch_ep_num : endpoint or host channel number
 900:Drivers/STM32F4xx_HAL_Driver/Src/stm32f4xx_ll_usb.c ****   * @param  len : Number of bytes to read
 901:Drivers/STM32F4xx_HAL_Driver/Src/stm32f4xx_ll_usb.c ****   * @param  dma: USB dma enabled or disabled 
 902:Drivers/STM32F4xx_HAL_Driver/Src/stm32f4xx_ll_usb.c ****   *          This parameter can be one of these values:
 903:Drivers/STM32F4xx_HAL_Driver/Src/stm32f4xx_ll_usb.c ****   *           0 : DMA feature not used 
 904:Drivers/STM32F4xx_HAL_Driver/Src/stm32f4xx_ll_usb.c ****   *           1 : DMA feature used  
 905:Drivers/STM32F4xx_HAL_Driver/Src/stm32f4xx_ll_usb.c ****   * @retval pointer to destination buffer
 906:Drivers/STM32F4xx_HAL_Driver/Src/stm32f4xx_ll_usb.c ****   */
 907:Drivers/STM32F4xx_HAL_Driver/Src/stm32f4xx_ll_usb.c **** void *USB_ReadPacket(USB_OTG_GlobalTypeDef *USBx, uint8_t *dest, uint16_t len)
 908:Drivers/STM32F4xx_HAL_Driver/Src/stm32f4xx_ll_usb.c **** {
 1790              		.loc 1 908 0
 1791              		.cfi_startproc
 1792              		@ args = 0, pretend = 0, frame = 0
 1793              		@ frame_needed = 0, uses_anonymous_args = 0
 1794              		@ link register save eliminated.
 1795              	.LVL133:
 909:Drivers/STM32F4xx_HAL_Driver/Src/stm32f4xx_ll_usb.c ****   uint32_t i=0U;
 910:Drivers/STM32F4xx_HAL_Driver/Src/stm32f4xx_ll_usb.c ****   uint32_t count32b = (len + 3U) / 4U;
 1796              		.loc 1 910 0
 1797 0000 0332     		adds	r2, r2, #3
 1798              	.LVL134:
 1799 0002 9208     		lsrs	r2, r2, #2
 1800              	.LVL135:
 911:Drivers/STM32F4xx_HAL_Driver/Src/stm32f4xx_ll_usb.c ****   
 912:Drivers/STM32F4xx_HAL_Driver/Src/stm32f4xx_ll_usb.c ****   for ( i = 0U; i < count32b; i++, dest += 4U )
 1801              		.loc 1 912 0
 1802 0004 0023     		movs	r3, #0
ARM GAS  /var/folders/7p/1_dhylqx7nl5s8914_0f_4w00000gn/T//ccJwiRQE.s 			page 50


 1803              	.LVL136:
 1804 0006 9342     		cmp	r3, r2
 1805 0008 0CD2     		bcs	.L147
 908:Drivers/STM32F4xx_HAL_Driver/Src/stm32f4xx_ll_usb.c ****   uint32_t i=0U;
 1806              		.loc 1 908 0
 1807 000a 10B4     		push	{r4}
 1808              	.LCFI28:
 1809              		.cfi_def_cfa_offset 4
 1810              		.cfi_offset 4, -4
 1811              	.L142:
 913:Drivers/STM32F4xx_HAL_Driver/Src/stm32f4xx_ll_usb.c ****   {
 914:Drivers/STM32F4xx_HAL_Driver/Src/stm32f4xx_ll_usb.c ****     *(__packed uint32_t *)dest = USBx_DFIFO(0U);
 1812              		.loc 1 914 0 discriminator 3
 1813 000c 00F58054 		add	r4, r0, #4096
 1814 0010 2468     		ldr	r4, [r4]
 1815 0012 41F8044B 		str	r4, [r1], #4
 1816              	.LVL137:
 912:Drivers/STM32F4xx_HAL_Driver/Src/stm32f4xx_ll_usb.c ****   {
 1817              		.loc 1 912 0 discriminator 3
 1818 0016 0133     		adds	r3, r3, #1
 1819              	.LVL138:
 1820 0018 9342     		cmp	r3, r2
 1821 001a F7D3     		bcc	.L142
 915:Drivers/STM32F4xx_HAL_Driver/Src/stm32f4xx_ll_usb.c ****     
 916:Drivers/STM32F4xx_HAL_Driver/Src/stm32f4xx_ll_usb.c ****   }
 917:Drivers/STM32F4xx_HAL_Driver/Src/stm32f4xx_ll_usb.c ****   return ((void *)dest);
 918:Drivers/STM32F4xx_HAL_Driver/Src/stm32f4xx_ll_usb.c **** }
 1822              		.loc 1 918 0
 1823 001c 0846     		mov	r0, r1
 1824              	.LVL139:
 1825 001e 5DF8044B 		ldr	r4, [sp], #4
 1826              	.LCFI29:
 1827              		.cfi_restore 4
 1828              		.cfi_def_cfa_offset 0
 1829 0022 7047     		bx	lr
 1830              	.LVL140:
 1831              	.L147:
 1832 0024 0846     		mov	r0, r1
 1833              	.LVL141:
 1834 0026 7047     		bx	lr
 1835              		.cfi_endproc
 1836              	.LFE140:
 1838              		.section	.text.USB_EPSetStall,"ax",%progbits
 1839              		.align	1
 1840              		.global	USB_EPSetStall
 1841              		.syntax unified
 1842              		.thumb
 1843              		.thumb_func
 1844              		.fpu fpv4-sp-d16
 1846              	USB_EPSetStall:
 1847              	.LFB141:
 919:Drivers/STM32F4xx_HAL_Driver/Src/stm32f4xx_ll_usb.c **** 
 920:Drivers/STM32F4xx_HAL_Driver/Src/stm32f4xx_ll_usb.c **** /**
 921:Drivers/STM32F4xx_HAL_Driver/Src/stm32f4xx_ll_usb.c ****   * @brief  USB_EPSetStall : set a stall condition over an EP
 922:Drivers/STM32F4xx_HAL_Driver/Src/stm32f4xx_ll_usb.c ****   * @param  USBx : Selected device
 923:Drivers/STM32F4xx_HAL_Driver/Src/stm32f4xx_ll_usb.c ****   * @param  ep: pointer to endpoint structure   
 924:Drivers/STM32F4xx_HAL_Driver/Src/stm32f4xx_ll_usb.c ****   * @retval HAL status
ARM GAS  /var/folders/7p/1_dhylqx7nl5s8914_0f_4w00000gn/T//ccJwiRQE.s 			page 51


 925:Drivers/STM32F4xx_HAL_Driver/Src/stm32f4xx_ll_usb.c ****   */
 926:Drivers/STM32F4xx_HAL_Driver/Src/stm32f4xx_ll_usb.c **** HAL_StatusTypeDef USB_EPSetStall(USB_OTG_GlobalTypeDef *USBx , USB_OTG_EPTypeDef *ep)
 927:Drivers/STM32F4xx_HAL_Driver/Src/stm32f4xx_ll_usb.c **** {
 1848              		.loc 1 927 0
 1849              		.cfi_startproc
 1850              		@ args = 0, pretend = 0, frame = 0
 1851              		@ frame_needed = 0, uses_anonymous_args = 0
 1852              		@ link register save eliminated.
 1853              	.LVL142:
 928:Drivers/STM32F4xx_HAL_Driver/Src/stm32f4xx_ll_usb.c ****   if (ep->is_in == 1U)
 1854              		.loc 1 928 0
 1855 0000 4B78     		ldrb	r3, [r1, #1]	@ zero_extendqisi2
 1856 0002 012B     		cmp	r3, #1
 1857 0004 17D0     		beq	.L153
 929:Drivers/STM32F4xx_HAL_Driver/Src/stm32f4xx_ll_usb.c ****   {
 930:Drivers/STM32F4xx_HAL_Driver/Src/stm32f4xx_ll_usb.c ****     if (((USBx_INEP(ep->num)->DIEPCTL) & USB_OTG_DIEPCTL_EPENA) == 0U)
 931:Drivers/STM32F4xx_HAL_Driver/Src/stm32f4xx_ll_usb.c ****     {
 932:Drivers/STM32F4xx_HAL_Driver/Src/stm32f4xx_ll_usb.c ****       USBx_INEP(ep->num)->DIEPCTL &= ~(USB_OTG_DIEPCTL_EPDIS); 
 933:Drivers/STM32F4xx_HAL_Driver/Src/stm32f4xx_ll_usb.c ****     } 
 934:Drivers/STM32F4xx_HAL_Driver/Src/stm32f4xx_ll_usb.c ****     USBx_INEP(ep->num)->DIEPCTL |= USB_OTG_DIEPCTL_STALL;
 935:Drivers/STM32F4xx_HAL_Driver/Src/stm32f4xx_ll_usb.c ****   }
 936:Drivers/STM32F4xx_HAL_Driver/Src/stm32f4xx_ll_usb.c ****   else
 937:Drivers/STM32F4xx_HAL_Driver/Src/stm32f4xx_ll_usb.c ****   {
 938:Drivers/STM32F4xx_HAL_Driver/Src/stm32f4xx_ll_usb.c ****     if (((USBx_OUTEP(ep->num)->DOEPCTL) & USB_OTG_DOEPCTL_EPENA) == 0U)
 1858              		.loc 1 938 0
 1859 0006 0B78     		ldrb	r3, [r1]	@ zero_extendqisi2
 1860 0008 00EB4313 		add	r3, r0, r3, lsl #5
 1861 000c D3F8002B 		ldr	r2, [r3, #2816]
 1862 0010 002A     		cmp	r2, #0
 1863 0012 05DB     		blt	.L152
 939:Drivers/STM32F4xx_HAL_Driver/Src/stm32f4xx_ll_usb.c ****     {
 940:Drivers/STM32F4xx_HAL_Driver/Src/stm32f4xx_ll_usb.c ****       USBx_OUTEP(ep->num)->DOEPCTL &= ~(USB_OTG_DOEPCTL_EPDIS); 
 1864              		.loc 1 940 0
 1865 0014 D3F8002B 		ldr	r2, [r3, #2816]
 1866 0018 22F08042 		bic	r2, r2, #1073741824
 1867 001c C3F8002B 		str	r2, [r3, #2816]
 1868              	.L152:
 941:Drivers/STM32F4xx_HAL_Driver/Src/stm32f4xx_ll_usb.c ****     } 
 942:Drivers/STM32F4xx_HAL_Driver/Src/stm32f4xx_ll_usb.c ****     USBx_OUTEP(ep->num)->DOEPCTL |= USB_OTG_DOEPCTL_STALL;
 1869              		.loc 1 942 0
 1870 0020 0B78     		ldrb	r3, [r1]	@ zero_extendqisi2
 1871 0022 00EB4310 		add	r0, r0, r3, lsl #5
 1872              	.LVL143:
 1873 0026 D0F8003B 		ldr	r3, [r0, #2816]
 1874 002a 43F40013 		orr	r3, r3, #2097152
 1875 002e C0F8003B 		str	r3, [r0, #2816]
 1876              	.L151:
 943:Drivers/STM32F4xx_HAL_Driver/Src/stm32f4xx_ll_usb.c ****   }
 944:Drivers/STM32F4xx_HAL_Driver/Src/stm32f4xx_ll_usb.c ****   return HAL_OK;
 945:Drivers/STM32F4xx_HAL_Driver/Src/stm32f4xx_ll_usb.c **** }
 1877              		.loc 1 945 0
 1878 0032 0020     		movs	r0, #0
 1879 0034 7047     		bx	lr
 1880              	.LVL144:
 1881              	.L153:
 930:Drivers/STM32F4xx_HAL_Driver/Src/stm32f4xx_ll_usb.c ****     {
 1882              		.loc 1 930 0
ARM GAS  /var/folders/7p/1_dhylqx7nl5s8914_0f_4w00000gn/T//ccJwiRQE.s 			page 52


 1883 0036 0B78     		ldrb	r3, [r1]	@ zero_extendqisi2
 1884 0038 00EB4313 		add	r3, r0, r3, lsl #5
 1885 003c D3F80029 		ldr	r2, [r3, #2304]
 1886 0040 002A     		cmp	r2, #0
 1887 0042 05DB     		blt	.L150
 932:Drivers/STM32F4xx_HAL_Driver/Src/stm32f4xx_ll_usb.c ****     } 
 1888              		.loc 1 932 0
 1889 0044 D3F80029 		ldr	r2, [r3, #2304]
 1890 0048 22F08042 		bic	r2, r2, #1073741824
 1891 004c C3F80029 		str	r2, [r3, #2304]
 1892              	.L150:
 934:Drivers/STM32F4xx_HAL_Driver/Src/stm32f4xx_ll_usb.c ****   }
 1893              		.loc 1 934 0
 1894 0050 0B78     		ldrb	r3, [r1]	@ zero_extendqisi2
 1895 0052 00EB4310 		add	r0, r0, r3, lsl #5
 1896              	.LVL145:
 1897 0056 D0F80039 		ldr	r3, [r0, #2304]
 1898 005a 43F40013 		orr	r3, r3, #2097152
 1899 005e C0F80039 		str	r3, [r0, #2304]
 1900 0062 E6E7     		b	.L151
 1901              		.cfi_endproc
 1902              	.LFE141:
 1904              		.section	.text.USB_EPClearStall,"ax",%progbits
 1905              		.align	1
 1906              		.global	USB_EPClearStall
 1907              		.syntax unified
 1908              		.thumb
 1909              		.thumb_func
 1910              		.fpu fpv4-sp-d16
 1912              	USB_EPClearStall:
 1913              	.LFB142:
 946:Drivers/STM32F4xx_HAL_Driver/Src/stm32f4xx_ll_usb.c **** 
 947:Drivers/STM32F4xx_HAL_Driver/Src/stm32f4xx_ll_usb.c **** 
 948:Drivers/STM32F4xx_HAL_Driver/Src/stm32f4xx_ll_usb.c **** /**
 949:Drivers/STM32F4xx_HAL_Driver/Src/stm32f4xx_ll_usb.c ****   * @brief  USB_EPClearStall : Clear a stall condition over an EP
 950:Drivers/STM32F4xx_HAL_Driver/Src/stm32f4xx_ll_usb.c ****   * @param  USBx : Selected device
 951:Drivers/STM32F4xx_HAL_Driver/Src/stm32f4xx_ll_usb.c ****   * @param  ep: pointer to endpoint structure   
 952:Drivers/STM32F4xx_HAL_Driver/Src/stm32f4xx_ll_usb.c ****   * @retval HAL status
 953:Drivers/STM32F4xx_HAL_Driver/Src/stm32f4xx_ll_usb.c ****   */
 954:Drivers/STM32F4xx_HAL_Driver/Src/stm32f4xx_ll_usb.c **** HAL_StatusTypeDef USB_EPClearStall(USB_OTG_GlobalTypeDef *USBx, USB_OTG_EPTypeDef *ep)
 955:Drivers/STM32F4xx_HAL_Driver/Src/stm32f4xx_ll_usb.c **** {
 1914              		.loc 1 955 0
 1915              		.cfi_startproc
 1916              		@ args = 0, pretend = 0, frame = 0
 1917              		@ frame_needed = 0, uses_anonymous_args = 0
 1918              		@ link register save eliminated.
 1919              	.LVL146:
 956:Drivers/STM32F4xx_HAL_Driver/Src/stm32f4xx_ll_usb.c ****   if (ep->is_in == 1U)
 1920              		.loc 1 956 0
 1921 0000 4B78     		ldrb	r3, [r1, #1]	@ zero_extendqisi2
 1922 0002 012B     		cmp	r3, #1
 1923 0004 0FD0     		beq	.L157
 957:Drivers/STM32F4xx_HAL_Driver/Src/stm32f4xx_ll_usb.c ****   {
 958:Drivers/STM32F4xx_HAL_Driver/Src/stm32f4xx_ll_usb.c ****     USBx_INEP(ep->num)->DIEPCTL &= ~USB_OTG_DIEPCTL_STALL;
 959:Drivers/STM32F4xx_HAL_Driver/Src/stm32f4xx_ll_usb.c ****     if (ep->type == EP_TYPE_INTR || ep->type == EP_TYPE_BULK)
 960:Drivers/STM32F4xx_HAL_Driver/Src/stm32f4xx_ll_usb.c ****     {
 961:Drivers/STM32F4xx_HAL_Driver/Src/stm32f4xx_ll_usb.c ****        USBx_INEP(ep->num)->DIEPCTL |= USB_OTG_DIEPCTL_SD0PID_SEVNFRM; /* DATA0 */
ARM GAS  /var/folders/7p/1_dhylqx7nl5s8914_0f_4w00000gn/T//ccJwiRQE.s 			page 53


 962:Drivers/STM32F4xx_HAL_Driver/Src/stm32f4xx_ll_usb.c ****     }    
 963:Drivers/STM32F4xx_HAL_Driver/Src/stm32f4xx_ll_usb.c ****   }
 964:Drivers/STM32F4xx_HAL_Driver/Src/stm32f4xx_ll_usb.c ****   else
 965:Drivers/STM32F4xx_HAL_Driver/Src/stm32f4xx_ll_usb.c ****   {
 966:Drivers/STM32F4xx_HAL_Driver/Src/stm32f4xx_ll_usb.c ****     USBx_OUTEP(ep->num)->DOEPCTL &= ~USB_OTG_DOEPCTL_STALL;
 1924              		.loc 1 966 0
 1925 0006 0B78     		ldrb	r3, [r1]	@ zero_extendqisi2
 1926 0008 00EB4313 		add	r3, r0, r3, lsl #5
 1927 000c D3F8002B 		ldr	r2, [r3, #2816]
 1928 0010 22F40012 		bic	r2, r2, #2097152
 1929 0014 C3F8002B 		str	r2, [r3, #2816]
 967:Drivers/STM32F4xx_HAL_Driver/Src/stm32f4xx_ll_usb.c ****     if (ep->type == EP_TYPE_INTR || ep->type == EP_TYPE_BULK)
 1930              		.loc 1 967 0
 1931 0018 CB78     		ldrb	r3, [r1, #3]	@ zero_extendqisi2
 1932 001a 023B     		subs	r3, r3, #2
 1933 001c DBB2     		uxtb	r3, r3
 1934 001e 012B     		cmp	r3, #1
 1935 0020 19D9     		bls	.L158
 1936              	.LVL147:
 1937              	.L156:
 968:Drivers/STM32F4xx_HAL_Driver/Src/stm32f4xx_ll_usb.c ****     {
 969:Drivers/STM32F4xx_HAL_Driver/Src/stm32f4xx_ll_usb.c ****       USBx_OUTEP(ep->num)->DOEPCTL |= USB_OTG_DOEPCTL_SD0PID_SEVNFRM; /* DATA0 */
 970:Drivers/STM32F4xx_HAL_Driver/Src/stm32f4xx_ll_usb.c ****     }    
 971:Drivers/STM32F4xx_HAL_Driver/Src/stm32f4xx_ll_usb.c ****   }
 972:Drivers/STM32F4xx_HAL_Driver/Src/stm32f4xx_ll_usb.c ****   return HAL_OK;
 973:Drivers/STM32F4xx_HAL_Driver/Src/stm32f4xx_ll_usb.c **** }
 1938              		.loc 1 973 0
 1939 0022 0020     		movs	r0, #0
 1940 0024 7047     		bx	lr
 1941              	.LVL148:
 1942              	.L157:
 958:Drivers/STM32F4xx_HAL_Driver/Src/stm32f4xx_ll_usb.c ****     if (ep->type == EP_TYPE_INTR || ep->type == EP_TYPE_BULK)
 1943              		.loc 1 958 0
 1944 0026 0B78     		ldrb	r3, [r1]	@ zero_extendqisi2
 1945 0028 00EB4313 		add	r3, r0, r3, lsl #5
 1946 002c D3F80029 		ldr	r2, [r3, #2304]
 1947 0030 22F40012 		bic	r2, r2, #2097152
 1948 0034 C3F80029 		str	r2, [r3, #2304]
 959:Drivers/STM32F4xx_HAL_Driver/Src/stm32f4xx_ll_usb.c ****     {
 1949              		.loc 1 959 0
 1950 0038 CB78     		ldrb	r3, [r1, #3]	@ zero_extendqisi2
 1951 003a 023B     		subs	r3, r3, #2
 1952 003c DBB2     		uxtb	r3, r3
 1953 003e 012B     		cmp	r3, #1
 1954 0040 EFD8     		bhi	.L156
 961:Drivers/STM32F4xx_HAL_Driver/Src/stm32f4xx_ll_usb.c ****     }    
 1955              		.loc 1 961 0
 1956 0042 0B78     		ldrb	r3, [r1]	@ zero_extendqisi2
 1957 0044 00EB4310 		add	r0, r0, r3, lsl #5
 1958              	.LVL149:
 1959 0048 D0F80039 		ldr	r3, [r0, #2304]
 1960 004c 43F08053 		orr	r3, r3, #268435456
 1961 0050 C0F80039 		str	r3, [r0, #2304]
 1962 0054 E5E7     		b	.L156
 1963              	.LVL150:
 1964              	.L158:
 969:Drivers/STM32F4xx_HAL_Driver/Src/stm32f4xx_ll_usb.c ****     }    
ARM GAS  /var/folders/7p/1_dhylqx7nl5s8914_0f_4w00000gn/T//ccJwiRQE.s 			page 54


 1965              		.loc 1 969 0
 1966 0056 0B78     		ldrb	r3, [r1]	@ zero_extendqisi2
 1967 0058 00EB4310 		add	r0, r0, r3, lsl #5
 1968              	.LVL151:
 1969 005c D0F8003B 		ldr	r3, [r0, #2816]
 1970 0060 43F08053 		orr	r3, r3, #268435456
 1971 0064 C0F8003B 		str	r3, [r0, #2816]
 1972 0068 DBE7     		b	.L156
 1973              		.cfi_endproc
 1974              	.LFE142:
 1976              		.section	.text.USB_StopDevice,"ax",%progbits
 1977              		.align	1
 1978              		.global	USB_StopDevice
 1979              		.syntax unified
 1980              		.thumb
 1981              		.thumb_func
 1982              		.fpu fpv4-sp-d16
 1984              	USB_StopDevice:
 1985              	.LFB143:
 974:Drivers/STM32F4xx_HAL_Driver/Src/stm32f4xx_ll_usb.c **** 
 975:Drivers/STM32F4xx_HAL_Driver/Src/stm32f4xx_ll_usb.c **** /**
 976:Drivers/STM32F4xx_HAL_Driver/Src/stm32f4xx_ll_usb.c ****   * @brief  USB_StopDevice : Stop the usb device mode
 977:Drivers/STM32F4xx_HAL_Driver/Src/stm32f4xx_ll_usb.c ****   * @param  USBx : Selected device
 978:Drivers/STM32F4xx_HAL_Driver/Src/stm32f4xx_ll_usb.c ****   * @retval HAL status
 979:Drivers/STM32F4xx_HAL_Driver/Src/stm32f4xx_ll_usb.c ****   */
 980:Drivers/STM32F4xx_HAL_Driver/Src/stm32f4xx_ll_usb.c **** HAL_StatusTypeDef USB_StopDevice(USB_OTG_GlobalTypeDef *USBx)
 981:Drivers/STM32F4xx_HAL_Driver/Src/stm32f4xx_ll_usb.c **** {
 1986              		.loc 1 981 0
 1987              		.cfi_startproc
 1988              		@ args = 0, pretend = 0, frame = 0
 1989              		@ frame_needed = 0, uses_anonymous_args = 0
 1990              	.LVL152:
 1991 0000 38B5     		push	{r3, r4, r5, lr}
 1992              	.LCFI30:
 1993              		.cfi_def_cfa_offset 16
 1994              		.cfi_offset 3, -16
 1995              		.cfi_offset 4, -12
 1996              		.cfi_offset 5, -8
 1997              		.cfi_offset 14, -4
 1998 0002 0446     		mov	r4, r0
 1999              	.LVL153:
 982:Drivers/STM32F4xx_HAL_Driver/Src/stm32f4xx_ll_usb.c ****   uint32_t i;
 983:Drivers/STM32F4xx_HAL_Driver/Src/stm32f4xx_ll_usb.c ****   
 984:Drivers/STM32F4xx_HAL_Driver/Src/stm32f4xx_ll_usb.c ****   /* Clear Pending interrupt */
 985:Drivers/STM32F4xx_HAL_Driver/Src/stm32f4xx_ll_usb.c ****   for (i = 0U; i < 15U ; i++)
 2000              		.loc 1 985 0
 2001 0004 0022     		movs	r2, #0
 2002 0006 07E0     		b	.L160
 2003              	.LVL154:
 2004              	.L161:
 986:Drivers/STM32F4xx_HAL_Driver/Src/stm32f4xx_ll_usb.c ****   {
 987:Drivers/STM32F4xx_HAL_Driver/Src/stm32f4xx_ll_usb.c ****     USBx_INEP(i)->DIEPINT  = 0xFFU;
 2005              		.loc 1 987 0 discriminator 3
 2006 0008 04EB4213 		add	r3, r4, r2, lsl #5
 2007 000c FF21     		movs	r1, #255
 2008 000e C3F80819 		str	r1, [r3, #2312]
 988:Drivers/STM32F4xx_HAL_Driver/Src/stm32f4xx_ll_usb.c ****     USBx_OUTEP(i)->DOEPINT  = 0xFFU;
ARM GAS  /var/folders/7p/1_dhylqx7nl5s8914_0f_4w00000gn/T//ccJwiRQE.s 			page 55


 2009              		.loc 1 988 0 discriminator 3
 2010 0012 C3F8081B 		str	r1, [r3, #2824]
 985:Drivers/STM32F4xx_HAL_Driver/Src/stm32f4xx_ll_usb.c ****   {
 2011              		.loc 1 985 0 discriminator 3
 2012 0016 0132     		adds	r2, r2, #1
 2013              	.LVL155:
 2014              	.L160:
 985:Drivers/STM32F4xx_HAL_Driver/Src/stm32f4xx_ll_usb.c ****   {
 2015              		.loc 1 985 0 is_stmt 0 discriminator 1
 2016 0018 0E2A     		cmp	r2, #14
 2017 001a F5D9     		bls	.L161
 989:Drivers/STM32F4xx_HAL_Driver/Src/stm32f4xx_ll_usb.c ****   }
 990:Drivers/STM32F4xx_HAL_Driver/Src/stm32f4xx_ll_usb.c ****   USBx_DEVICE->DAINT = 0xFFFFFFFFU;
 2018              		.loc 1 990 0 is_stmt 1
 2019 001c 4FF0FF32 		mov	r2, #-1
 2020              	.LVL156:
 2021 0020 C4F81828 		str	r2, [r4, #2072]
 991:Drivers/STM32F4xx_HAL_Driver/Src/stm32f4xx_ll_usb.c ****   
 992:Drivers/STM32F4xx_HAL_Driver/Src/stm32f4xx_ll_usb.c ****   /* Clear interrupt masks */
 993:Drivers/STM32F4xx_HAL_Driver/Src/stm32f4xx_ll_usb.c ****   USBx_DEVICE->DIEPMSK  = 0U;
 2022              		.loc 1 993 0
 2023 0024 0025     		movs	r5, #0
 2024 0026 C4F81058 		str	r5, [r4, #2064]
 994:Drivers/STM32F4xx_HAL_Driver/Src/stm32f4xx_ll_usb.c ****   USBx_DEVICE->DOEPMSK  = 0U;
 2025              		.loc 1 994 0
 2026 002a C4F81458 		str	r5, [r4, #2068]
 995:Drivers/STM32F4xx_HAL_Driver/Src/stm32f4xx_ll_usb.c ****   USBx_DEVICE->DAINTMSK = 0U;
 2027              		.loc 1 995 0
 2028 002e C4F81C58 		str	r5, [r4, #2076]
 996:Drivers/STM32F4xx_HAL_Driver/Src/stm32f4xx_ll_usb.c ****   
 997:Drivers/STM32F4xx_HAL_Driver/Src/stm32f4xx_ll_usb.c ****   /* Flush the FIFO */
 998:Drivers/STM32F4xx_HAL_Driver/Src/stm32f4xx_ll_usb.c ****   USB_FlushRxFifo(USBx);
 2029              		.loc 1 998 0
 2030 0032 2046     		mov	r0, r4
 2031              	.LVL157:
 2032 0034 FFF7FEFF 		bl	USB_FlushRxFifo
 2033              	.LVL158:
 999:Drivers/STM32F4xx_HAL_Driver/Src/stm32f4xx_ll_usb.c ****   USB_FlushTxFifo(USBx ,  0x10U);  
 2034              		.loc 1 999 0
 2035 0038 1021     		movs	r1, #16
 2036 003a 2046     		mov	r0, r4
 2037 003c FFF7FEFF 		bl	USB_FlushTxFifo
 2038              	.LVL159:
1000:Drivers/STM32F4xx_HAL_Driver/Src/stm32f4xx_ll_usb.c ****   
1001:Drivers/STM32F4xx_HAL_Driver/Src/stm32f4xx_ll_usb.c ****   return HAL_OK;
1002:Drivers/STM32F4xx_HAL_Driver/Src/stm32f4xx_ll_usb.c **** }
 2039              		.loc 1 1002 0
 2040 0040 2846     		mov	r0, r5
 2041 0042 38BD     		pop	{r3, r4, r5, pc}
 2042              		.cfi_endproc
 2043              	.LFE143:
 2045              		.section	.text.USB_SetDevAddress,"ax",%progbits
 2046              		.align	1
 2047              		.global	USB_SetDevAddress
 2048              		.syntax unified
 2049              		.thumb
 2050              		.thumb_func
ARM GAS  /var/folders/7p/1_dhylqx7nl5s8914_0f_4w00000gn/T//ccJwiRQE.s 			page 56


 2051              		.fpu fpv4-sp-d16
 2053              	USB_SetDevAddress:
 2054              	.LFB144:
1003:Drivers/STM32F4xx_HAL_Driver/Src/stm32f4xx_ll_usb.c **** 
1004:Drivers/STM32F4xx_HAL_Driver/Src/stm32f4xx_ll_usb.c **** /**
1005:Drivers/STM32F4xx_HAL_Driver/Src/stm32f4xx_ll_usb.c ****   * @brief  USB_SetDevAddress : Stop the usb device mode
1006:Drivers/STM32F4xx_HAL_Driver/Src/stm32f4xx_ll_usb.c ****   * @param  USBx : Selected device
1007:Drivers/STM32F4xx_HAL_Driver/Src/stm32f4xx_ll_usb.c ****   * @param  address : new device address to be assigned
1008:Drivers/STM32F4xx_HAL_Driver/Src/stm32f4xx_ll_usb.c ****   *          This parameter can be a value from 0 to 255
1009:Drivers/STM32F4xx_HAL_Driver/Src/stm32f4xx_ll_usb.c ****   * @retval HAL status
1010:Drivers/STM32F4xx_HAL_Driver/Src/stm32f4xx_ll_usb.c ****   */
1011:Drivers/STM32F4xx_HAL_Driver/Src/stm32f4xx_ll_usb.c **** HAL_StatusTypeDef  USB_SetDevAddress (USB_OTG_GlobalTypeDef *USBx, uint8_t address)
1012:Drivers/STM32F4xx_HAL_Driver/Src/stm32f4xx_ll_usb.c **** {
 2055              		.loc 1 1012 0
 2056              		.cfi_startproc
 2057              		@ args = 0, pretend = 0, frame = 0
 2058              		@ frame_needed = 0, uses_anonymous_args = 0
 2059              		@ link register save eliminated.
 2060              	.LVL160:
1013:Drivers/STM32F4xx_HAL_Driver/Src/stm32f4xx_ll_usb.c ****   USBx_DEVICE->DCFG &= ~ (USB_OTG_DCFG_DAD);
 2061              		.loc 1 1013 0
 2062 0000 D0F80038 		ldr	r3, [r0, #2048]
 2063 0004 23F4FE63 		bic	r3, r3, #2032
 2064 0008 C0F80038 		str	r3, [r0, #2048]
1014:Drivers/STM32F4xx_HAL_Driver/Src/stm32f4xx_ll_usb.c ****   USBx_DEVICE->DCFG |= (address << 4U) & USB_OTG_DCFG_DAD ;
 2065              		.loc 1 1014 0
 2066 000c D0F80038 		ldr	r3, [r0, #2048]
 2067 0010 0901     		lsls	r1, r1, #4
 2068              	.LVL161:
 2069 0012 01F4FE61 		and	r1, r1, #2032
 2070 0016 0B43     		orrs	r3, r3, r1
 2071 0018 C0F80038 		str	r3, [r0, #2048]
1015:Drivers/STM32F4xx_HAL_Driver/Src/stm32f4xx_ll_usb.c ****   
1016:Drivers/STM32F4xx_HAL_Driver/Src/stm32f4xx_ll_usb.c ****   return HAL_OK;  
1017:Drivers/STM32F4xx_HAL_Driver/Src/stm32f4xx_ll_usb.c **** }
 2072              		.loc 1 1017 0
 2073 001c 0020     		movs	r0, #0
 2074              	.LVL162:
 2075 001e 7047     		bx	lr
 2076              		.cfi_endproc
 2077              	.LFE144:
 2079              		.section	.text.USB_DevConnect,"ax",%progbits
 2080              		.align	1
 2081              		.global	USB_DevConnect
 2082              		.syntax unified
 2083              		.thumb
 2084              		.thumb_func
 2085              		.fpu fpv4-sp-d16
 2087              	USB_DevConnect:
 2088              	.LFB145:
1018:Drivers/STM32F4xx_HAL_Driver/Src/stm32f4xx_ll_usb.c **** 
1019:Drivers/STM32F4xx_HAL_Driver/Src/stm32f4xx_ll_usb.c **** /**
1020:Drivers/STM32F4xx_HAL_Driver/Src/stm32f4xx_ll_usb.c ****   * @brief  USB_DevConnect : Connect the USB device by enabling the pull-up/pull-down
1021:Drivers/STM32F4xx_HAL_Driver/Src/stm32f4xx_ll_usb.c ****   * @param  USBx : Selected device
1022:Drivers/STM32F4xx_HAL_Driver/Src/stm32f4xx_ll_usb.c ****   * @retval HAL status
1023:Drivers/STM32F4xx_HAL_Driver/Src/stm32f4xx_ll_usb.c ****   */
1024:Drivers/STM32F4xx_HAL_Driver/Src/stm32f4xx_ll_usb.c **** HAL_StatusTypeDef  USB_DevConnect (USB_OTG_GlobalTypeDef *USBx)
ARM GAS  /var/folders/7p/1_dhylqx7nl5s8914_0f_4w00000gn/T//ccJwiRQE.s 			page 57


1025:Drivers/STM32F4xx_HAL_Driver/Src/stm32f4xx_ll_usb.c **** {
 2089              		.loc 1 1025 0
 2090              		.cfi_startproc
 2091              		@ args = 0, pretend = 0, frame = 0
 2092              		@ frame_needed = 0, uses_anonymous_args = 0
 2093              	.LVL163:
 2094 0000 08B5     		push	{r3, lr}
 2095              	.LCFI31:
 2096              		.cfi_def_cfa_offset 8
 2097              		.cfi_offset 3, -8
 2098              		.cfi_offset 14, -4
1026:Drivers/STM32F4xx_HAL_Driver/Src/stm32f4xx_ll_usb.c ****   USBx_DEVICE->DCTL &= ~USB_OTG_DCTL_SDIS ;
 2099              		.loc 1 1026 0
 2100 0002 D0F80438 		ldr	r3, [r0, #2052]
 2101 0006 23F00203 		bic	r3, r3, #2
 2102 000a C0F80438 		str	r3, [r0, #2052]
1027:Drivers/STM32F4xx_HAL_Driver/Src/stm32f4xx_ll_usb.c ****   HAL_Delay(3U);
 2103              		.loc 1 1027 0
 2104 000e 0320     		movs	r0, #3
 2105              	.LVL164:
 2106 0010 FFF7FEFF 		bl	HAL_Delay
 2107              	.LVL165:
1028:Drivers/STM32F4xx_HAL_Driver/Src/stm32f4xx_ll_usb.c ****   
1029:Drivers/STM32F4xx_HAL_Driver/Src/stm32f4xx_ll_usb.c ****   return HAL_OK;  
1030:Drivers/STM32F4xx_HAL_Driver/Src/stm32f4xx_ll_usb.c **** }
 2108              		.loc 1 1030 0
 2109 0014 0020     		movs	r0, #0
 2110 0016 08BD     		pop	{r3, pc}
 2111              		.cfi_endproc
 2112              	.LFE145:
 2114              		.section	.text.USB_DevDisconnect,"ax",%progbits
 2115              		.align	1
 2116              		.global	USB_DevDisconnect
 2117              		.syntax unified
 2118              		.thumb
 2119              		.thumb_func
 2120              		.fpu fpv4-sp-d16
 2122              	USB_DevDisconnect:
 2123              	.LFB146:
1031:Drivers/STM32F4xx_HAL_Driver/Src/stm32f4xx_ll_usb.c **** 
1032:Drivers/STM32F4xx_HAL_Driver/Src/stm32f4xx_ll_usb.c **** /**
1033:Drivers/STM32F4xx_HAL_Driver/Src/stm32f4xx_ll_usb.c ****   * @brief  USB_DevDisconnect : Disconnect the USB device by disabling the pull-up/pull-down
1034:Drivers/STM32F4xx_HAL_Driver/Src/stm32f4xx_ll_usb.c ****   * @param  USBx : Selected device
1035:Drivers/STM32F4xx_HAL_Driver/Src/stm32f4xx_ll_usb.c ****   * @retval HAL status
1036:Drivers/STM32F4xx_HAL_Driver/Src/stm32f4xx_ll_usb.c ****   */
1037:Drivers/STM32F4xx_HAL_Driver/Src/stm32f4xx_ll_usb.c **** HAL_StatusTypeDef  USB_DevDisconnect (USB_OTG_GlobalTypeDef *USBx)
1038:Drivers/STM32F4xx_HAL_Driver/Src/stm32f4xx_ll_usb.c **** {
 2124              		.loc 1 1038 0
 2125              		.cfi_startproc
 2126              		@ args = 0, pretend = 0, frame = 0
 2127              		@ frame_needed = 0, uses_anonymous_args = 0
 2128              	.LVL166:
 2129 0000 08B5     		push	{r3, lr}
 2130              	.LCFI32:
 2131              		.cfi_def_cfa_offset 8
 2132              		.cfi_offset 3, -8
 2133              		.cfi_offset 14, -4
ARM GAS  /var/folders/7p/1_dhylqx7nl5s8914_0f_4w00000gn/T//ccJwiRQE.s 			page 58


1039:Drivers/STM32F4xx_HAL_Driver/Src/stm32f4xx_ll_usb.c ****   USBx_DEVICE->DCTL |= USB_OTG_DCTL_SDIS ;
 2134              		.loc 1 1039 0
 2135 0002 D0F80438 		ldr	r3, [r0, #2052]
 2136 0006 43F00203 		orr	r3, r3, #2
 2137 000a C0F80438 		str	r3, [r0, #2052]
1040:Drivers/STM32F4xx_HAL_Driver/Src/stm32f4xx_ll_usb.c ****   HAL_Delay(3U);
 2138              		.loc 1 1040 0
 2139 000e 0320     		movs	r0, #3
 2140              	.LVL167:
 2141 0010 FFF7FEFF 		bl	HAL_Delay
 2142              	.LVL168:
1041:Drivers/STM32F4xx_HAL_Driver/Src/stm32f4xx_ll_usb.c ****   
1042:Drivers/STM32F4xx_HAL_Driver/Src/stm32f4xx_ll_usb.c ****   return HAL_OK;  
1043:Drivers/STM32F4xx_HAL_Driver/Src/stm32f4xx_ll_usb.c **** }
 2143              		.loc 1 1043 0
 2144 0014 0020     		movs	r0, #0
 2145 0016 08BD     		pop	{r3, pc}
 2146              		.cfi_endproc
 2147              	.LFE146:
 2149              		.section	.text.USB_ReadInterrupts,"ax",%progbits
 2150              		.align	1
 2151              		.global	USB_ReadInterrupts
 2152              		.syntax unified
 2153              		.thumb
 2154              		.thumb_func
 2155              		.fpu fpv4-sp-d16
 2157              	USB_ReadInterrupts:
 2158              	.LFB147:
1044:Drivers/STM32F4xx_HAL_Driver/Src/stm32f4xx_ll_usb.c **** 
1045:Drivers/STM32F4xx_HAL_Driver/Src/stm32f4xx_ll_usb.c **** /**
1046:Drivers/STM32F4xx_HAL_Driver/Src/stm32f4xx_ll_usb.c ****   * @brief  USB_ReadInterrupts: return the global USB interrupt status
1047:Drivers/STM32F4xx_HAL_Driver/Src/stm32f4xx_ll_usb.c ****   * @param  USBx : Selected device
1048:Drivers/STM32F4xx_HAL_Driver/Src/stm32f4xx_ll_usb.c ****   * @retval HAL status
1049:Drivers/STM32F4xx_HAL_Driver/Src/stm32f4xx_ll_usb.c ****   */
1050:Drivers/STM32F4xx_HAL_Driver/Src/stm32f4xx_ll_usb.c **** uint32_t  USB_ReadInterrupts (USB_OTG_GlobalTypeDef *USBx)
1051:Drivers/STM32F4xx_HAL_Driver/Src/stm32f4xx_ll_usb.c **** {
 2159              		.loc 1 1051 0
 2160              		.cfi_startproc
 2161              		@ args = 0, pretend = 0, frame = 0
 2162              		@ frame_needed = 0, uses_anonymous_args = 0
 2163              		@ link register save eliminated.
 2164              	.LVL169:
1052:Drivers/STM32F4xx_HAL_Driver/Src/stm32f4xx_ll_usb.c ****   uint32_t v = 0U;
1053:Drivers/STM32F4xx_HAL_Driver/Src/stm32f4xx_ll_usb.c ****   
1054:Drivers/STM32F4xx_HAL_Driver/Src/stm32f4xx_ll_usb.c ****   v = USBx->GINTSTS;
 2165              		.loc 1 1054 0
 2166 0000 4269     		ldr	r2, [r0, #20]
 2167              	.LVL170:
1055:Drivers/STM32F4xx_HAL_Driver/Src/stm32f4xx_ll_usb.c ****   v &= USBx->GINTMSK;
 2168              		.loc 1 1055 0
 2169 0002 8069     		ldr	r0, [r0, #24]
 2170              	.LVL171:
1056:Drivers/STM32F4xx_HAL_Driver/Src/stm32f4xx_ll_usb.c ****   return v;  
1057:Drivers/STM32F4xx_HAL_Driver/Src/stm32f4xx_ll_usb.c **** }
 2171              		.loc 1 1057 0
 2172 0004 1040     		ands	r0, r0, r2
 2173              	.LVL172:
ARM GAS  /var/folders/7p/1_dhylqx7nl5s8914_0f_4w00000gn/T//ccJwiRQE.s 			page 59


 2174 0006 7047     		bx	lr
 2175              		.cfi_endproc
 2176              	.LFE147:
 2178              		.section	.text.USB_ReadDevAllOutEpInterrupt,"ax",%progbits
 2179              		.align	1
 2180              		.global	USB_ReadDevAllOutEpInterrupt
 2181              		.syntax unified
 2182              		.thumb
 2183              		.thumb_func
 2184              		.fpu fpv4-sp-d16
 2186              	USB_ReadDevAllOutEpInterrupt:
 2187              	.LFB148:
1058:Drivers/STM32F4xx_HAL_Driver/Src/stm32f4xx_ll_usb.c **** 
1059:Drivers/STM32F4xx_HAL_Driver/Src/stm32f4xx_ll_usb.c **** /**
1060:Drivers/STM32F4xx_HAL_Driver/Src/stm32f4xx_ll_usb.c ****   * @brief  USB_ReadDevAllOutEpInterrupt: return the USB device OUT endpoints interrupt status
1061:Drivers/STM32F4xx_HAL_Driver/Src/stm32f4xx_ll_usb.c ****   * @param  USBx : Selected device
1062:Drivers/STM32F4xx_HAL_Driver/Src/stm32f4xx_ll_usb.c ****   * @retval HAL status
1063:Drivers/STM32F4xx_HAL_Driver/Src/stm32f4xx_ll_usb.c ****   */
1064:Drivers/STM32F4xx_HAL_Driver/Src/stm32f4xx_ll_usb.c **** uint32_t USB_ReadDevAllOutEpInterrupt (USB_OTG_GlobalTypeDef *USBx)
1065:Drivers/STM32F4xx_HAL_Driver/Src/stm32f4xx_ll_usb.c **** {
 2188              		.loc 1 1065 0
 2189              		.cfi_startproc
 2190              		@ args = 0, pretend = 0, frame = 0
 2191              		@ frame_needed = 0, uses_anonymous_args = 0
 2192              		@ link register save eliminated.
 2193              	.LVL173:
1066:Drivers/STM32F4xx_HAL_Driver/Src/stm32f4xx_ll_usb.c ****   uint32_t v;
1067:Drivers/STM32F4xx_HAL_Driver/Src/stm32f4xx_ll_usb.c ****   v  = USBx_DEVICE->DAINT;
 2194              		.loc 1 1067 0
 2195 0000 D0F81838 		ldr	r3, [r0, #2072]
 2196 0004 00F50060 		add	r0, r0, #2048
 2197              	.LVL174:
1068:Drivers/STM32F4xx_HAL_Driver/Src/stm32f4xx_ll_usb.c ****   v &= USBx_DEVICE->DAINTMSK;
 2198              		.loc 1 1068 0
 2199 0008 C069     		ldr	r0, [r0, #28]
 2200              	.LVL175:
 2201 000a 1840     		ands	r0, r0, r3
 2202              	.LVL176:
1069:Drivers/STM32F4xx_HAL_Driver/Src/stm32f4xx_ll_usb.c ****   return ((v & 0xffff0000U) >> 16U);
1070:Drivers/STM32F4xx_HAL_Driver/Src/stm32f4xx_ll_usb.c **** }
 2203              		.loc 1 1070 0
 2204 000c 000C     		lsrs	r0, r0, #16
 2205              	.LVL177:
 2206 000e 7047     		bx	lr
 2207              		.cfi_endproc
 2208              	.LFE148:
 2210              		.section	.text.USB_ReadDevAllInEpInterrupt,"ax",%progbits
 2211              		.align	1
 2212              		.global	USB_ReadDevAllInEpInterrupt
 2213              		.syntax unified
 2214              		.thumb
 2215              		.thumb_func
 2216              		.fpu fpv4-sp-d16
 2218              	USB_ReadDevAllInEpInterrupt:
 2219              	.LFB149:
1071:Drivers/STM32F4xx_HAL_Driver/Src/stm32f4xx_ll_usb.c **** 
1072:Drivers/STM32F4xx_HAL_Driver/Src/stm32f4xx_ll_usb.c **** /**
ARM GAS  /var/folders/7p/1_dhylqx7nl5s8914_0f_4w00000gn/T//ccJwiRQE.s 			page 60


1073:Drivers/STM32F4xx_HAL_Driver/Src/stm32f4xx_ll_usb.c ****   * @brief  USB_ReadDevAllInEpInterrupt: return the USB device IN endpoints interrupt status
1074:Drivers/STM32F4xx_HAL_Driver/Src/stm32f4xx_ll_usb.c ****   * @param  USBx : Selected device
1075:Drivers/STM32F4xx_HAL_Driver/Src/stm32f4xx_ll_usb.c ****   * @retval HAL status
1076:Drivers/STM32F4xx_HAL_Driver/Src/stm32f4xx_ll_usb.c ****   */
1077:Drivers/STM32F4xx_HAL_Driver/Src/stm32f4xx_ll_usb.c **** uint32_t USB_ReadDevAllInEpInterrupt (USB_OTG_GlobalTypeDef *USBx)
1078:Drivers/STM32F4xx_HAL_Driver/Src/stm32f4xx_ll_usb.c **** {
 2220              		.loc 1 1078 0
 2221              		.cfi_startproc
 2222              		@ args = 0, pretend = 0, frame = 0
 2223              		@ frame_needed = 0, uses_anonymous_args = 0
 2224              		@ link register save eliminated.
 2225              	.LVL178:
1079:Drivers/STM32F4xx_HAL_Driver/Src/stm32f4xx_ll_usb.c ****   uint32_t v;
1080:Drivers/STM32F4xx_HAL_Driver/Src/stm32f4xx_ll_usb.c ****   v  = USBx_DEVICE->DAINT;
 2226              		.loc 1 1080 0
 2227 0000 D0F81838 		ldr	r3, [r0, #2072]
 2228 0004 00F50060 		add	r0, r0, #2048
 2229              	.LVL179:
1081:Drivers/STM32F4xx_HAL_Driver/Src/stm32f4xx_ll_usb.c ****   v &= USBx_DEVICE->DAINTMSK;
 2230              		.loc 1 1081 0
 2231 0008 C069     		ldr	r0, [r0, #28]
 2232              	.LVL180:
 2233 000a 1840     		ands	r0, r0, r3
 2234              	.LVL181:
1082:Drivers/STM32F4xx_HAL_Driver/Src/stm32f4xx_ll_usb.c ****   return ((v & 0xFFFFU));
1083:Drivers/STM32F4xx_HAL_Driver/Src/stm32f4xx_ll_usb.c **** }
 2235              		.loc 1 1083 0
 2236 000c 80B2     		uxth	r0, r0
 2237              	.LVL182:
 2238 000e 7047     		bx	lr
 2239              		.cfi_endproc
 2240              	.LFE149:
 2242              		.section	.text.USB_ReadDevOutEPInterrupt,"ax",%progbits
 2243              		.align	1
 2244              		.global	USB_ReadDevOutEPInterrupt
 2245              		.syntax unified
 2246              		.thumb
 2247              		.thumb_func
 2248              		.fpu fpv4-sp-d16
 2250              	USB_ReadDevOutEPInterrupt:
 2251              	.LFB150:
1084:Drivers/STM32F4xx_HAL_Driver/Src/stm32f4xx_ll_usb.c **** 
1085:Drivers/STM32F4xx_HAL_Driver/Src/stm32f4xx_ll_usb.c **** /**
1086:Drivers/STM32F4xx_HAL_Driver/Src/stm32f4xx_ll_usb.c ****   * @brief  Returns Device OUT EP Interrupt register
1087:Drivers/STM32F4xx_HAL_Driver/Src/stm32f4xx_ll_usb.c ****   * @param  USBx : Selected device
1088:Drivers/STM32F4xx_HAL_Driver/Src/stm32f4xx_ll_usb.c ****   * @param  epnum : endpoint number
1089:Drivers/STM32F4xx_HAL_Driver/Src/stm32f4xx_ll_usb.c ****   *          This parameter can be a value from 0 to 15
1090:Drivers/STM32F4xx_HAL_Driver/Src/stm32f4xx_ll_usb.c ****   * @retval Device OUT EP Interrupt register
1091:Drivers/STM32F4xx_HAL_Driver/Src/stm32f4xx_ll_usb.c ****   */
1092:Drivers/STM32F4xx_HAL_Driver/Src/stm32f4xx_ll_usb.c **** uint32_t USB_ReadDevOutEPInterrupt (USB_OTG_GlobalTypeDef *USBx , uint8_t epnum)
1093:Drivers/STM32F4xx_HAL_Driver/Src/stm32f4xx_ll_usb.c **** {
 2252              		.loc 1 1093 0
 2253              		.cfi_startproc
 2254              		@ args = 0, pretend = 0, frame = 0
 2255              		@ frame_needed = 0, uses_anonymous_args = 0
 2256              		@ link register save eliminated.
 2257              	.LVL183:
ARM GAS  /var/folders/7p/1_dhylqx7nl5s8914_0f_4w00000gn/T//ccJwiRQE.s 			page 61


1094:Drivers/STM32F4xx_HAL_Driver/Src/stm32f4xx_ll_usb.c ****   uint32_t v;
1095:Drivers/STM32F4xx_HAL_Driver/Src/stm32f4xx_ll_usb.c ****   v  = USBx_OUTEP(epnum)->DOEPINT;
 2258              		.loc 1 1095 0
 2259 0000 00EB4111 		add	r1, r0, r1, lsl #5
 2260              	.LVL184:
 2261 0004 D1F8082B 		ldr	r2, [r1, #2824]
 2262              	.LVL185:
1096:Drivers/STM32F4xx_HAL_Driver/Src/stm32f4xx_ll_usb.c ****   v &= USBx_DEVICE->DOEPMSK;
 2263              		.loc 1 1096 0
 2264 0008 00F50060 		add	r0, r0, #2048
 2265              	.LVL186:
 2266 000c 4069     		ldr	r0, [r0, #20]
 2267              	.LVL187:
1097:Drivers/STM32F4xx_HAL_Driver/Src/stm32f4xx_ll_usb.c ****   return v;
1098:Drivers/STM32F4xx_HAL_Driver/Src/stm32f4xx_ll_usb.c **** }
 2268              		.loc 1 1098 0
 2269 000e 1040     		ands	r0, r0, r2
 2270              	.LVL188:
 2271 0010 7047     		bx	lr
 2272              		.cfi_endproc
 2273              	.LFE150:
 2275              		.section	.text.USB_ReadDevInEPInterrupt,"ax",%progbits
 2276              		.align	1
 2277              		.global	USB_ReadDevInEPInterrupt
 2278              		.syntax unified
 2279              		.thumb
 2280              		.thumb_func
 2281              		.fpu fpv4-sp-d16
 2283              	USB_ReadDevInEPInterrupt:
 2284              	.LFB151:
1099:Drivers/STM32F4xx_HAL_Driver/Src/stm32f4xx_ll_usb.c **** 
1100:Drivers/STM32F4xx_HAL_Driver/Src/stm32f4xx_ll_usb.c **** /**
1101:Drivers/STM32F4xx_HAL_Driver/Src/stm32f4xx_ll_usb.c ****   * @brief  Returns Device IN EP Interrupt register
1102:Drivers/STM32F4xx_HAL_Driver/Src/stm32f4xx_ll_usb.c ****   * @param  USBx : Selected device
1103:Drivers/STM32F4xx_HAL_Driver/Src/stm32f4xx_ll_usb.c ****   * @param  epnum : endpoint number
1104:Drivers/STM32F4xx_HAL_Driver/Src/stm32f4xx_ll_usb.c ****   *          This parameter can be a value from 0 to 15
1105:Drivers/STM32F4xx_HAL_Driver/Src/stm32f4xx_ll_usb.c ****   * @retval Device IN EP Interrupt register
1106:Drivers/STM32F4xx_HAL_Driver/Src/stm32f4xx_ll_usb.c ****   */
1107:Drivers/STM32F4xx_HAL_Driver/Src/stm32f4xx_ll_usb.c **** uint32_t USB_ReadDevInEPInterrupt (USB_OTG_GlobalTypeDef *USBx , uint8_t epnum)
1108:Drivers/STM32F4xx_HAL_Driver/Src/stm32f4xx_ll_usb.c **** {
 2285              		.loc 1 1108 0
 2286              		.cfi_startproc
 2287              		@ args = 0, pretend = 0, frame = 0
 2288              		@ frame_needed = 0, uses_anonymous_args = 0
 2289              		@ link register save eliminated.
 2290              	.LVL189:
1109:Drivers/STM32F4xx_HAL_Driver/Src/stm32f4xx_ll_usb.c ****   uint32_t v, msk, emp;
1110:Drivers/STM32F4xx_HAL_Driver/Src/stm32f4xx_ll_usb.c ****   
1111:Drivers/STM32F4xx_HAL_Driver/Src/stm32f4xx_ll_usb.c ****   msk = USBx_DEVICE->DIEPMSK;
 2291              		.loc 1 1111 0
 2292 0000 D0F81028 		ldr	r2, [r0, #2064]
 2293              	.LVL190:
1112:Drivers/STM32F4xx_HAL_Driver/Src/stm32f4xx_ll_usb.c ****   emp = USBx_DEVICE->DIEPEMPMSK;
 2294              		.loc 1 1112 0
 2295 0004 D0F83438 		ldr	r3, [r0, #2100]
 2296              	.LVL191:
1113:Drivers/STM32F4xx_HAL_Driver/Src/stm32f4xx_ll_usb.c ****   msk |= ((emp >> epnum) & 0x1U) << 7U;
ARM GAS  /var/folders/7p/1_dhylqx7nl5s8914_0f_4w00000gn/T//ccJwiRQE.s 			page 62


 2297              		.loc 1 1113 0
 2298 0008 CB40     		lsrs	r3, r3, r1
 2299              	.LVL192:
 2300 000a DB01     		lsls	r3, r3, #7
 2301 000c DBB2     		uxtb	r3, r3
 2302 000e 1343     		orrs	r3, r3, r2
 2303              	.LVL193:
1114:Drivers/STM32F4xx_HAL_Driver/Src/stm32f4xx_ll_usb.c ****   v = USBx_INEP(epnum)->DIEPINT & msk;
 2304              		.loc 1 1114 0
 2305 0010 00EB4111 		add	r1, r0, r1, lsl #5
 2306              	.LVL194:
 2307 0014 D1F80809 		ldr	r0, [r1, #2312]
 2308              	.LVL195:
1115:Drivers/STM32F4xx_HAL_Driver/Src/stm32f4xx_ll_usb.c ****   return v;
1116:Drivers/STM32F4xx_HAL_Driver/Src/stm32f4xx_ll_usb.c **** }
 2309              		.loc 1 1116 0
 2310 0018 1840     		ands	r0, r0, r3
 2311              	.LVL196:
 2312 001a 7047     		bx	lr
 2313              		.cfi_endproc
 2314              	.LFE151:
 2316              		.section	.text.USB_ClearInterrupts,"ax",%progbits
 2317              		.align	1
 2318              		.global	USB_ClearInterrupts
 2319              		.syntax unified
 2320              		.thumb
 2321              		.thumb_func
 2322              		.fpu fpv4-sp-d16
 2324              	USB_ClearInterrupts:
 2325              	.LFB152:
1117:Drivers/STM32F4xx_HAL_Driver/Src/stm32f4xx_ll_usb.c **** 
1118:Drivers/STM32F4xx_HAL_Driver/Src/stm32f4xx_ll_usb.c **** /**
1119:Drivers/STM32F4xx_HAL_Driver/Src/stm32f4xx_ll_usb.c ****   * @brief  USB_ClearInterrupts: clear a USB interrupt
1120:Drivers/STM32F4xx_HAL_Driver/Src/stm32f4xx_ll_usb.c ****   * @param  USBx : Selected device
1121:Drivers/STM32F4xx_HAL_Driver/Src/stm32f4xx_ll_usb.c ****   * @param  interrupt : interrupt flag
1122:Drivers/STM32F4xx_HAL_Driver/Src/stm32f4xx_ll_usb.c ****   * @retval None
1123:Drivers/STM32F4xx_HAL_Driver/Src/stm32f4xx_ll_usb.c ****   */
1124:Drivers/STM32F4xx_HAL_Driver/Src/stm32f4xx_ll_usb.c **** void  USB_ClearInterrupts (USB_OTG_GlobalTypeDef *USBx, uint32_t interrupt)
1125:Drivers/STM32F4xx_HAL_Driver/Src/stm32f4xx_ll_usb.c **** {
 2326              		.loc 1 1125 0
 2327              		.cfi_startproc
 2328              		@ args = 0, pretend = 0, frame = 0
 2329              		@ frame_needed = 0, uses_anonymous_args = 0
 2330              		@ link register save eliminated.
 2331              	.LVL197:
1126:Drivers/STM32F4xx_HAL_Driver/Src/stm32f4xx_ll_usb.c ****   USBx->GINTSTS |= interrupt; 
 2332              		.loc 1 1126 0
 2333 0000 4369     		ldr	r3, [r0, #20]
 2334 0002 1943     		orrs	r1, r1, r3
 2335              	.LVL198:
 2336 0004 4161     		str	r1, [r0, #20]
 2337 0006 7047     		bx	lr
 2338              		.cfi_endproc
 2339              	.LFE152:
 2341              		.section	.text.USB_GetMode,"ax",%progbits
 2342              		.align	1
 2343              		.global	USB_GetMode
ARM GAS  /var/folders/7p/1_dhylqx7nl5s8914_0f_4w00000gn/T//ccJwiRQE.s 			page 63


 2344              		.syntax unified
 2345              		.thumb
 2346              		.thumb_func
 2347              		.fpu fpv4-sp-d16
 2349              	USB_GetMode:
 2350              	.LFB153:
1127:Drivers/STM32F4xx_HAL_Driver/Src/stm32f4xx_ll_usb.c **** }
1128:Drivers/STM32F4xx_HAL_Driver/Src/stm32f4xx_ll_usb.c **** 
1129:Drivers/STM32F4xx_HAL_Driver/Src/stm32f4xx_ll_usb.c **** /**
1130:Drivers/STM32F4xx_HAL_Driver/Src/stm32f4xx_ll_usb.c ****   * @brief  Returns USB core mode
1131:Drivers/STM32F4xx_HAL_Driver/Src/stm32f4xx_ll_usb.c ****   * @param  USBx : Selected device
1132:Drivers/STM32F4xx_HAL_Driver/Src/stm32f4xx_ll_usb.c ****   * @retval return core mode : Host or Device
1133:Drivers/STM32F4xx_HAL_Driver/Src/stm32f4xx_ll_usb.c ****   *          This parameter can be one of these values:
1134:Drivers/STM32F4xx_HAL_Driver/Src/stm32f4xx_ll_usb.c ****   *           0 : Host 
1135:Drivers/STM32F4xx_HAL_Driver/Src/stm32f4xx_ll_usb.c ****   *           1 : Device
1136:Drivers/STM32F4xx_HAL_Driver/Src/stm32f4xx_ll_usb.c ****   */
1137:Drivers/STM32F4xx_HAL_Driver/Src/stm32f4xx_ll_usb.c **** uint32_t USB_GetMode(USB_OTG_GlobalTypeDef *USBx)
1138:Drivers/STM32F4xx_HAL_Driver/Src/stm32f4xx_ll_usb.c **** {
 2351              		.loc 1 1138 0
 2352              		.cfi_startproc
 2353              		@ args = 0, pretend = 0, frame = 0
 2354              		@ frame_needed = 0, uses_anonymous_args = 0
 2355              		@ link register save eliminated.
 2356              	.LVL199:
1139:Drivers/STM32F4xx_HAL_Driver/Src/stm32f4xx_ll_usb.c ****   return ((USBx->GINTSTS ) & 0x1U);
 2357              		.loc 1 1139 0
 2358 0000 4069     		ldr	r0, [r0, #20]
 2359              	.LVL200:
1140:Drivers/STM32F4xx_HAL_Driver/Src/stm32f4xx_ll_usb.c **** }
 2360              		.loc 1 1140 0
 2361 0002 00F00100 		and	r0, r0, #1
 2362 0006 7047     		bx	lr
 2363              		.cfi_endproc
 2364              	.LFE153:
 2366              		.section	.text.USB_ActivateSetup,"ax",%progbits
 2367              		.align	1
 2368              		.global	USB_ActivateSetup
 2369              		.syntax unified
 2370              		.thumb
 2371              		.thumb_func
 2372              		.fpu fpv4-sp-d16
 2374              	USB_ActivateSetup:
 2375              	.LFB154:
1141:Drivers/STM32F4xx_HAL_Driver/Src/stm32f4xx_ll_usb.c **** 
1142:Drivers/STM32F4xx_HAL_Driver/Src/stm32f4xx_ll_usb.c **** 
1143:Drivers/STM32F4xx_HAL_Driver/Src/stm32f4xx_ll_usb.c **** /**
1144:Drivers/STM32F4xx_HAL_Driver/Src/stm32f4xx_ll_usb.c ****   * @brief  Activate EP0 for Setup transactions
1145:Drivers/STM32F4xx_HAL_Driver/Src/stm32f4xx_ll_usb.c ****   * @param  USBx : Selected device
1146:Drivers/STM32F4xx_HAL_Driver/Src/stm32f4xx_ll_usb.c ****   * @retval HAL status
1147:Drivers/STM32F4xx_HAL_Driver/Src/stm32f4xx_ll_usb.c ****   */
1148:Drivers/STM32F4xx_HAL_Driver/Src/stm32f4xx_ll_usb.c **** HAL_StatusTypeDef  USB_ActivateSetup (USB_OTG_GlobalTypeDef *USBx)
1149:Drivers/STM32F4xx_HAL_Driver/Src/stm32f4xx_ll_usb.c **** {
 2376              		.loc 1 1149 0
 2377              		.cfi_startproc
 2378              		@ args = 0, pretend = 0, frame = 0
 2379              		@ frame_needed = 0, uses_anonymous_args = 0
 2380              		@ link register save eliminated.
ARM GAS  /var/folders/7p/1_dhylqx7nl5s8914_0f_4w00000gn/T//ccJwiRQE.s 			page 64


 2381              	.LVL201:
1150:Drivers/STM32F4xx_HAL_Driver/Src/stm32f4xx_ll_usb.c ****   /* Set the MPS of the IN EP based on the enumeration speed */
1151:Drivers/STM32F4xx_HAL_Driver/Src/stm32f4xx_ll_usb.c ****   USBx_INEP(0U)->DIEPCTL &= ~USB_OTG_DIEPCTL_MPSIZ;
 2382              		.loc 1 1151 0
 2383 0000 D0F80039 		ldr	r3, [r0, #2304]
 2384 0004 23F4FF63 		bic	r3, r3, #2040
 2385 0008 23F00703 		bic	r3, r3, #7
 2386 000c C0F80039 		str	r3, [r0, #2304]
1152:Drivers/STM32F4xx_HAL_Driver/Src/stm32f4xx_ll_usb.c ****   
1153:Drivers/STM32F4xx_HAL_Driver/Src/stm32f4xx_ll_usb.c ****   if((USBx_DEVICE->DSTS & USB_OTG_DSTS_ENUMSPD) == DSTS_ENUMSPD_LS_PHY_6MHZ)
 2387              		.loc 1 1153 0
 2388 0010 00F50063 		add	r3, r0, #2048
 2389 0014 9A68     		ldr	r2, [r3, #8]
 2390 0016 02F00602 		and	r2, r2, #6
 2391 001a 042A     		cmp	r2, #4
 2392 001c 05D0     		beq	.L177
 2393              	.L176:
1154:Drivers/STM32F4xx_HAL_Driver/Src/stm32f4xx_ll_usb.c ****   {
1155:Drivers/STM32F4xx_HAL_Driver/Src/stm32f4xx_ll_usb.c ****     USBx_INEP(0U)->DIEPCTL |= 3U;
1156:Drivers/STM32F4xx_HAL_Driver/Src/stm32f4xx_ll_usb.c ****   }
1157:Drivers/STM32F4xx_HAL_Driver/Src/stm32f4xx_ll_usb.c ****   USBx_DEVICE->DCTL |= USB_OTG_DCTL_CGINAK;
 2394              		.loc 1 1157 0
 2395 001e 5A68     		ldr	r2, [r3, #4]
 2396 0020 42F48072 		orr	r2, r2, #256
 2397 0024 5A60     		str	r2, [r3, #4]
1158:Drivers/STM32F4xx_HAL_Driver/Src/stm32f4xx_ll_usb.c **** 
1159:Drivers/STM32F4xx_HAL_Driver/Src/stm32f4xx_ll_usb.c ****   return HAL_OK;
1160:Drivers/STM32F4xx_HAL_Driver/Src/stm32f4xx_ll_usb.c **** }
 2398              		.loc 1 1160 0
 2399 0026 0020     		movs	r0, #0
 2400              	.LVL202:
 2401 0028 7047     		bx	lr
 2402              	.LVL203:
 2403              	.L177:
1155:Drivers/STM32F4xx_HAL_Driver/Src/stm32f4xx_ll_usb.c ****   }
 2404              		.loc 1 1155 0
 2405 002a D0F80029 		ldr	r2, [r0, #2304]
 2406 002e 42F00302 		orr	r2, r2, #3
 2407 0032 C0F80029 		str	r2, [r0, #2304]
 2408 0036 F2E7     		b	.L176
 2409              		.cfi_endproc
 2410              	.LFE154:
 2412              		.section	.text.USB_EP0_OutStart,"ax",%progbits
 2413              		.align	1
 2414              		.global	USB_EP0_OutStart
 2415              		.syntax unified
 2416              		.thumb
 2417              		.thumb_func
 2418              		.fpu fpv4-sp-d16
 2420              	USB_EP0_OutStart:
 2421              	.LFB155:
1161:Drivers/STM32F4xx_HAL_Driver/Src/stm32f4xx_ll_usb.c **** 
1162:Drivers/STM32F4xx_HAL_Driver/Src/stm32f4xx_ll_usb.c **** 
1163:Drivers/STM32F4xx_HAL_Driver/Src/stm32f4xx_ll_usb.c **** /**
1164:Drivers/STM32F4xx_HAL_Driver/Src/stm32f4xx_ll_usb.c ****   * @brief  Prepare the EP0 to start the first control setup
1165:Drivers/STM32F4xx_HAL_Driver/Src/stm32f4xx_ll_usb.c ****   * @param  USBx : Selected device
1166:Drivers/STM32F4xx_HAL_Driver/Src/stm32f4xx_ll_usb.c ****   * @param  dma: USB dma enabled or disabled 
ARM GAS  /var/folders/7p/1_dhylqx7nl5s8914_0f_4w00000gn/T//ccJwiRQE.s 			page 65


1167:Drivers/STM32F4xx_HAL_Driver/Src/stm32f4xx_ll_usb.c ****   *          This parameter can be one of these values:
1168:Drivers/STM32F4xx_HAL_Driver/Src/stm32f4xx_ll_usb.c ****   *           0 : DMA feature not used 
1169:Drivers/STM32F4xx_HAL_Driver/Src/stm32f4xx_ll_usb.c ****   *           1 : DMA feature used  
1170:Drivers/STM32F4xx_HAL_Driver/Src/stm32f4xx_ll_usb.c ****   * @param  psetup : pointer to setup packet
1171:Drivers/STM32F4xx_HAL_Driver/Src/stm32f4xx_ll_usb.c ****   * @retval HAL status
1172:Drivers/STM32F4xx_HAL_Driver/Src/stm32f4xx_ll_usb.c ****   */
1173:Drivers/STM32F4xx_HAL_Driver/Src/stm32f4xx_ll_usb.c **** HAL_StatusTypeDef USB_EP0_OutStart(USB_OTG_GlobalTypeDef *USBx, uint8_t dma, uint8_t *psetup)
1174:Drivers/STM32F4xx_HAL_Driver/Src/stm32f4xx_ll_usb.c **** {
 2422              		.loc 1 1174 0
 2423              		.cfi_startproc
 2424              		@ args = 0, pretend = 0, frame = 0
 2425              		@ frame_needed = 0, uses_anonymous_args = 0
 2426              		@ link register save eliminated.
 2427              	.LVL204:
 2428 0000 10B4     		push	{r4}
 2429              	.LCFI33:
 2430              		.cfi_def_cfa_offset 4
 2431              		.cfi_offset 4, -4
1175:Drivers/STM32F4xx_HAL_Driver/Src/stm32f4xx_ll_usb.c ****   USBx_OUTEP(0U)->DOEPTSIZ = 0U;
 2432              		.loc 1 1175 0
 2433 0002 0024     		movs	r4, #0
 2434 0004 C0F8104B 		str	r4, [r0, #2832]
1176:Drivers/STM32F4xx_HAL_Driver/Src/stm32f4xx_ll_usb.c ****   USBx_OUTEP(0U)->DOEPTSIZ |= (USB_OTG_DOEPTSIZ_PKTCNT & (1U << 19U)) ;
 2435              		.loc 1 1176 0
 2436 0008 D0F8104B 		ldr	r4, [r0, #2832]
 2437 000c 44F40024 		orr	r4, r4, #524288
 2438 0010 C0F8104B 		str	r4, [r0, #2832]
1177:Drivers/STM32F4xx_HAL_Driver/Src/stm32f4xx_ll_usb.c ****   USBx_OUTEP(0U)->DOEPTSIZ |= (3U * 8U);
 2439              		.loc 1 1177 0
 2440 0014 D0F8104B 		ldr	r4, [r0, #2832]
 2441 0018 44F01804 		orr	r4, r4, #24
 2442 001c C0F8104B 		str	r4, [r0, #2832]
1178:Drivers/STM32F4xx_HAL_Driver/Src/stm32f4xx_ll_usb.c ****   USBx_OUTEP(0U)->DOEPTSIZ |=  USB_OTG_DOEPTSIZ_STUPCNT;  
 2443              		.loc 1 1178 0
 2444 0020 D0F8104B 		ldr	r4, [r0, #2832]
 2445 0024 44F0C044 		orr	r4, r4, #1610612736
 2446 0028 C0F8104B 		str	r4, [r0, #2832]
1179:Drivers/STM32F4xx_HAL_Driver/Src/stm32f4xx_ll_usb.c ****   
1180:Drivers/STM32F4xx_HAL_Driver/Src/stm32f4xx_ll_usb.c ****   if (dma == 1U)
 2447              		.loc 1 1180 0
 2448 002c 0129     		cmp	r1, #1
 2449 002e 03D0     		beq	.L181
 2450              	.L179:
1181:Drivers/STM32F4xx_HAL_Driver/Src/stm32f4xx_ll_usb.c ****   {
1182:Drivers/STM32F4xx_HAL_Driver/Src/stm32f4xx_ll_usb.c ****     USBx_OUTEP(0U)->DOEPDMA = (uint32_t)psetup;
1183:Drivers/STM32F4xx_HAL_Driver/Src/stm32f4xx_ll_usb.c ****     /* EP enable */
1184:Drivers/STM32F4xx_HAL_Driver/Src/stm32f4xx_ll_usb.c ****     USBx_OUTEP(0U)->DOEPCTL = 0x80008000U;
1185:Drivers/STM32F4xx_HAL_Driver/Src/stm32f4xx_ll_usb.c ****   }
1186:Drivers/STM32F4xx_HAL_Driver/Src/stm32f4xx_ll_usb.c ****   
1187:Drivers/STM32F4xx_HAL_Driver/Src/stm32f4xx_ll_usb.c ****   return HAL_OK;  
1188:Drivers/STM32F4xx_HAL_Driver/Src/stm32f4xx_ll_usb.c **** }
 2451              		.loc 1 1188 0
 2452 0030 0020     		movs	r0, #0
 2453              	.LVL205:
 2454 0032 5DF8044B 		ldr	r4, [sp], #4
 2455              	.LCFI34:
 2456              		.cfi_remember_state
ARM GAS  /var/folders/7p/1_dhylqx7nl5s8914_0f_4w00000gn/T//ccJwiRQE.s 			page 66


 2457              		.cfi_restore 4
 2458              		.cfi_def_cfa_offset 0
 2459 0036 7047     		bx	lr
 2460              	.LVL206:
 2461              	.L181:
 2462              	.LCFI35:
 2463              		.cfi_restore_state
1182:Drivers/STM32F4xx_HAL_Driver/Src/stm32f4xx_ll_usb.c ****     /* EP enable */
 2464              		.loc 1 1182 0
 2465 0038 C0F8142B 		str	r2, [r0, #2836]
1184:Drivers/STM32F4xx_HAL_Driver/Src/stm32f4xx_ll_usb.c ****   }
 2466              		.loc 1 1184 0
 2467 003c 4FF08023 		mov	r3, #-2147450880
 2468 0040 C0F8003B 		str	r3, [r0, #2816]
 2469 0044 F4E7     		b	.L179
 2470              		.cfi_endproc
 2471              	.LFE155:
 2473              		.section	.text.USB_CoreReset,"ax",%progbits
 2474              		.align	1
 2475              		.syntax unified
 2476              		.thumb
 2477              		.thumb_func
 2478              		.fpu fpv4-sp-d16
 2480              	USB_CoreReset:
 2481              	.LFB156:
1189:Drivers/STM32F4xx_HAL_Driver/Src/stm32f4xx_ll_usb.c **** 
1190:Drivers/STM32F4xx_HAL_Driver/Src/stm32f4xx_ll_usb.c **** 
1191:Drivers/STM32F4xx_HAL_Driver/Src/stm32f4xx_ll_usb.c **** /**
1192:Drivers/STM32F4xx_HAL_Driver/Src/stm32f4xx_ll_usb.c ****   * @brief  Reset the USB Core (needed after USB clock settings change)
1193:Drivers/STM32F4xx_HAL_Driver/Src/stm32f4xx_ll_usb.c ****   * @param  USBx : Selected device
1194:Drivers/STM32F4xx_HAL_Driver/Src/stm32f4xx_ll_usb.c ****   * @retval HAL status
1195:Drivers/STM32F4xx_HAL_Driver/Src/stm32f4xx_ll_usb.c ****   */
1196:Drivers/STM32F4xx_HAL_Driver/Src/stm32f4xx_ll_usb.c **** static HAL_StatusTypeDef USB_CoreReset(USB_OTG_GlobalTypeDef *USBx)
1197:Drivers/STM32F4xx_HAL_Driver/Src/stm32f4xx_ll_usb.c **** {
 2482              		.loc 1 1197 0
 2483              		.cfi_startproc
 2484              		@ args = 0, pretend = 0, frame = 0
 2485              		@ frame_needed = 0, uses_anonymous_args = 0
 2486              		@ link register save eliminated.
 2487              	.LVL207:
1198:Drivers/STM32F4xx_HAL_Driver/Src/stm32f4xx_ll_usb.c ****   uint32_t count = 0U;
 2488              		.loc 1 1198 0
 2489 0000 0023     		movs	r3, #0
 2490              	.LVL208:
 2491              	.L184:
1199:Drivers/STM32F4xx_HAL_Driver/Src/stm32f4xx_ll_usb.c **** 
1200:Drivers/STM32F4xx_HAL_Driver/Src/stm32f4xx_ll_usb.c ****   /* Wait for AHB master IDLE state. */
1201:Drivers/STM32F4xx_HAL_Driver/Src/stm32f4xx_ll_usb.c ****   do
1202:Drivers/STM32F4xx_HAL_Driver/Src/stm32f4xx_ll_usb.c ****   {
1203:Drivers/STM32F4xx_HAL_Driver/Src/stm32f4xx_ll_usb.c ****     if (++count > 200000U)
 2492              		.loc 1 1203 0
 2493 0002 0133     		adds	r3, r3, #1
 2494              	.LVL209:
 2495 0004 0C4A     		ldr	r2, .L188
 2496 0006 9342     		cmp	r3, r2
 2497 0008 11D8     		bhi	.L186
1204:Drivers/STM32F4xx_HAL_Driver/Src/stm32f4xx_ll_usb.c ****     {
ARM GAS  /var/folders/7p/1_dhylqx7nl5s8914_0f_4w00000gn/T//ccJwiRQE.s 			page 67


1205:Drivers/STM32F4xx_HAL_Driver/Src/stm32f4xx_ll_usb.c ****       return HAL_TIMEOUT;
1206:Drivers/STM32F4xx_HAL_Driver/Src/stm32f4xx_ll_usb.c ****     }
1207:Drivers/STM32F4xx_HAL_Driver/Src/stm32f4xx_ll_usb.c ****   }
1208:Drivers/STM32F4xx_HAL_Driver/Src/stm32f4xx_ll_usb.c ****   while ((USBx->GRSTCTL & USB_OTG_GRSTCTL_AHBIDL) == 0U);
 2498              		.loc 1 1208 0
 2499 000a 0269     		ldr	r2, [r0, #16]
 2500 000c 002A     		cmp	r2, #0
 2501 000e F8DA     		bge	.L184
 2502              	.LVL210:
1209:Drivers/STM32F4xx_HAL_Driver/Src/stm32f4xx_ll_usb.c ****   
1210:Drivers/STM32F4xx_HAL_Driver/Src/stm32f4xx_ll_usb.c ****   /* Core Soft Reset */
1211:Drivers/STM32F4xx_HAL_Driver/Src/stm32f4xx_ll_usb.c ****   count = 0U;
1212:Drivers/STM32F4xx_HAL_Driver/Src/stm32f4xx_ll_usb.c ****   USBx->GRSTCTL |= USB_OTG_GRSTCTL_CSRST;
 2503              		.loc 1 1212 0
 2504 0010 0369     		ldr	r3, [r0, #16]
 2505 0012 43F00103 		orr	r3, r3, #1
 2506 0016 0361     		str	r3, [r0, #16]
1211:Drivers/STM32F4xx_HAL_Driver/Src/stm32f4xx_ll_usb.c ****   USBx->GRSTCTL |= USB_OTG_GRSTCTL_CSRST;
 2507              		.loc 1 1211 0
 2508 0018 0023     		movs	r3, #0
 2509              	.LVL211:
 2510              	.L185:
1213:Drivers/STM32F4xx_HAL_Driver/Src/stm32f4xx_ll_usb.c **** 
1214:Drivers/STM32F4xx_HAL_Driver/Src/stm32f4xx_ll_usb.c ****   do
1215:Drivers/STM32F4xx_HAL_Driver/Src/stm32f4xx_ll_usb.c ****   {
1216:Drivers/STM32F4xx_HAL_Driver/Src/stm32f4xx_ll_usb.c ****     if (++count > 200000U)
 2511              		.loc 1 1216 0
 2512 001a 0133     		adds	r3, r3, #1
 2513              	.LVL212:
 2514 001c 064A     		ldr	r2, .L188
 2515 001e 9342     		cmp	r3, r2
 2516 0020 07D8     		bhi	.L187
1217:Drivers/STM32F4xx_HAL_Driver/Src/stm32f4xx_ll_usb.c ****     {
1218:Drivers/STM32F4xx_HAL_Driver/Src/stm32f4xx_ll_usb.c ****       return HAL_TIMEOUT;
1219:Drivers/STM32F4xx_HAL_Driver/Src/stm32f4xx_ll_usb.c ****     }
1220:Drivers/STM32F4xx_HAL_Driver/Src/stm32f4xx_ll_usb.c ****   }
1221:Drivers/STM32F4xx_HAL_Driver/Src/stm32f4xx_ll_usb.c ****   while ((USBx->GRSTCTL & USB_OTG_GRSTCTL_CSRST) == USB_OTG_GRSTCTL_CSRST);
 2517              		.loc 1 1221 0
 2518 0022 0269     		ldr	r2, [r0, #16]
 2519 0024 12F0010F 		tst	r2, #1
 2520 0028 F7D1     		bne	.L185
1222:Drivers/STM32F4xx_HAL_Driver/Src/stm32f4xx_ll_usb.c ****   
1223:Drivers/STM32F4xx_HAL_Driver/Src/stm32f4xx_ll_usb.c ****   return HAL_OK;
 2521              		.loc 1 1223 0
 2522 002a 0020     		movs	r0, #0
 2523              	.LVL213:
 2524 002c 7047     		bx	lr
 2525              	.LVL214:
 2526              	.L186:
1205:Drivers/STM32F4xx_HAL_Driver/Src/stm32f4xx_ll_usb.c ****     }
 2527              		.loc 1 1205 0
 2528 002e 0320     		movs	r0, #3
 2529              	.LVL215:
 2530 0030 7047     		bx	lr
 2531              	.LVL216:
 2532              	.L187:
1218:Drivers/STM32F4xx_HAL_Driver/Src/stm32f4xx_ll_usb.c ****     }
ARM GAS  /var/folders/7p/1_dhylqx7nl5s8914_0f_4w00000gn/T//ccJwiRQE.s 			page 68


 2533              		.loc 1 1218 0
 2534 0032 0320     		movs	r0, #3
 2535              	.LVL217:
1224:Drivers/STM32F4xx_HAL_Driver/Src/stm32f4xx_ll_usb.c **** }
 2536              		.loc 1 1224 0
 2537 0034 7047     		bx	lr
 2538              	.L189:
 2539 0036 00BF     		.align	2
 2540              	.L188:
 2541 0038 400D0300 		.word	200000
 2542              		.cfi_endproc
 2543              	.LFE156:
 2545              		.section	.text.USB_HostInit,"ax",%progbits
 2546              		.align	1
 2547              		.global	USB_HostInit
 2548              		.syntax unified
 2549              		.thumb
 2550              		.thumb_func
 2551              		.fpu fpv4-sp-d16
 2553              	USB_HostInit:
 2554              	.LFB157:
1225:Drivers/STM32F4xx_HAL_Driver/Src/stm32f4xx_ll_usb.c **** 
1226:Drivers/STM32F4xx_HAL_Driver/Src/stm32f4xx_ll_usb.c **** 
1227:Drivers/STM32F4xx_HAL_Driver/Src/stm32f4xx_ll_usb.c **** /**
1228:Drivers/STM32F4xx_HAL_Driver/Src/stm32f4xx_ll_usb.c ****   * @brief  USB_HostInit : Initializes the USB OTG controller registers 
1229:Drivers/STM32F4xx_HAL_Driver/Src/stm32f4xx_ll_usb.c ****   *         for Host mode 
1230:Drivers/STM32F4xx_HAL_Driver/Src/stm32f4xx_ll_usb.c ****   * @param  USBx : Selected device
1231:Drivers/STM32F4xx_HAL_Driver/Src/stm32f4xx_ll_usb.c ****   * @param  cfg  : pointer to a USB_OTG_CfgTypeDef structure that contains
1232:Drivers/STM32F4xx_HAL_Driver/Src/stm32f4xx_ll_usb.c ****   *         the configuration information for the specified USBx peripheral.
1233:Drivers/STM32F4xx_HAL_Driver/Src/stm32f4xx_ll_usb.c ****   * @retval HAL status
1234:Drivers/STM32F4xx_HAL_Driver/Src/stm32f4xx_ll_usb.c ****   */
1235:Drivers/STM32F4xx_HAL_Driver/Src/stm32f4xx_ll_usb.c **** HAL_StatusTypeDef USB_HostInit (USB_OTG_GlobalTypeDef *USBx, USB_OTG_CfgTypeDef cfg)
1236:Drivers/STM32F4xx_HAL_Driver/Src/stm32f4xx_ll_usb.c **** {
 2555              		.loc 1 1236 0
 2556              		.cfi_startproc
 2557              		@ args = 56, pretend = 16, frame = 0
 2558              		@ frame_needed = 0, uses_anonymous_args = 0
 2559              	.LVL218:
 2560 0000 84B0     		sub	sp, sp, #16
 2561              	.LCFI36:
 2562              		.cfi_def_cfa_offset 16
 2563 0002 38B5     		push	{r3, r4, r5, lr}
 2564              	.LCFI37:
 2565              		.cfi_def_cfa_offset 32
 2566              		.cfi_offset 3, -32
 2567              		.cfi_offset 4, -28
 2568              		.cfi_offset 5, -24
 2569              		.cfi_offset 14, -20
 2570 0004 0446     		mov	r4, r0
 2571 0006 05A8     		add	r0, sp, #20
 2572              	.LVL219:
 2573 0008 80E80E00 		stm	r0, {r1, r2, r3}
1237:Drivers/STM32F4xx_HAL_Driver/Src/stm32f4xx_ll_usb.c ****   uint32_t i;
1238:Drivers/STM32F4xx_HAL_Driver/Src/stm32f4xx_ll_usb.c ****   
1239:Drivers/STM32F4xx_HAL_Driver/Src/stm32f4xx_ll_usb.c ****   /* Restart the Phy Clock */
1240:Drivers/STM32F4xx_HAL_Driver/Src/stm32f4xx_ll_usb.c ****   USBx_PCGCCTL = 0U;
 2574              		.loc 1 1240 0
ARM GAS  /var/folders/7p/1_dhylqx7nl5s8914_0f_4w00000gn/T//ccJwiRQE.s 			page 69


 2575 000c 2546     		mov	r5, r4
 2576 000e 0023     		movs	r3, #0
 2577 0010 C4F8003E 		str	r3, [r4, #3584]
1241:Drivers/STM32F4xx_HAL_Driver/Src/stm32f4xx_ll_usb.c ****   
1242:Drivers/STM32F4xx_HAL_Driver/Src/stm32f4xx_ll_usb.c ****   /* Activate VBUS Sensing B */
1243:Drivers/STM32F4xx_HAL_Driver/Src/stm32f4xx_ll_usb.c **** #if defined(STM32F446xx) || defined(STM32F469xx) || defined(STM32F479xx) || defined(STM32F412Zx) ||
1244:Drivers/STM32F4xx_HAL_Driver/Src/stm32f4xx_ll_usb.c ****     defined(STM32F412Rx) || defined(STM32F412Cx) || defined(STM32F413xx) || defined(STM32F423xx)
1245:Drivers/STM32F4xx_HAL_Driver/Src/stm32f4xx_ll_usb.c ****   USBx->GCCFG |= USB_OTG_GCCFG_VBDEN;
1246:Drivers/STM32F4xx_HAL_Driver/Src/stm32f4xx_ll_usb.c **** #else
1247:Drivers/STM32F4xx_HAL_Driver/Src/stm32f4xx_ll_usb.c ****   USBx->GCCFG &=~ (USB_OTG_GCCFG_VBUSASEN);
 2578              		.loc 1 1247 0
 2579 0014 A36B     		ldr	r3, [r4, #56]
 2580 0016 23F48023 		bic	r3, r3, #262144
 2581 001a A363     		str	r3, [r4, #56]
1248:Drivers/STM32F4xx_HAL_Driver/Src/stm32f4xx_ll_usb.c ****   USBx->GCCFG &=~ (USB_OTG_GCCFG_VBUSBSEN);
 2582              		.loc 1 1248 0
 2583 001c A36B     		ldr	r3, [r4, #56]
 2584 001e 23F40023 		bic	r3, r3, #524288
 2585 0022 A363     		str	r3, [r4, #56]
1249:Drivers/STM32F4xx_HAL_Driver/Src/stm32f4xx_ll_usb.c ****   USBx->GCCFG |= USB_OTG_GCCFG_NOVBUSSENS;
 2586              		.loc 1 1249 0
 2587 0024 A36B     		ldr	r3, [r4, #56]
 2588 0026 43F40013 		orr	r3, r3, #2097152
 2589 002a A363     		str	r3, [r4, #56]
1250:Drivers/STM32F4xx_HAL_Driver/Src/stm32f4xx_ll_usb.c **** #endif /* STM32F446xx || STM32F469xx || STM32F479xx || STM32F412Zx || STM32F412Rx || STM32F412Vx ||
1251:Drivers/STM32F4xx_HAL_Driver/Src/stm32f4xx_ll_usb.c **** 
1252:Drivers/STM32F4xx_HAL_Driver/Src/stm32f4xx_ll_usb.c ****   /* Disable the FS/LS support mode only */
1253:Drivers/STM32F4xx_HAL_Driver/Src/stm32f4xx_ll_usb.c ****   if((cfg.speed == USB_OTG_SPEED_FULL)&&
 2590              		.loc 1 1253 0
 2591 002c 079B     		ldr	r3, [sp, #28]
 2592 002e 032B     		cmp	r3, #3
 2593 0030 0ED0     		beq	.L199
 2594              	.L191:
1254:Drivers/STM32F4xx_HAL_Driver/Src/stm32f4xx_ll_usb.c ****      (USBx != USB_OTG_FS))
1255:Drivers/STM32F4xx_HAL_Driver/Src/stm32f4xx_ll_usb.c ****   {
1256:Drivers/STM32F4xx_HAL_Driver/Src/stm32f4xx_ll_usb.c ****     USBx_HOST->HCFG |= USB_OTG_HCFG_FSLSS; 
1257:Drivers/STM32F4xx_HAL_Driver/Src/stm32f4xx_ll_usb.c ****   }
1258:Drivers/STM32F4xx_HAL_Driver/Src/stm32f4xx_ll_usb.c ****   else
1259:Drivers/STM32F4xx_HAL_Driver/Src/stm32f4xx_ll_usb.c ****   {
1260:Drivers/STM32F4xx_HAL_Driver/Src/stm32f4xx_ll_usb.c ****     USBx_HOST->HCFG &= ~(USB_OTG_HCFG_FSLSS);  
 2595              		.loc 1 1260 0
 2596 0032 D4F80034 		ldr	r3, [r4, #1024]
 2597 0036 23F00403 		bic	r3, r3, #4
 2598 003a C4F80034 		str	r3, [r4, #1024]
 2599              	.L192:
1261:Drivers/STM32F4xx_HAL_Driver/Src/stm32f4xx_ll_usb.c ****   }
1262:Drivers/STM32F4xx_HAL_Driver/Src/stm32f4xx_ll_usb.c **** 
1263:Drivers/STM32F4xx_HAL_Driver/Src/stm32f4xx_ll_usb.c ****   /* Make sure the FIFOs are flushed. */
1264:Drivers/STM32F4xx_HAL_Driver/Src/stm32f4xx_ll_usb.c ****   USB_FlushTxFifo(USBx, 0x10U); /* all Tx FIFOs */
 2600              		.loc 1 1264 0
 2601 003e 1021     		movs	r1, #16
 2602 0040 2046     		mov	r0, r4
 2603 0042 FFF7FEFF 		bl	USB_FlushTxFifo
 2604              	.LVL220:
1265:Drivers/STM32F4xx_HAL_Driver/Src/stm32f4xx_ll_usb.c ****   USB_FlushRxFifo(USBx);
 2605              		.loc 1 1265 0
 2606 0046 2046     		mov	r0, r4
ARM GAS  /var/folders/7p/1_dhylqx7nl5s8914_0f_4w00000gn/T//ccJwiRQE.s 			page 70


 2607 0048 FFF7FEFF 		bl	USB_FlushRxFifo
 2608              	.LVL221:
1266:Drivers/STM32F4xx_HAL_Driver/Src/stm32f4xx_ll_usb.c **** 
1267:Drivers/STM32F4xx_HAL_Driver/Src/stm32f4xx_ll_usb.c ****   /* Clear all pending HC Interrupts */
1268:Drivers/STM32F4xx_HAL_Driver/Src/stm32f4xx_ll_usb.c ****   for (i = 0U; i < cfg.Host_channels; i++)
 2609              		.loc 1 1268 0
 2610 004c 0022     		movs	r2, #0
 2611 004e 13E0     		b	.L193
 2612              	.LVL222:
 2613              	.L199:
1253:Drivers/STM32F4xx_HAL_Driver/Src/stm32f4xx_ll_usb.c ****      (USBx != USB_OTG_FS))
 2614              		.loc 1 1253 0 discriminator 1
 2615 0050 B4F1A04F 		cmp	r4, #1342177280
 2616 0054 EDD0     		beq	.L191
1256:Drivers/STM32F4xx_HAL_Driver/Src/stm32f4xx_ll_usb.c ****   }
 2617              		.loc 1 1256 0
 2618 0056 D4F80034 		ldr	r3, [r4, #1024]
 2619 005a 43F00403 		orr	r3, r3, #4
 2620 005e C4F80034 		str	r3, [r4, #1024]
 2621 0062 ECE7     		b	.L192
 2622              	.LVL223:
 2623              	.L194:
1269:Drivers/STM32F4xx_HAL_Driver/Src/stm32f4xx_ll_usb.c ****   {
1270:Drivers/STM32F4xx_HAL_Driver/Src/stm32f4xx_ll_usb.c ****     USBx_HC(i)->HCINT = 0xFFFFFFFFU;
 2624              		.loc 1 1270 0 discriminator 3
 2625 0064 05EB4213 		add	r3, r5, r2, lsl #5
 2626 0068 4FF0FF31 		mov	r1, #-1
 2627 006c C3F80815 		str	r1, [r3, #1288]
1271:Drivers/STM32F4xx_HAL_Driver/Src/stm32f4xx_ll_usb.c ****     USBx_HC(i)->HCINTMSK = 0U;
 2628              		.loc 1 1271 0 discriminator 3
 2629 0070 0021     		movs	r1, #0
 2630 0072 C3F80C15 		str	r1, [r3, #1292]
1268:Drivers/STM32F4xx_HAL_Driver/Src/stm32f4xx_ll_usb.c ****   {
 2631              		.loc 1 1268 0 discriminator 3
 2632 0076 0132     		adds	r2, r2, #1
 2633              	.LVL224:
 2634              	.L193:
1268:Drivers/STM32F4xx_HAL_Driver/Src/stm32f4xx_ll_usb.c ****   {
 2635              		.loc 1 1268 0 is_stmt 0 discriminator 1
 2636 0078 069B     		ldr	r3, [sp, #24]
 2637 007a 9A42     		cmp	r2, r3
 2638 007c F2D3     		bcc	.L194
1272:Drivers/STM32F4xx_HAL_Driver/Src/stm32f4xx_ll_usb.c ****   }
1273:Drivers/STM32F4xx_HAL_Driver/Src/stm32f4xx_ll_usb.c ****   
1274:Drivers/STM32F4xx_HAL_Driver/Src/stm32f4xx_ll_usb.c ****   /* Enable VBUS driving */
1275:Drivers/STM32F4xx_HAL_Driver/Src/stm32f4xx_ll_usb.c ****   USB_DriveVbus(USBx, 1U);
 2639              		.loc 1 1275 0 is_stmt 1
 2640 007e 0121     		movs	r1, #1
 2641 0080 2046     		mov	r0, r4
 2642 0082 FFF7FEFF 		bl	USB_DriveVbus
 2643              	.LVL225:
1276:Drivers/STM32F4xx_HAL_Driver/Src/stm32f4xx_ll_usb.c ****   
1277:Drivers/STM32F4xx_HAL_Driver/Src/stm32f4xx_ll_usb.c ****   HAL_Delay(200U);
 2644              		.loc 1 1277 0
 2645 0086 C820     		movs	r0, #200
 2646 0088 FFF7FEFF 		bl	HAL_Delay
 2647              	.LVL226:
ARM GAS  /var/folders/7p/1_dhylqx7nl5s8914_0f_4w00000gn/T//ccJwiRQE.s 			page 71


1278:Drivers/STM32F4xx_HAL_Driver/Src/stm32f4xx_ll_usb.c ****   
1279:Drivers/STM32F4xx_HAL_Driver/Src/stm32f4xx_ll_usb.c ****   /* Disable all interrupts. */
1280:Drivers/STM32F4xx_HAL_Driver/Src/stm32f4xx_ll_usb.c ****   USBx->GINTMSK = 0U;
 2648              		.loc 1 1280 0
 2649 008c 0023     		movs	r3, #0
 2650 008e A361     		str	r3, [r4, #24]
1281:Drivers/STM32F4xx_HAL_Driver/Src/stm32f4xx_ll_usb.c ****   
1282:Drivers/STM32F4xx_HAL_Driver/Src/stm32f4xx_ll_usb.c ****   /* Clear any pending interrupts */
1283:Drivers/STM32F4xx_HAL_Driver/Src/stm32f4xx_ll_usb.c ****   USBx->GINTSTS = 0xFFFFFFFFU;
 2651              		.loc 1 1283 0
 2652 0090 4FF0FF33 		mov	r3, #-1
 2653 0094 6361     		str	r3, [r4, #20]
1284:Drivers/STM32F4xx_HAL_Driver/Src/stm32f4xx_ll_usb.c ****   
1285:Drivers/STM32F4xx_HAL_Driver/Src/stm32f4xx_ll_usb.c ****   if(USBx == USB_OTG_FS)
 2654              		.loc 1 1285 0
 2655 0096 B4F1A04F 		cmp	r4, #1342177280
 2656 009a 17D0     		beq	.L200
1286:Drivers/STM32F4xx_HAL_Driver/Src/stm32f4xx_ll_usb.c ****   {
1287:Drivers/STM32F4xx_HAL_Driver/Src/stm32f4xx_ll_usb.c ****     /* set Rx FIFO size */
1288:Drivers/STM32F4xx_HAL_Driver/Src/stm32f4xx_ll_usb.c ****     USBx->GRXFSIZ  = 0x80U; 
1289:Drivers/STM32F4xx_HAL_Driver/Src/stm32f4xx_ll_usb.c ****     USBx->DIEPTXF0_HNPTXFSIZ = (uint32_t )(((0x60U << 16U)& USB_OTG_NPTXFD) | 0x80U);
1290:Drivers/STM32F4xx_HAL_Driver/Src/stm32f4xx_ll_usb.c ****     USBx->HPTXFSIZ = (uint32_t )(((0x40U << 16U)& USB_OTG_HPTXFSIZ_PTXFD) | 0xE0U);
1291:Drivers/STM32F4xx_HAL_Driver/Src/stm32f4xx_ll_usb.c ****   }
1292:Drivers/STM32F4xx_HAL_Driver/Src/stm32f4xx_ll_usb.c ****   else
1293:Drivers/STM32F4xx_HAL_Driver/Src/stm32f4xx_ll_usb.c ****   {
1294:Drivers/STM32F4xx_HAL_Driver/Src/stm32f4xx_ll_usb.c ****     /* set Rx FIFO size */
1295:Drivers/STM32F4xx_HAL_Driver/Src/stm32f4xx_ll_usb.c ****     USBx->GRXFSIZ  = 0x200U; 
 2657              		.loc 1 1295 0
 2658 009c 4FF40073 		mov	r3, #512
 2659 00a0 6362     		str	r3, [r4, #36]
1296:Drivers/STM32F4xx_HAL_Driver/Src/stm32f4xx_ll_usb.c ****     USBx->DIEPTXF0_HNPTXFSIZ = (uint32_t )(((0x100U << 16U)& USB_OTG_NPTXFD) | 0x200U);
 2660              		.loc 1 1296 0
 2661 00a2 03F18073 		add	r3, r3, #16777216
 2662 00a6 A362     		str	r3, [r4, #40]
1297:Drivers/STM32F4xx_HAL_Driver/Src/stm32f4xx_ll_usb.c ****     USBx->HPTXFSIZ = (uint32_t )(((0xE0U << 16U)& USB_OTG_HPTXFSIZ_PTXFD) | 0x300U);
 2663              		.loc 1 1297 0
 2664 00a8 0D4B     		ldr	r3, .L201
 2665 00aa C4F80031 		str	r3, [r4, #256]
 2666              	.L196:
1298:Drivers/STM32F4xx_HAL_Driver/Src/stm32f4xx_ll_usb.c ****   }
1299:Drivers/STM32F4xx_HAL_Driver/Src/stm32f4xx_ll_usb.c ****   
1300:Drivers/STM32F4xx_HAL_Driver/Src/stm32f4xx_ll_usb.c ****   /* Enable the common interrupts */
1301:Drivers/STM32F4xx_HAL_Driver/Src/stm32f4xx_ll_usb.c ****   if (cfg.dma_enable == DISABLE)
 2667              		.loc 1 1301 0
 2668 00ae 089B     		ldr	r3, [sp, #32]
 2669 00b0 1BB9     		cbnz	r3, .L197
1302:Drivers/STM32F4xx_HAL_Driver/Src/stm32f4xx_ll_usb.c ****   {
1303:Drivers/STM32F4xx_HAL_Driver/Src/stm32f4xx_ll_usb.c ****     USBx->GINTMSK |= USB_OTG_GINTMSK_RXFLVLM; 
 2670              		.loc 1 1303 0
 2671 00b2 A369     		ldr	r3, [r4, #24]
 2672 00b4 43F01003 		orr	r3, r3, #16
 2673 00b8 A361     		str	r3, [r4, #24]
 2674              	.L197:
1304:Drivers/STM32F4xx_HAL_Driver/Src/stm32f4xx_ll_usb.c ****   }
1305:Drivers/STM32F4xx_HAL_Driver/Src/stm32f4xx_ll_usb.c ****   
1306:Drivers/STM32F4xx_HAL_Driver/Src/stm32f4xx_ll_usb.c ****   /* Enable interrupts matching to the Host mode ONLY */
1307:Drivers/STM32F4xx_HAL_Driver/Src/stm32f4xx_ll_usb.c ****   USBx->GINTMSK |= (USB_OTG_GINTMSK_PRTIM            | USB_OTG_GINTMSK_HCIM |\
ARM GAS  /var/folders/7p/1_dhylqx7nl5s8914_0f_4w00000gn/T//ccJwiRQE.s 			page 72


 2675              		.loc 1 1307 0
 2676 00ba A269     		ldr	r2, [r4, #24]
 2677 00bc 094B     		ldr	r3, .L201+4
 2678 00be 1343     		orrs	r3, r3, r2
 2679 00c0 A361     		str	r3, [r4, #24]
1308:Drivers/STM32F4xx_HAL_Driver/Src/stm32f4xx_ll_usb.c ****                     USB_OTG_GINTMSK_SOFM             |USB_OTG_GINTSTS_DISCINT|\
1309:Drivers/STM32F4xx_HAL_Driver/Src/stm32f4xx_ll_usb.c ****                     USB_OTG_GINTMSK_PXFRM_IISOOXFRM  | USB_OTG_GINTMSK_WUIM);
1310:Drivers/STM32F4xx_HAL_Driver/Src/stm32f4xx_ll_usb.c **** 
1311:Drivers/STM32F4xx_HAL_Driver/Src/stm32f4xx_ll_usb.c ****   return HAL_OK;
1312:Drivers/STM32F4xx_HAL_Driver/Src/stm32f4xx_ll_usb.c **** }
 2680              		.loc 1 1312 0
 2681 00c2 0020     		movs	r0, #0
 2682 00c4 BDE83840 		pop	{r3, r4, r5, lr}
 2683              	.LCFI38:
 2684              		.cfi_remember_state
 2685              		.cfi_restore 14
 2686              		.cfi_restore 5
 2687              		.cfi_restore 4
 2688              		.cfi_restore 3
 2689              		.cfi_def_cfa_offset 16
 2690              	.LVL227:
 2691 00c8 04B0     		add	sp, sp, #16
 2692              	.LCFI39:
 2693              		.cfi_def_cfa_offset 0
 2694 00ca 7047     		bx	lr
 2695              	.LVL228:
 2696              	.L200:
 2697              	.LCFI40:
 2698              		.cfi_restore_state
1288:Drivers/STM32F4xx_HAL_Driver/Src/stm32f4xx_ll_usb.c ****     USBx->DIEPTXF0_HNPTXFSIZ = (uint32_t )(((0x60U << 16U)& USB_OTG_NPTXFD) | 0x80U);
 2699              		.loc 1 1288 0
 2700 00cc 8023     		movs	r3, #128
 2701 00ce 6362     		str	r3, [r4, #36]
1289:Drivers/STM32F4xx_HAL_Driver/Src/stm32f4xx_ll_usb.c ****     USBx->HPTXFSIZ = (uint32_t )(((0x40U << 16U)& USB_OTG_HPTXFSIZ_PTXFD) | 0xE0U);
 2702              		.loc 1 1289 0
 2703 00d0 03F5C003 		add	r3, r3, #6291456
 2704 00d4 A362     		str	r3, [r4, #40]
1290:Drivers/STM32F4xx_HAL_Driver/Src/stm32f4xx_ll_usb.c ****   }
 2705              		.loc 1 1290 0
 2706 00d6 044B     		ldr	r3, .L201+8
 2707 00d8 C4F80031 		str	r3, [r4, #256]
 2708 00dc E7E7     		b	.L196
 2709              	.L202:
 2710 00de 00BF     		.align	2
 2711              	.L201:
 2712 00e0 0003E000 		.word	14680832
 2713 00e4 080020A3 		.word	-1558183928
 2714 00e8 E0004000 		.word	4194528
 2715              		.cfi_endproc
 2716              	.LFE157:
 2718              		.section	.text.USB_InitFSLSPClkSel,"ax",%progbits
 2719              		.align	1
 2720              		.global	USB_InitFSLSPClkSel
 2721              		.syntax unified
 2722              		.thumb
 2723              		.thumb_func
 2724              		.fpu fpv4-sp-d16
ARM GAS  /var/folders/7p/1_dhylqx7nl5s8914_0f_4w00000gn/T//ccJwiRQE.s 			page 73


 2726              	USB_InitFSLSPClkSel:
 2727              	.LFB158:
1313:Drivers/STM32F4xx_HAL_Driver/Src/stm32f4xx_ll_usb.c **** 
1314:Drivers/STM32F4xx_HAL_Driver/Src/stm32f4xx_ll_usb.c **** /**
1315:Drivers/STM32F4xx_HAL_Driver/Src/stm32f4xx_ll_usb.c ****   * @brief  USB_InitFSLSPClkSel : Initializes the FSLSPClkSel field of the 
1316:Drivers/STM32F4xx_HAL_Driver/Src/stm32f4xx_ll_usb.c ****   *         HCFG register on the PHY type and set the right frame interval
1317:Drivers/STM32F4xx_HAL_Driver/Src/stm32f4xx_ll_usb.c ****   * @param  USBx : Selected device
1318:Drivers/STM32F4xx_HAL_Driver/Src/stm32f4xx_ll_usb.c ****   * @param  freq : clock frequency
1319:Drivers/STM32F4xx_HAL_Driver/Src/stm32f4xx_ll_usb.c ****   *          This parameter can be one of these values:
1320:Drivers/STM32F4xx_HAL_Driver/Src/stm32f4xx_ll_usb.c ****   *           HCFG_48_MHZ : Full Speed 48 MHz Clock 
1321:Drivers/STM32F4xx_HAL_Driver/Src/stm32f4xx_ll_usb.c ****   *           HCFG_6_MHZ : Low Speed 6 MHz Clock 
1322:Drivers/STM32F4xx_HAL_Driver/Src/stm32f4xx_ll_usb.c ****   * @retval HAL status
1323:Drivers/STM32F4xx_HAL_Driver/Src/stm32f4xx_ll_usb.c ****   */
1324:Drivers/STM32F4xx_HAL_Driver/Src/stm32f4xx_ll_usb.c **** HAL_StatusTypeDef USB_InitFSLSPClkSel(USB_OTG_GlobalTypeDef *USBx , uint8_t freq)
1325:Drivers/STM32F4xx_HAL_Driver/Src/stm32f4xx_ll_usb.c **** {
 2728              		.loc 1 1325 0
 2729              		.cfi_startproc
 2730              		@ args = 0, pretend = 0, frame = 0
 2731              		@ frame_needed = 0, uses_anonymous_args = 0
 2732              		@ link register save eliminated.
 2733              	.LVL229:
 2734 0000 10B4     		push	{r4}
 2735              	.LCFI41:
 2736              		.cfi_def_cfa_offset 4
 2737              		.cfi_offset 4, -4
1326:Drivers/STM32F4xx_HAL_Driver/Src/stm32f4xx_ll_usb.c ****   USBx_HOST->HCFG &= ~(USB_OTG_HCFG_FSLSPCS);
 2738              		.loc 1 1326 0
 2739 0002 00F58064 		add	r4, r0, #1024
 2740 0006 D0F80034 		ldr	r3, [r0, #1024]
 2741 000a 23F00303 		bic	r3, r3, #3
 2742 000e C0F80034 		str	r3, [r0, #1024]
1327:Drivers/STM32F4xx_HAL_Driver/Src/stm32f4xx_ll_usb.c ****   USBx_HOST->HCFG |= (freq & USB_OTG_HCFG_FSLSPCS);
 2743              		.loc 1 1327 0
 2744 0012 D0F80034 		ldr	r3, [r0, #1024]
 2745 0016 01F00302 		and	r2, r1, #3
 2746 001a 1343     		orrs	r3, r3, r2
 2747 001c C0F80034 		str	r3, [r0, #1024]
1328:Drivers/STM32F4xx_HAL_Driver/Src/stm32f4xx_ll_usb.c ****   
1329:Drivers/STM32F4xx_HAL_Driver/Src/stm32f4xx_ll_usb.c ****   if (freq ==  HCFG_48_MHZ)
 2748              		.loc 1 1329 0
 2749 0020 0129     		cmp	r1, #1
 2750 0022 05D0     		beq	.L207
1330:Drivers/STM32F4xx_HAL_Driver/Src/stm32f4xx_ll_usb.c ****   {
1331:Drivers/STM32F4xx_HAL_Driver/Src/stm32f4xx_ll_usb.c ****     USBx_HOST->HFIR = 48000U;
1332:Drivers/STM32F4xx_HAL_Driver/Src/stm32f4xx_ll_usb.c ****   }
1333:Drivers/STM32F4xx_HAL_Driver/Src/stm32f4xx_ll_usb.c ****   else if (freq ==  HCFG_6_MHZ)
 2751              		.loc 1 1333 0
 2752 0024 0229     		cmp	r1, #2
 2753 0026 07D0     		beq	.L208
 2754              	.L205:
1334:Drivers/STM32F4xx_HAL_Driver/Src/stm32f4xx_ll_usb.c ****   {
1335:Drivers/STM32F4xx_HAL_Driver/Src/stm32f4xx_ll_usb.c ****     USBx_HOST->HFIR = 6000U;
1336:Drivers/STM32F4xx_HAL_Driver/Src/stm32f4xx_ll_usb.c ****   } 
1337:Drivers/STM32F4xx_HAL_Driver/Src/stm32f4xx_ll_usb.c ****   return HAL_OK;  
1338:Drivers/STM32F4xx_HAL_Driver/Src/stm32f4xx_ll_usb.c **** }
 2755              		.loc 1 1338 0
 2756 0028 0020     		movs	r0, #0
ARM GAS  /var/folders/7p/1_dhylqx7nl5s8914_0f_4w00000gn/T//ccJwiRQE.s 			page 74


 2757              	.LVL230:
 2758 002a 5DF8044B 		ldr	r4, [sp], #4
 2759              	.LCFI42:
 2760              		.cfi_remember_state
 2761              		.cfi_restore 4
 2762              		.cfi_def_cfa_offset 0
 2763              	.LVL231:
 2764 002e 7047     		bx	lr
 2765              	.LVL232:
 2766              	.L207:
 2767              	.LCFI43:
 2768              		.cfi_restore_state
1331:Drivers/STM32F4xx_HAL_Driver/Src/stm32f4xx_ll_usb.c ****   }
 2769              		.loc 1 1331 0
 2770 0030 4BF68033 		movw	r3, #48000
 2771 0034 6360     		str	r3, [r4, #4]
 2772 0036 F7E7     		b	.L205
 2773              	.L208:
1335:Drivers/STM32F4xx_HAL_Driver/Src/stm32f4xx_ll_usb.c ****   } 
 2774              		.loc 1 1335 0
 2775 0038 41F27073 		movw	r3, #6000
 2776 003c 6360     		str	r3, [r4, #4]
 2777 003e F3E7     		b	.L205
 2778              		.cfi_endproc
 2779              	.LFE158:
 2781              		.section	.text.USB_ResetPort,"ax",%progbits
 2782              		.align	1
 2783              		.global	USB_ResetPort
 2784              		.syntax unified
 2785              		.thumb
 2786              		.thumb_func
 2787              		.fpu fpv4-sp-d16
 2789              	USB_ResetPort:
 2790              	.LFB159:
1339:Drivers/STM32F4xx_HAL_Driver/Src/stm32f4xx_ll_usb.c **** 
1340:Drivers/STM32F4xx_HAL_Driver/Src/stm32f4xx_ll_usb.c **** /**
1341:Drivers/STM32F4xx_HAL_Driver/Src/stm32f4xx_ll_usb.c **** * @brief  USB_OTG_ResetPort : Reset Host Port
1342:Drivers/STM32F4xx_HAL_Driver/Src/stm32f4xx_ll_usb.c ****   * @param  USBx : Selected device
1343:Drivers/STM32F4xx_HAL_Driver/Src/stm32f4xx_ll_usb.c ****   * @retval HAL status
1344:Drivers/STM32F4xx_HAL_Driver/Src/stm32f4xx_ll_usb.c ****   * @note   (1)The application must wait at least 10 ms
1345:Drivers/STM32F4xx_HAL_Driver/Src/stm32f4xx_ll_usb.c ****   *   before clearing the reset bit.
1346:Drivers/STM32F4xx_HAL_Driver/Src/stm32f4xx_ll_usb.c ****   */
1347:Drivers/STM32F4xx_HAL_Driver/Src/stm32f4xx_ll_usb.c **** HAL_StatusTypeDef USB_ResetPort(USB_OTG_GlobalTypeDef *USBx)
1348:Drivers/STM32F4xx_HAL_Driver/Src/stm32f4xx_ll_usb.c **** {
 2791              		.loc 1 1348 0
 2792              		.cfi_startproc
 2793              		@ args = 0, pretend = 0, frame = 8
 2794              		@ frame_needed = 0, uses_anonymous_args = 0
 2795              	.LVL233:
 2796 0000 10B5     		push	{r4, lr}
 2797              	.LCFI44:
 2798              		.cfi_def_cfa_offset 8
 2799              		.cfi_offset 4, -8
 2800              		.cfi_offset 14, -4
 2801 0002 82B0     		sub	sp, sp, #8
 2802              	.LCFI45:
 2803              		.cfi_def_cfa_offset 16
ARM GAS  /var/folders/7p/1_dhylqx7nl5s8914_0f_4w00000gn/T//ccJwiRQE.s 			page 75


 2804 0004 0446     		mov	r4, r0
1349:Drivers/STM32F4xx_HAL_Driver/Src/stm32f4xx_ll_usb.c ****   __IO uint32_t hprt0;
1350:Drivers/STM32F4xx_HAL_Driver/Src/stm32f4xx_ll_usb.c ****   
1351:Drivers/STM32F4xx_HAL_Driver/Src/stm32f4xx_ll_usb.c ****   hprt0 = USBx_HPRT0;
 2805              		.loc 1 1351 0
 2806 0006 D0F84034 		ldr	r3, [r0, #1088]
 2807 000a 0193     		str	r3, [sp, #4]
1352:Drivers/STM32F4xx_HAL_Driver/Src/stm32f4xx_ll_usb.c ****   
1353:Drivers/STM32F4xx_HAL_Driver/Src/stm32f4xx_ll_usb.c ****   hprt0 &= ~(USB_OTG_HPRT_PENA    | USB_OTG_HPRT_PCDET |\
 2808              		.loc 1 1353 0
 2809 000c 019B     		ldr	r3, [sp, #4]
 2810 000e 23F02E03 		bic	r3, r3, #46
 2811 0012 0193     		str	r3, [sp, #4]
1354:Drivers/STM32F4xx_HAL_Driver/Src/stm32f4xx_ll_usb.c ****     USB_OTG_HPRT_PENCHNG | USB_OTG_HPRT_POCCHNG );
1355:Drivers/STM32F4xx_HAL_Driver/Src/stm32f4xx_ll_usb.c ****   
1356:Drivers/STM32F4xx_HAL_Driver/Src/stm32f4xx_ll_usb.c ****   USBx_HPRT0 = (USB_OTG_HPRT_PRST | hprt0);  
 2812              		.loc 1 1356 0
 2813 0014 019B     		ldr	r3, [sp, #4]
 2814 0016 43F48073 		orr	r3, r3, #256
 2815 001a C0F84034 		str	r3, [r0, #1088]
1357:Drivers/STM32F4xx_HAL_Driver/Src/stm32f4xx_ll_usb.c ****   HAL_Delay (10U);                                /* See Note #1 */
 2816              		.loc 1 1357 0
 2817 001e 0A20     		movs	r0, #10
 2818              	.LVL234:
 2819 0020 FFF7FEFF 		bl	HAL_Delay
 2820              	.LVL235:
1358:Drivers/STM32F4xx_HAL_Driver/Src/stm32f4xx_ll_usb.c ****   USBx_HPRT0 = ((~USB_OTG_HPRT_PRST) & hprt0); 
 2821              		.loc 1 1358 0
 2822 0024 019B     		ldr	r3, [sp, #4]
 2823 0026 23F48073 		bic	r3, r3, #256
 2824 002a C4F84034 		str	r3, [r4, #1088]
1359:Drivers/STM32F4xx_HAL_Driver/Src/stm32f4xx_ll_usb.c ****   return HAL_OK;
1360:Drivers/STM32F4xx_HAL_Driver/Src/stm32f4xx_ll_usb.c **** }
 2825              		.loc 1 1360 0
 2826 002e 0020     		movs	r0, #0
 2827 0030 02B0     		add	sp, sp, #8
 2828              	.LCFI46:
 2829              		.cfi_def_cfa_offset 8
 2830              		@ sp needed
 2831 0032 10BD     		pop	{r4, pc}
 2832              		.cfi_endproc
 2833              	.LFE159:
 2835              		.section	.text.USB_DriveVbus,"ax",%progbits
 2836              		.align	1
 2837              		.global	USB_DriveVbus
 2838              		.syntax unified
 2839              		.thumb
 2840              		.thumb_func
 2841              		.fpu fpv4-sp-d16
 2843              	USB_DriveVbus:
 2844              	.LFB160:
1361:Drivers/STM32F4xx_HAL_Driver/Src/stm32f4xx_ll_usb.c **** 
1362:Drivers/STM32F4xx_HAL_Driver/Src/stm32f4xx_ll_usb.c **** /**
1363:Drivers/STM32F4xx_HAL_Driver/Src/stm32f4xx_ll_usb.c ****   * @brief  USB_DriveVbus : activate or de-activate vbus
1364:Drivers/STM32F4xx_HAL_Driver/Src/stm32f4xx_ll_usb.c ****   * @param  state : VBUS state
1365:Drivers/STM32F4xx_HAL_Driver/Src/stm32f4xx_ll_usb.c ****   *          This parameter can be one of these values:
1366:Drivers/STM32F4xx_HAL_Driver/Src/stm32f4xx_ll_usb.c ****   *           0 : VBUS Active 
ARM GAS  /var/folders/7p/1_dhylqx7nl5s8914_0f_4w00000gn/T//ccJwiRQE.s 			page 76


1367:Drivers/STM32F4xx_HAL_Driver/Src/stm32f4xx_ll_usb.c ****   *           1 : VBUS Inactive
1368:Drivers/STM32F4xx_HAL_Driver/Src/stm32f4xx_ll_usb.c ****   * @retval HAL status
1369:Drivers/STM32F4xx_HAL_Driver/Src/stm32f4xx_ll_usb.c **** */
1370:Drivers/STM32F4xx_HAL_Driver/Src/stm32f4xx_ll_usb.c **** HAL_StatusTypeDef USB_DriveVbus (USB_OTG_GlobalTypeDef *USBx, uint8_t state)
1371:Drivers/STM32F4xx_HAL_Driver/Src/stm32f4xx_ll_usb.c **** {
 2845              		.loc 1 1371 0
 2846              		.cfi_startproc
 2847              		@ args = 0, pretend = 0, frame = 8
 2848              		@ frame_needed = 0, uses_anonymous_args = 0
 2849              		@ link register save eliminated.
 2850              	.LVL236:
 2851 0000 82B0     		sub	sp, sp, #8
 2852              	.LCFI47:
 2853              		.cfi_def_cfa_offset 8
1372:Drivers/STM32F4xx_HAL_Driver/Src/stm32f4xx_ll_usb.c ****   __IO uint32_t hprt0;
1373:Drivers/STM32F4xx_HAL_Driver/Src/stm32f4xx_ll_usb.c **** 
1374:Drivers/STM32F4xx_HAL_Driver/Src/stm32f4xx_ll_usb.c ****   hprt0 = USBx_HPRT0;
 2854              		.loc 1 1374 0
 2855 0002 D0F84034 		ldr	r3, [r0, #1088]
 2856 0006 0193     		str	r3, [sp, #4]
1375:Drivers/STM32F4xx_HAL_Driver/Src/stm32f4xx_ll_usb.c ****   hprt0 &= ~(USB_OTG_HPRT_PENA    | USB_OTG_HPRT_PCDET |\
 2857              		.loc 1 1375 0
 2858 0008 019B     		ldr	r3, [sp, #4]
 2859 000a 23F02E03 		bic	r3, r3, #46
 2860 000e 0193     		str	r3, [sp, #4]
1376:Drivers/STM32F4xx_HAL_Driver/Src/stm32f4xx_ll_usb.c ****                          USB_OTG_HPRT_PENCHNG | USB_OTG_HPRT_POCCHNG );
1377:Drivers/STM32F4xx_HAL_Driver/Src/stm32f4xx_ll_usb.c ****   
1378:Drivers/STM32F4xx_HAL_Driver/Src/stm32f4xx_ll_usb.c ****   if (((hprt0 & USB_OTG_HPRT_PPWR) == 0U) && (state == 1U))
 2861              		.loc 1 1378 0
 2862 0010 019B     		ldr	r3, [sp, #4]
 2863 0012 13F4805F 		tst	r3, #4096
 2864 0016 01D1     		bne	.L212
 2865              		.loc 1 1378 0 is_stmt 0 discriminator 1
 2866 0018 0129     		cmp	r1, #1
 2867 001a 0CD0     		beq	.L215
 2868              	.L212:
1379:Drivers/STM32F4xx_HAL_Driver/Src/stm32f4xx_ll_usb.c ****   {
1380:Drivers/STM32F4xx_HAL_Driver/Src/stm32f4xx_ll_usb.c ****     USBx_HPRT0 = (USB_OTG_HPRT_PPWR | hprt0); 
1381:Drivers/STM32F4xx_HAL_Driver/Src/stm32f4xx_ll_usb.c ****   }
1382:Drivers/STM32F4xx_HAL_Driver/Src/stm32f4xx_ll_usb.c ****   if (((hprt0 & USB_OTG_HPRT_PPWR) == USB_OTG_HPRT_PPWR) && (state == 0U))
 2869              		.loc 1 1382 0 is_stmt 1
 2870 001c 019B     		ldr	r3, [sp, #4]
 2871 001e 13F4805F 		tst	r3, #4096
 2872 0022 05D0     		beq	.L213
 2873              		.loc 1 1382 0 is_stmt 0 discriminator 1
 2874 0024 21B9     		cbnz	r1, .L213
1383:Drivers/STM32F4xx_HAL_Driver/Src/stm32f4xx_ll_usb.c ****   {
1384:Drivers/STM32F4xx_HAL_Driver/Src/stm32f4xx_ll_usb.c ****     USBx_HPRT0 = ((~USB_OTG_HPRT_PPWR) & hprt0); 
 2875              		.loc 1 1384 0 is_stmt 1
 2876 0026 019B     		ldr	r3, [sp, #4]
 2877 0028 23F48053 		bic	r3, r3, #4096
 2878 002c C0F84034 		str	r3, [r0, #1088]
 2879              	.L213:
1385:Drivers/STM32F4xx_HAL_Driver/Src/stm32f4xx_ll_usb.c ****   }
1386:Drivers/STM32F4xx_HAL_Driver/Src/stm32f4xx_ll_usb.c ****   return HAL_OK; 
1387:Drivers/STM32F4xx_HAL_Driver/Src/stm32f4xx_ll_usb.c **** }
 2880              		.loc 1 1387 0
ARM GAS  /var/folders/7p/1_dhylqx7nl5s8914_0f_4w00000gn/T//ccJwiRQE.s 			page 77


 2881 0030 0020     		movs	r0, #0
 2882              	.LVL237:
 2883 0032 02B0     		add	sp, sp, #8
 2884              	.LCFI48:
 2885              		.cfi_remember_state
 2886              		.cfi_def_cfa_offset 0
 2887              		@ sp needed
 2888 0034 7047     		bx	lr
 2889              	.LVL238:
 2890              	.L215:
 2891              	.LCFI49:
 2892              		.cfi_restore_state
1380:Drivers/STM32F4xx_HAL_Driver/Src/stm32f4xx_ll_usb.c ****   }
 2893              		.loc 1 1380 0
 2894 0036 019B     		ldr	r3, [sp, #4]
 2895 0038 43F48053 		orr	r3, r3, #4096
 2896 003c C0F84034 		str	r3, [r0, #1088]
 2897 0040 ECE7     		b	.L212
 2898              		.cfi_endproc
 2899              	.LFE160:
 2901              		.section	.text.USB_GetHostSpeed,"ax",%progbits
 2902              		.align	1
 2903              		.global	USB_GetHostSpeed
 2904              		.syntax unified
 2905              		.thumb
 2906              		.thumb_func
 2907              		.fpu fpv4-sp-d16
 2909              	USB_GetHostSpeed:
 2910              	.LFB161:
1388:Drivers/STM32F4xx_HAL_Driver/Src/stm32f4xx_ll_usb.c **** 
1389:Drivers/STM32F4xx_HAL_Driver/Src/stm32f4xx_ll_usb.c **** /**
1390:Drivers/STM32F4xx_HAL_Driver/Src/stm32f4xx_ll_usb.c ****   * @brief  Return Host Core speed
1391:Drivers/STM32F4xx_HAL_Driver/Src/stm32f4xx_ll_usb.c ****   * @param  USBx : Selected device
1392:Drivers/STM32F4xx_HAL_Driver/Src/stm32f4xx_ll_usb.c ****   * @retval speed : Host speed
1393:Drivers/STM32F4xx_HAL_Driver/Src/stm32f4xx_ll_usb.c ****   *          This parameter can be one of these values:
1394:Drivers/STM32F4xx_HAL_Driver/Src/stm32f4xx_ll_usb.c ****   *            @arg USB_OTG_SPEED_HIGH: High speed mode
1395:Drivers/STM32F4xx_HAL_Driver/Src/stm32f4xx_ll_usb.c ****   *            @arg USB_OTG_SPEED_FULL: Full speed mode
1396:Drivers/STM32F4xx_HAL_Driver/Src/stm32f4xx_ll_usb.c ****   *            @arg USB_OTG_SPEED_LOW: Low speed mode
1397:Drivers/STM32F4xx_HAL_Driver/Src/stm32f4xx_ll_usb.c ****   */
1398:Drivers/STM32F4xx_HAL_Driver/Src/stm32f4xx_ll_usb.c **** uint32_t USB_GetHostSpeed (USB_OTG_GlobalTypeDef *USBx)
1399:Drivers/STM32F4xx_HAL_Driver/Src/stm32f4xx_ll_usb.c **** {
 2911              		.loc 1 1399 0
 2912              		.cfi_startproc
 2913              		@ args = 0, pretend = 0, frame = 8
 2914              		@ frame_needed = 0, uses_anonymous_args = 0
 2915              		@ link register save eliminated.
 2916              	.LVL239:
 2917 0000 82B0     		sub	sp, sp, #8
 2918              	.LCFI50:
 2919              		.cfi_def_cfa_offset 8
1400:Drivers/STM32F4xx_HAL_Driver/Src/stm32f4xx_ll_usb.c ****   __IO uint32_t hprt0;
1401:Drivers/STM32F4xx_HAL_Driver/Src/stm32f4xx_ll_usb.c ****   
1402:Drivers/STM32F4xx_HAL_Driver/Src/stm32f4xx_ll_usb.c ****   hprt0 = USBx_HPRT0;
 2920              		.loc 1 1402 0
 2921 0002 D0F84034 		ldr	r3, [r0, #1088]
 2922 0006 0193     		str	r3, [sp, #4]
1403:Drivers/STM32F4xx_HAL_Driver/Src/stm32f4xx_ll_usb.c ****   return ((hprt0 & USB_OTG_HPRT_PSPD) >> 17U);
ARM GAS  /var/folders/7p/1_dhylqx7nl5s8914_0f_4w00000gn/T//ccJwiRQE.s 			page 78


 2923              		.loc 1 1403 0
 2924 0008 0198     		ldr	r0, [sp, #4]
 2925              	.LVL240:
1404:Drivers/STM32F4xx_HAL_Driver/Src/stm32f4xx_ll_usb.c **** }
 2926              		.loc 1 1404 0
 2927 000a C0F34140 		ubfx	r0, r0, #17, #2
 2928 000e 02B0     		add	sp, sp, #8
 2929              	.LCFI51:
 2930              		.cfi_def_cfa_offset 0
 2931              		@ sp needed
 2932 0010 7047     		bx	lr
 2933              		.cfi_endproc
 2934              	.LFE161:
 2936              		.section	.text.USB_GetCurrentFrame,"ax",%progbits
 2937              		.align	1
 2938              		.global	USB_GetCurrentFrame
 2939              		.syntax unified
 2940              		.thumb
 2941              		.thumb_func
 2942              		.fpu fpv4-sp-d16
 2944              	USB_GetCurrentFrame:
 2945              	.LFB162:
1405:Drivers/STM32F4xx_HAL_Driver/Src/stm32f4xx_ll_usb.c **** 
1406:Drivers/STM32F4xx_HAL_Driver/Src/stm32f4xx_ll_usb.c **** /**
1407:Drivers/STM32F4xx_HAL_Driver/Src/stm32f4xx_ll_usb.c ****   * @brief  Return Host Current Frame number
1408:Drivers/STM32F4xx_HAL_Driver/Src/stm32f4xx_ll_usb.c ****   * @param  USBx : Selected device
1409:Drivers/STM32F4xx_HAL_Driver/Src/stm32f4xx_ll_usb.c ****   * @retval current frame number
1410:Drivers/STM32F4xx_HAL_Driver/Src/stm32f4xx_ll_usb.c **** */
1411:Drivers/STM32F4xx_HAL_Driver/Src/stm32f4xx_ll_usb.c **** uint32_t USB_GetCurrentFrame (USB_OTG_GlobalTypeDef *USBx)
1412:Drivers/STM32F4xx_HAL_Driver/Src/stm32f4xx_ll_usb.c **** {
 2946              		.loc 1 1412 0
 2947              		.cfi_startproc
 2948              		@ args = 0, pretend = 0, frame = 0
 2949              		@ frame_needed = 0, uses_anonymous_args = 0
 2950              		@ link register save eliminated.
 2951              	.LVL241:
1413:Drivers/STM32F4xx_HAL_Driver/Src/stm32f4xx_ll_usb.c ****   return (USBx_HOST->HFNUM & USB_OTG_HFNUM_FRNUM);
 2952              		.loc 1 1413 0
 2953 0000 00F58060 		add	r0, r0, #1024
 2954              	.LVL242:
 2955 0004 8068     		ldr	r0, [r0, #8]
 2956              	.LVL243:
1414:Drivers/STM32F4xx_HAL_Driver/Src/stm32f4xx_ll_usb.c **** }
 2957              		.loc 1 1414 0
 2958 0006 80B2     		uxth	r0, r0
 2959 0008 7047     		bx	lr
 2960              		.cfi_endproc
 2961              	.LFE162:
 2963              		.section	.text.USB_HC_Init,"ax",%progbits
 2964              		.align	1
 2965              		.global	USB_HC_Init
 2966              		.syntax unified
 2967              		.thumb
 2968              		.thumb_func
 2969              		.fpu fpv4-sp-d16
 2971              	USB_HC_Init:
 2972              	.LFB163:
ARM GAS  /var/folders/7p/1_dhylqx7nl5s8914_0f_4w00000gn/T//ccJwiRQE.s 			page 79


1415:Drivers/STM32F4xx_HAL_Driver/Src/stm32f4xx_ll_usb.c **** 
1416:Drivers/STM32F4xx_HAL_Driver/Src/stm32f4xx_ll_usb.c **** /**
1417:Drivers/STM32F4xx_HAL_Driver/Src/stm32f4xx_ll_usb.c ****   * @brief  Initialize a host channel
1418:Drivers/STM32F4xx_HAL_Driver/Src/stm32f4xx_ll_usb.c ****   * @param  USBx : Selected device
1419:Drivers/STM32F4xx_HAL_Driver/Src/stm32f4xx_ll_usb.c ****   * @param  ch_num : Channel number
1420:Drivers/STM32F4xx_HAL_Driver/Src/stm32f4xx_ll_usb.c ****   *         This parameter can be a value from 1 to 15
1421:Drivers/STM32F4xx_HAL_Driver/Src/stm32f4xx_ll_usb.c ****   * @param  epnum : Endpoint number
1422:Drivers/STM32F4xx_HAL_Driver/Src/stm32f4xx_ll_usb.c ****   *          This parameter can be a value from 1 to 15
1423:Drivers/STM32F4xx_HAL_Driver/Src/stm32f4xx_ll_usb.c ****   * @param  dev_address : Current device address
1424:Drivers/STM32F4xx_HAL_Driver/Src/stm32f4xx_ll_usb.c ****   *          This parameter can be a value from 0 to 255
1425:Drivers/STM32F4xx_HAL_Driver/Src/stm32f4xx_ll_usb.c ****   * @param  speed : Current device speed
1426:Drivers/STM32F4xx_HAL_Driver/Src/stm32f4xx_ll_usb.c ****   *          This parameter can be one of these values:
1427:Drivers/STM32F4xx_HAL_Driver/Src/stm32f4xx_ll_usb.c ****   *            @arg USB_OTG_SPEED_HIGH: High speed mode
1428:Drivers/STM32F4xx_HAL_Driver/Src/stm32f4xx_ll_usb.c ****   *            @arg USB_OTG_SPEED_FULL: Full speed mode
1429:Drivers/STM32F4xx_HAL_Driver/Src/stm32f4xx_ll_usb.c ****   *            @arg USB_OTG_SPEED_LOW: Low speed mode
1430:Drivers/STM32F4xx_HAL_Driver/Src/stm32f4xx_ll_usb.c ****   * @param  ep_type : Endpoint Type
1431:Drivers/STM32F4xx_HAL_Driver/Src/stm32f4xx_ll_usb.c ****   *          This parameter can be one of these values:
1432:Drivers/STM32F4xx_HAL_Driver/Src/stm32f4xx_ll_usb.c ****   *            @arg EP_TYPE_CTRL: Control type
1433:Drivers/STM32F4xx_HAL_Driver/Src/stm32f4xx_ll_usb.c ****   *            @arg EP_TYPE_ISOC: Isochronous type
1434:Drivers/STM32F4xx_HAL_Driver/Src/stm32f4xx_ll_usb.c ****   *            @arg EP_TYPE_BULK: Bulk type
1435:Drivers/STM32F4xx_HAL_Driver/Src/stm32f4xx_ll_usb.c ****   *            @arg EP_TYPE_INTR: Interrupt type
1436:Drivers/STM32F4xx_HAL_Driver/Src/stm32f4xx_ll_usb.c ****   * @param  mps : Max Packet Size
1437:Drivers/STM32F4xx_HAL_Driver/Src/stm32f4xx_ll_usb.c ****   *          This parameter can be a value from 0 to32K
1438:Drivers/STM32F4xx_HAL_Driver/Src/stm32f4xx_ll_usb.c ****   * @retval HAL state
1439:Drivers/STM32F4xx_HAL_Driver/Src/stm32f4xx_ll_usb.c ****   */
1440:Drivers/STM32F4xx_HAL_Driver/Src/stm32f4xx_ll_usb.c **** HAL_StatusTypeDef USB_HC_Init(USB_OTG_GlobalTypeDef *USBx,  
1441:Drivers/STM32F4xx_HAL_Driver/Src/stm32f4xx_ll_usb.c ****                               uint8_t ch_num,
1442:Drivers/STM32F4xx_HAL_Driver/Src/stm32f4xx_ll_usb.c ****                               uint8_t epnum,
1443:Drivers/STM32F4xx_HAL_Driver/Src/stm32f4xx_ll_usb.c ****                               uint8_t dev_address,
1444:Drivers/STM32F4xx_HAL_Driver/Src/stm32f4xx_ll_usb.c ****                               uint8_t speed,
1445:Drivers/STM32F4xx_HAL_Driver/Src/stm32f4xx_ll_usb.c ****                               uint8_t ep_type,
1446:Drivers/STM32F4xx_HAL_Driver/Src/stm32f4xx_ll_usb.c ****                               uint16_t mps)
1447:Drivers/STM32F4xx_HAL_Driver/Src/stm32f4xx_ll_usb.c **** {
 2973              		.loc 1 1447 0
 2974              		.cfi_startproc
 2975              		@ args = 12, pretend = 0, frame = 0
 2976              		@ frame_needed = 0, uses_anonymous_args = 0
 2977              	.LVL244:
 2978 0000 F0B5     		push	{r4, r5, r6, r7, lr}
 2979              	.LCFI52:
 2980              		.cfi_def_cfa_offset 20
 2981              		.cfi_offset 4, -20
 2982              		.cfi_offset 5, -16
 2983              		.cfi_offset 6, -12
 2984              		.cfi_offset 7, -8
 2985              		.cfi_offset 14, -4
 2986 0002 9DF81840 		ldrb	r4, [sp, #24]	@ zero_extendqisi2
1448:Drivers/STM32F4xx_HAL_Driver/Src/stm32f4xx_ll_usb.c ****     
1449:Drivers/STM32F4xx_HAL_Driver/Src/stm32f4xx_ll_usb.c ****   /* Clear old interrupt conditions for this host channel. */
1450:Drivers/STM32F4xx_HAL_Driver/Src/stm32f4xx_ll_usb.c ****   USBx_HC(ch_num)->HCINT = 0xFFFFFFFFU;
 2987              		.loc 1 1450 0
 2988 0006 00EB4115 		add	r5, r0, r1, lsl #5
 2989 000a 05F5A066 		add	r6, r5, #1280
 2990 000e 4FF0FF37 		mov	r7, #-1
 2991 0012 B760     		str	r7, [r6, #8]
1451:Drivers/STM32F4xx_HAL_Driver/Src/stm32f4xx_ll_usb.c ****   
1452:Drivers/STM32F4xx_HAL_Driver/Src/stm32f4xx_ll_usb.c ****   /* Enable channel interrupts required for this transfer. */
ARM GAS  /var/folders/7p/1_dhylqx7nl5s8914_0f_4w00000gn/T//ccJwiRQE.s 			page 80


1453:Drivers/STM32F4xx_HAL_Driver/Src/stm32f4xx_ll_usb.c ****   switch (ep_type) 
 2992              		.loc 1 1453 0
 2993 0014 032C     		cmp	r4, #3
 2994 0016 1CD8     		bhi	.L220
 2995 0018 DFE804F0 		tbb	[pc, r4]
 2996              	.L222:
 2997 001c 02       		.byte	(.L221-.L222)/2
 2998 001d 4F       		.byte	(.L223-.L222)/2
 2999 001e 02       		.byte	(.L221-.L222)/2
 3000 001f 15       		.byte	(.L224-.L222)/2
 3001              		.p2align 1
 3002              	.L221:
1454:Drivers/STM32F4xx_HAL_Driver/Src/stm32f4xx_ll_usb.c ****   {
1455:Drivers/STM32F4xx_HAL_Driver/Src/stm32f4xx_ll_usb.c ****   case EP_TYPE_CTRL:
1456:Drivers/STM32F4xx_HAL_Driver/Src/stm32f4xx_ll_usb.c ****   case EP_TYPE_BULK:
1457:Drivers/STM32F4xx_HAL_Driver/Src/stm32f4xx_ll_usb.c ****     
1458:Drivers/STM32F4xx_HAL_Driver/Src/stm32f4xx_ll_usb.c ****     USBx_HC(ch_num)->HCINTMSK = USB_OTG_HCINTMSK_XFRCM  |\
 3003              		.loc 1 1458 0
 3004 0020 40F29D47 		movw	r7, #1181
 3005 0024 F760     		str	r7, [r6, #12]
1459:Drivers/STM32F4xx_HAL_Driver/Src/stm32f4xx_ll_usb.c ****                                 USB_OTG_HCINTMSK_STALLM |\
1460:Drivers/STM32F4xx_HAL_Driver/Src/stm32f4xx_ll_usb.c ****                                 USB_OTG_HCINTMSK_TXERRM |\
1461:Drivers/STM32F4xx_HAL_Driver/Src/stm32f4xx_ll_usb.c ****                                 USB_OTG_HCINTMSK_DTERRM |\
1462:Drivers/STM32F4xx_HAL_Driver/Src/stm32f4xx_ll_usb.c ****                                 USB_OTG_HCINTMSK_AHBERR |\
1463:Drivers/STM32F4xx_HAL_Driver/Src/stm32f4xx_ll_usb.c ****                                 USB_OTG_HCINTMSK_NAKM ;
1464:Drivers/STM32F4xx_HAL_Driver/Src/stm32f4xx_ll_usb.c ****  
1465:Drivers/STM32F4xx_HAL_Driver/Src/stm32f4xx_ll_usb.c ****     if (epnum & 0x80U) 
 3006              		.loc 1 1465 0
 3007 0026 12F0800F 		tst	r2, #128
 3008 002a 07D1     		bne	.L232
1466:Drivers/STM32F4xx_HAL_Driver/Src/stm32f4xx_ll_usb.c ****     {
1467:Drivers/STM32F4xx_HAL_Driver/Src/stm32f4xx_ll_usb.c ****       USBx_HC(ch_num)->HCINTMSK |= USB_OTG_HCINTMSK_BBERRM;
1468:Drivers/STM32F4xx_HAL_Driver/Src/stm32f4xx_ll_usb.c ****     } 
1469:Drivers/STM32F4xx_HAL_Driver/Src/stm32f4xx_ll_usb.c ****     else 
1470:Drivers/STM32F4xx_HAL_Driver/Src/stm32f4xx_ll_usb.c ****     {
1471:Drivers/STM32F4xx_HAL_Driver/Src/stm32f4xx_ll_usb.c ****       if(USBx != USB_OTG_FS)
 3009              		.loc 1 1471 0
 3010 002c B0F1A04F 		cmp	r0, #1342177280
 3011 0030 0FD0     		beq	.L220
1472:Drivers/STM32F4xx_HAL_Driver/Src/stm32f4xx_ll_usb.c ****       {
1473:Drivers/STM32F4xx_HAL_Driver/Src/stm32f4xx_ll_usb.c ****         USBx_HC(ch_num)->HCINTMSK |= (USB_OTG_HCINTMSK_NYET | USB_OTG_HCINTMSK_ACKM);
 3012              		.loc 1 1473 0
 3013 0032 F768     		ldr	r7, [r6, #12]
 3014 0034 47F06007 		orr	r7, r7, #96
 3015 0038 F760     		str	r7, [r6, #12]
 3016 003a 0AE0     		b	.L220
 3017              	.L232:
1467:Drivers/STM32F4xx_HAL_Driver/Src/stm32f4xx_ll_usb.c ****     } 
 3018              		.loc 1 1467 0
 3019 003c F768     		ldr	r7, [r6, #12]
 3020 003e 47F48077 		orr	r7, r7, #256
 3021 0042 F760     		str	r7, [r6, #12]
 3022 0044 05E0     		b	.L220
 3023              	.L224:
1474:Drivers/STM32F4xx_HAL_Driver/Src/stm32f4xx_ll_usb.c ****       }
1475:Drivers/STM32F4xx_HAL_Driver/Src/stm32f4xx_ll_usb.c ****     }
1476:Drivers/STM32F4xx_HAL_Driver/Src/stm32f4xx_ll_usb.c ****     break;
ARM GAS  /var/folders/7p/1_dhylqx7nl5s8914_0f_4w00000gn/T//ccJwiRQE.s 			page 81


1477:Drivers/STM32F4xx_HAL_Driver/Src/stm32f4xx_ll_usb.c ****     
1478:Drivers/STM32F4xx_HAL_Driver/Src/stm32f4xx_ll_usb.c ****   case EP_TYPE_INTR:
1479:Drivers/STM32F4xx_HAL_Driver/Src/stm32f4xx_ll_usb.c ****     
1480:Drivers/STM32F4xx_HAL_Driver/Src/stm32f4xx_ll_usb.c ****     USBx_HC(ch_num)->HCINTMSK = USB_OTG_HCINTMSK_XFRCM  |\
 3024              		.loc 1 1480 0
 3025 0046 40F29D67 		movw	r7, #1693
 3026 004a F760     		str	r7, [r6, #12]
1481:Drivers/STM32F4xx_HAL_Driver/Src/stm32f4xx_ll_usb.c ****                                 USB_OTG_HCINTMSK_STALLM |\
1482:Drivers/STM32F4xx_HAL_Driver/Src/stm32f4xx_ll_usb.c ****                                 USB_OTG_HCINTMSK_TXERRM |\
1483:Drivers/STM32F4xx_HAL_Driver/Src/stm32f4xx_ll_usb.c ****                                 USB_OTG_HCINTMSK_DTERRM |\
1484:Drivers/STM32F4xx_HAL_Driver/Src/stm32f4xx_ll_usb.c ****                                 USB_OTG_HCINTMSK_NAKM   |\
1485:Drivers/STM32F4xx_HAL_Driver/Src/stm32f4xx_ll_usb.c ****                                 USB_OTG_HCINTMSK_AHBERR |\
1486:Drivers/STM32F4xx_HAL_Driver/Src/stm32f4xx_ll_usb.c ****                                 USB_OTG_HCINTMSK_FRMORM ;    
1487:Drivers/STM32F4xx_HAL_Driver/Src/stm32f4xx_ll_usb.c ****     
1488:Drivers/STM32F4xx_HAL_Driver/Src/stm32f4xx_ll_usb.c ****     if (epnum & 0x80U) 
 3027              		.loc 1 1488 0
 3028 004c 12F0800F 		tst	r2, #128
 3029 0050 2ED1     		bne	.L233
 3030              	.L220:
1489:Drivers/STM32F4xx_HAL_Driver/Src/stm32f4xx_ll_usb.c ****     {
1490:Drivers/STM32F4xx_HAL_Driver/Src/stm32f4xx_ll_usb.c ****       USBx_HC(ch_num)->HCINTMSK |= USB_OTG_HCINTMSK_BBERRM;
1491:Drivers/STM32F4xx_HAL_Driver/Src/stm32f4xx_ll_usb.c ****     }
1492:Drivers/STM32F4xx_HAL_Driver/Src/stm32f4xx_ll_usb.c ****     
1493:Drivers/STM32F4xx_HAL_Driver/Src/stm32f4xx_ll_usb.c ****     break;
1494:Drivers/STM32F4xx_HAL_Driver/Src/stm32f4xx_ll_usb.c ****   case EP_TYPE_ISOC:
1495:Drivers/STM32F4xx_HAL_Driver/Src/stm32f4xx_ll_usb.c ****     
1496:Drivers/STM32F4xx_HAL_Driver/Src/stm32f4xx_ll_usb.c ****     USBx_HC(ch_num)->HCINTMSK = USB_OTG_HCINTMSK_XFRCM  |\
1497:Drivers/STM32F4xx_HAL_Driver/Src/stm32f4xx_ll_usb.c ****                                 USB_OTG_HCINTMSK_ACKM   |\
1498:Drivers/STM32F4xx_HAL_Driver/Src/stm32f4xx_ll_usb.c ****                                 USB_OTG_HCINTMSK_AHBERR |\
1499:Drivers/STM32F4xx_HAL_Driver/Src/stm32f4xx_ll_usb.c ****                                 USB_OTG_HCINTMSK_FRMORM ;   
1500:Drivers/STM32F4xx_HAL_Driver/Src/stm32f4xx_ll_usb.c ****     
1501:Drivers/STM32F4xx_HAL_Driver/Src/stm32f4xx_ll_usb.c ****     if (epnum & 0x80U) 
1502:Drivers/STM32F4xx_HAL_Driver/Src/stm32f4xx_ll_usb.c ****     {
1503:Drivers/STM32F4xx_HAL_Driver/Src/stm32f4xx_ll_usb.c ****       USBx_HC(ch_num)->HCINTMSK |= (USB_OTG_HCINTMSK_TXERRM | USB_OTG_HCINTMSK_BBERRM);      
1504:Drivers/STM32F4xx_HAL_Driver/Src/stm32f4xx_ll_usb.c ****     }
1505:Drivers/STM32F4xx_HAL_Driver/Src/stm32f4xx_ll_usb.c ****     break;
1506:Drivers/STM32F4xx_HAL_Driver/Src/stm32f4xx_ll_usb.c ****   }
1507:Drivers/STM32F4xx_HAL_Driver/Src/stm32f4xx_ll_usb.c ****   
1508:Drivers/STM32F4xx_HAL_Driver/Src/stm32f4xx_ll_usb.c ****   /* Enable the top level host channel interrupt. */
1509:Drivers/STM32F4xx_HAL_Driver/Src/stm32f4xx_ll_usb.c ****   USBx_HOST->HAINTMSK |= (1 << ch_num);
 3031              		.loc 1 1509 0
 3032 0052 00F5806E 		add	lr, r0, #1024
 3033 0056 D0F81864 		ldr	r6, [r0, #1048]
 3034 005a 0127     		movs	r7, #1
 3035 005c 07FA01F1 		lsl	r1, r7, r1
 3036              	.LVL245:
 3037 0060 3143     		orrs	r1, r1, r6
 3038 0062 C0F81814 		str	r1, [r0, #1048]
1510:Drivers/STM32F4xx_HAL_Driver/Src/stm32f4xx_ll_usb.c ****   
1511:Drivers/STM32F4xx_HAL_Driver/Src/stm32f4xx_ll_usb.c ****   /* Make sure host channel interrupts are enabled. */
1512:Drivers/STM32F4xx_HAL_Driver/Src/stm32f4xx_ll_usb.c ****   USBx->GINTMSK |= USB_OTG_GINTMSK_HCIM;
 3039              		.loc 1 1512 0
 3040 0066 8169     		ldr	r1, [r0, #24]
 3041 0068 41F00071 		orr	r1, r1, #33554432
 3042 006c 8161     		str	r1, [r0, #24]
1513:Drivers/STM32F4xx_HAL_Driver/Src/stm32f4xx_ll_usb.c ****   
1514:Drivers/STM32F4xx_HAL_Driver/Src/stm32f4xx_ll_usb.c ****   /* Program the HCCHAR register */
ARM GAS  /var/folders/7p/1_dhylqx7nl5s8914_0f_4w00000gn/T//ccJwiRQE.s 			page 82


1515:Drivers/STM32F4xx_HAL_Driver/Src/stm32f4xx_ll_usb.c ****   USBx_HC(ch_num)->HCCHAR = (((dev_address << 22U) & USB_OTG_HCCHAR_DAD)  |\
 3043              		.loc 1 1515 0
 3044 006e 9B05     		lsls	r3, r3, #22
 3045              	.LVL246:
 3046 0070 03F0FE53 		and	r3, r3, #532676608
1516:Drivers/STM32F4xx_HAL_Driver/Src/stm32f4xx_ll_usb.c ****                              (((epnum & 0x7FU)<< 11U) & USB_OTG_HCCHAR_EPNUM)|\
 3047              		.loc 1 1516 0
 3048 0074 D102     		lsls	r1, r2, #11
 3049 0076 01F4F041 		and	r1, r1, #30720
1515:Drivers/STM32F4xx_HAL_Driver/Src/stm32f4xx_ll_usb.c ****                              (((epnum & 0x7FU)<< 11U) & USB_OTG_HCCHAR_EPNUM)|\
 3050              		.loc 1 1515 0
 3051 007a 0B43     		orrs	r3, r3, r1
1517:Drivers/STM32F4xx_HAL_Driver/Src/stm32f4xx_ll_usb.c ****                              ((((epnum & 0x80U) == 0x80U)<< 15U) & USB_OTG_HCCHAR_EPDIR)|\
 3052              		.loc 1 1517 0
 3053 007c 12F0800F 		tst	r2, #128
 3054 0080 26D1     		bne	.L234
 3055 0082 0022     		movs	r2, #0
 3056              	.LVL247:
 3057              	.L226:
1516:Drivers/STM32F4xx_HAL_Driver/Src/stm32f4xx_ll_usb.c ****                              (((epnum & 0x7FU)<< 11U) & USB_OTG_HCCHAR_EPNUM)|\
 3058              		.loc 1 1516 0
 3059 0084 1A43     		orrs	r2, r2, r3
1518:Drivers/STM32F4xx_HAL_Driver/Src/stm32f4xx_ll_usb.c ****                              (((speed == USB_OTG_SPEED_LOW)<< 17U) & USB_OTG_HCCHAR_LSDEV)|\
 3060              		.loc 1 1518 0
 3061 0086 9DF81430 		ldrb	r3, [sp, #20]	@ zero_extendqisi2
 3062 008a 022B     		cmp	r3, #2
 3063 008c 23D0     		beq	.L235
 3064 008e 0023     		movs	r3, #0
 3065              	.L227:
1517:Drivers/STM32F4xx_HAL_Driver/Src/stm32f4xx_ll_usb.c ****                              ((((epnum & 0x80U) == 0x80U)<< 15U) & USB_OTG_HCCHAR_EPDIR)|\
 3066              		.loc 1 1517 0
 3067 0090 1343     		orrs	r3, r3, r2
1519:Drivers/STM32F4xx_HAL_Driver/Src/stm32f4xx_ll_usb.c ****                              ((ep_type << 18U) & USB_OTG_HCCHAR_EPTYP)|\
 3068              		.loc 1 1519 0
 3069 0092 A204     		lsls	r2, r4, #18
 3070 0094 02F44022 		and	r2, r2, #786432
1518:Drivers/STM32F4xx_HAL_Driver/Src/stm32f4xx_ll_usb.c ****                              (((speed == USB_OTG_SPEED_LOW)<< 17U) & USB_OTG_HCCHAR_LSDEV)|\
 3071              		.loc 1 1518 0
 3072 0098 1343     		orrs	r3, r3, r2
1520:Drivers/STM32F4xx_HAL_Driver/Src/stm32f4xx_ll_usb.c ****                              (mps & USB_OTG_HCCHAR_MPSIZ));
 3073              		.loc 1 1520 0
 3074 009a BDF81C20 		ldrh	r2, [sp, #28]
 3075 009e C2F30A02 		ubfx	r2, r2, #0, #11
1519:Drivers/STM32F4xx_HAL_Driver/Src/stm32f4xx_ll_usb.c ****                              ((ep_type << 18U) & USB_OTG_HCCHAR_EPTYP)|\
 3076              		.loc 1 1519 0
 3077 00a2 1343     		orrs	r3, r3, r2
1515:Drivers/STM32F4xx_HAL_Driver/Src/stm32f4xx_ll_usb.c ****                              (((epnum & 0x7FU)<< 11U) & USB_OTG_HCCHAR_EPNUM)|\
 3078              		.loc 1 1515 0
 3079 00a4 C5F80035 		str	r3, [r5, #1280]
1521:Drivers/STM32F4xx_HAL_Driver/Src/stm32f4xx_ll_usb.c ****     
1522:Drivers/STM32F4xx_HAL_Driver/Src/stm32f4xx_ll_usb.c ****   if (ep_type == EP_TYPE_INTR)
 3080              		.loc 1 1522 0
 3081 00a8 032C     		cmp	r4, #3
 3082 00aa 17D0     		beq	.L236
 3083              	.L228:
1523:Drivers/STM32F4xx_HAL_Driver/Src/stm32f4xx_ll_usb.c ****   {
1524:Drivers/STM32F4xx_HAL_Driver/Src/stm32f4xx_ll_usb.c ****     USBx_HC(ch_num)->HCCHAR |= USB_OTG_HCCHAR_ODDFRM ;
ARM GAS  /var/folders/7p/1_dhylqx7nl5s8914_0f_4w00000gn/T//ccJwiRQE.s 			page 83


1525:Drivers/STM32F4xx_HAL_Driver/Src/stm32f4xx_ll_usb.c ****   }
1526:Drivers/STM32F4xx_HAL_Driver/Src/stm32f4xx_ll_usb.c **** 
1527:Drivers/STM32F4xx_HAL_Driver/Src/stm32f4xx_ll_usb.c ****   return HAL_OK; 
1528:Drivers/STM32F4xx_HAL_Driver/Src/stm32f4xx_ll_usb.c **** }
 3084              		.loc 1 1528 0
 3085 00ac 0020     		movs	r0, #0
 3086              	.LVL248:
 3087 00ae F0BD     		pop	{r4, r5, r6, r7, pc}
 3088              	.LVL249:
 3089              	.L233:
1490:Drivers/STM32F4xx_HAL_Driver/Src/stm32f4xx_ll_usb.c ****     }
 3090              		.loc 1 1490 0
 3091 00b0 F768     		ldr	r7, [r6, #12]
 3092 00b2 47F48077 		orr	r7, r7, #256
 3093 00b6 F760     		str	r7, [r6, #12]
 3094 00b8 CBE7     		b	.L220
 3095              	.L223:
1496:Drivers/STM32F4xx_HAL_Driver/Src/stm32f4xx_ll_usb.c ****                                 USB_OTG_HCINTMSK_ACKM   |\
 3096              		.loc 1 1496 0
 3097 00ba 40F22527 		movw	r7, #549
 3098 00be F760     		str	r7, [r6, #12]
1501:Drivers/STM32F4xx_HAL_Driver/Src/stm32f4xx_ll_usb.c ****     {
 3099              		.loc 1 1501 0
 3100 00c0 12F0800F 		tst	r2, #128
 3101 00c4 C5D0     		beq	.L220
1503:Drivers/STM32F4xx_HAL_Driver/Src/stm32f4xx_ll_usb.c ****     }
 3102              		.loc 1 1503 0
 3103 00c6 F768     		ldr	r7, [r6, #12]
 3104 00c8 47F4C077 		orr	r7, r7, #384
 3105 00cc F760     		str	r7, [r6, #12]
 3106 00ce C0E7     		b	.L220
 3107              	.LVL250:
 3108              	.L234:
1517:Drivers/STM32F4xx_HAL_Driver/Src/stm32f4xx_ll_usb.c ****                              (((speed == USB_OTG_SPEED_LOW)<< 17U) & USB_OTG_HCCHAR_LSDEV)|\
 3109              		.loc 1 1517 0
 3110 00d0 4FF40042 		mov	r2, #32768
 3111              	.LVL251:
 3112 00d4 D6E7     		b	.L226
 3113              	.L235:
1518:Drivers/STM32F4xx_HAL_Driver/Src/stm32f4xx_ll_usb.c ****                              ((ep_type << 18U) & USB_OTG_HCCHAR_EPTYP)|\
 3114              		.loc 1 1518 0
 3115 00d6 4FF40033 		mov	r3, #131072
 3116 00da D9E7     		b	.L227
 3117              	.L236:
1524:Drivers/STM32F4xx_HAL_Driver/Src/stm32f4xx_ll_usb.c ****   }
 3118              		.loc 1 1524 0
 3119 00dc D5F80035 		ldr	r3, [r5, #1280]
 3120 00e0 43F00053 		orr	r3, r3, #536870912
 3121 00e4 C5F80035 		str	r3, [r5, #1280]
 3122 00e8 E0E7     		b	.L228
 3123              		.cfi_endproc
 3124              	.LFE163:
 3126              		.section	.text.USB_HC_StartXfer,"ax",%progbits
 3127              		.align	1
 3128              		.global	USB_HC_StartXfer
 3129              		.syntax unified
 3130              		.thumb
ARM GAS  /var/folders/7p/1_dhylqx7nl5s8914_0f_4w00000gn/T//ccJwiRQE.s 			page 84


 3131              		.thumb_func
 3132              		.fpu fpv4-sp-d16
 3134              	USB_HC_StartXfer:
 3135              	.LFB164:
1529:Drivers/STM32F4xx_HAL_Driver/Src/stm32f4xx_ll_usb.c **** 
1530:Drivers/STM32F4xx_HAL_Driver/Src/stm32f4xx_ll_usb.c **** /**
1531:Drivers/STM32F4xx_HAL_Driver/Src/stm32f4xx_ll_usb.c ****   * @brief  Start a transfer over a host channel
1532:Drivers/STM32F4xx_HAL_Driver/Src/stm32f4xx_ll_usb.c ****   * @param  USBx : Selected device
1533:Drivers/STM32F4xx_HAL_Driver/Src/stm32f4xx_ll_usb.c ****   * @param  hc : pointer to host channel structure
1534:Drivers/STM32F4xx_HAL_Driver/Src/stm32f4xx_ll_usb.c ****   * @param  dma: USB dma enabled or disabled 
1535:Drivers/STM32F4xx_HAL_Driver/Src/stm32f4xx_ll_usb.c ****   *          This parameter can be one of these values:
1536:Drivers/STM32F4xx_HAL_Driver/Src/stm32f4xx_ll_usb.c ****   *           0 : DMA feature not used 
1537:Drivers/STM32F4xx_HAL_Driver/Src/stm32f4xx_ll_usb.c ****   *           1 : DMA feature used  
1538:Drivers/STM32F4xx_HAL_Driver/Src/stm32f4xx_ll_usb.c ****   * @retval HAL state
1539:Drivers/STM32F4xx_HAL_Driver/Src/stm32f4xx_ll_usb.c ****   */
1540:Drivers/STM32F4xx_HAL_Driver/Src/stm32f4xx_ll_usb.c **** #if defined   (__CC_ARM) /*!< ARM Compiler */
1541:Drivers/STM32F4xx_HAL_Driver/Src/stm32f4xx_ll_usb.c **** #pragma O0
1542:Drivers/STM32F4xx_HAL_Driver/Src/stm32f4xx_ll_usb.c **** #elif defined (__GNUC__) /*!< GNU Compiler */
1543:Drivers/STM32F4xx_HAL_Driver/Src/stm32f4xx_ll_usb.c **** #pragma GCC optimize ("O0")
1544:Drivers/STM32F4xx_HAL_Driver/Src/stm32f4xx_ll_usb.c **** #endif /* __CC_ARM */
1545:Drivers/STM32F4xx_HAL_Driver/Src/stm32f4xx_ll_usb.c **** HAL_StatusTypeDef USB_HC_StartXfer(USB_OTG_GlobalTypeDef *USBx, USB_OTG_HCTypeDef *hc, uint8_t dma)
1546:Drivers/STM32F4xx_HAL_Driver/Src/stm32f4xx_ll_usb.c **** {
 3136              		.loc 1 1546 0
 3137              		.cfi_startproc
 3138              		@ args = 0, pretend = 0, frame = 32
 3139              		@ frame_needed = 1, uses_anonymous_args = 0
 3140              	.LVL252:
 3141 0000 80B5     		push	{r7, lr}
 3142              	.LCFI53:
 3143              		.cfi_def_cfa_offset 8
 3144              		.cfi_offset 7, -8
 3145              		.cfi_offset 14, -4
 3146 0002 8AB0     		sub	sp, sp, #40
 3147              	.LCFI54:
 3148              		.cfi_def_cfa_offset 48
 3149 0004 02AF     		add	r7, sp, #8
 3150              	.LCFI55:
 3151              		.cfi_def_cfa 7, 40
 3152 0006 F860     		str	r0, [r7, #12]
 3153 0008 B960     		str	r1, [r7, #8]
 3154 000a 1346     		mov	r3, r2
 3155 000c FB71     		strb	r3, [r7, #7]
1547:Drivers/STM32F4xx_HAL_Driver/Src/stm32f4xx_ll_usb.c ****   uint8_t  is_oddframe = 0; 
 3156              		.loc 1 1547 0
 3157 000e 0023     		movs	r3, #0
 3158 0010 7B77     		strb	r3, [r7, #29]
 3159              	.LVL253:
1548:Drivers/STM32F4xx_HAL_Driver/Src/stm32f4xx_ll_usb.c ****   uint16_t len_words = 0;   
 3160              		.loc 1 1548 0
 3161 0012 0023     		movs	r3, #0
 3162              	.LVL254:
 3163 0014 7B83     		strh	r3, [r7, #26]	@ movhi
 3164              	.LVL255:
1549:Drivers/STM32F4xx_HAL_Driver/Src/stm32f4xx_ll_usb.c ****   uint16_t num_packets = 0;
 3165              		.loc 1 1549 0
 3166 0016 0023     		movs	r3, #0
 3167              	.LVL256:
ARM GAS  /var/folders/7p/1_dhylqx7nl5s8914_0f_4w00000gn/T//ccJwiRQE.s 			page 85


 3168 0018 FB83     		strh	r3, [r7, #30]	@ movhi
 3169              	.LVL257:
1550:Drivers/STM32F4xx_HAL_Driver/Src/stm32f4xx_ll_usb.c ****   uint16_t max_hc_pkt_count = 256;
 3170              		.loc 1 1550 0
 3171 001a 4FF48073 		mov	r3, #256
 3172              	.LVL258:
 3173 001e 3B83     		strh	r3, [r7, #24]	@ movhi
 3174              	.LVL259:
1551:Drivers/STM32F4xx_HAL_Driver/Src/stm32f4xx_ll_usb.c ****   uint32_t tmpreg = 0U;
 3175              		.loc 1 1551 0
 3176 0020 0023     		movs	r3, #0
 3177              	.LVL260:
 3178 0022 7B61     		str	r3, [r7, #20]
 3179              	.LVL261:
1552:Drivers/STM32F4xx_HAL_Driver/Src/stm32f4xx_ll_usb.c ****     
1553:Drivers/STM32F4xx_HAL_Driver/Src/stm32f4xx_ll_usb.c ****   if((USBx != USB_OTG_FS) && (hc->speed == USB_OTG_SPEED_HIGH))
 3180              		.loc 1 1553 0
 3181 0024 FB68     		ldr	r3, [r7, #12]
 3182              	.LVL262:
 3183 0026 B3F1A04F 		cmp	r3, #1342177280
 3184 002a 2BD0     		beq	.L238
 3185              		.loc 1 1553 0 is_stmt 0 discriminator 1
 3186 002c BB68     		ldr	r3, [r7, #8]
 3187 002e 1B79     		ldrb	r3, [r3, #4]	@ zero_extendqisi2
 3188 0030 002B     		cmp	r3, #0
 3189 0032 27D1     		bne	.L238
1554:Drivers/STM32F4xx_HAL_Driver/Src/stm32f4xx_ll_usb.c ****   {
1555:Drivers/STM32F4xx_HAL_Driver/Src/stm32f4xx_ll_usb.c ****     if((dma == 0) && (hc->do_ping == 1U))
 3190              		.loc 1 1555 0 is_stmt 1
 3191 0034 FB79     		ldrb	r3, [r7, #7]	@ zero_extendqisi2
 3192 0036 002B     		cmp	r3, #0
 3193 0038 0BD1     		bne	.L239
 3194              		.loc 1 1555 0 is_stmt 0 discriminator 1
 3195 003a BB68     		ldr	r3, [r7, #8]
 3196 003c 5B79     		ldrb	r3, [r3, #5]	@ zero_extendqisi2
 3197 003e 012B     		cmp	r3, #1
 3198 0040 07D1     		bne	.L239
1556:Drivers/STM32F4xx_HAL_Driver/Src/stm32f4xx_ll_usb.c ****     {
1557:Drivers/STM32F4xx_HAL_Driver/Src/stm32f4xx_ll_usb.c ****       USB_DoPing(USBx, hc->ch_num);
 3199              		.loc 1 1557 0 is_stmt 1
 3200 0042 BB68     		ldr	r3, [r7, #8]
 3201 0044 5B78     		ldrb	r3, [r3, #1]	@ zero_extendqisi2
 3202 0046 1946     		mov	r1, r3
 3203              	.LVL263:
 3204 0048 F868     		ldr	r0, [r7, #12]
 3205 004a FFF7FEFF 		bl	USB_DoPing
 3206              	.LVL264:
1558:Drivers/STM32F4xx_HAL_Driver/Src/stm32f4xx_ll_usb.c ****       return HAL_OK;
 3207              		.loc 1 1558 0
 3208 004e 0023     		movs	r3, #0
 3209 0050 0DE1     		b	.L240
 3210              	.LVL265:
 3211              	.L239:
1559:Drivers/STM32F4xx_HAL_Driver/Src/stm32f4xx_ll_usb.c ****     }
1560:Drivers/STM32F4xx_HAL_Driver/Src/stm32f4xx_ll_usb.c ****     else if(dma == 1)
 3212              		.loc 1 1560 0
 3213 0052 FB79     		ldrb	r3, [r7, #7]	@ zero_extendqisi2
ARM GAS  /var/folders/7p/1_dhylqx7nl5s8914_0f_4w00000gn/T//ccJwiRQE.s 			page 86


 3214 0054 012B     		cmp	r3, #1
 3215 0056 15D1     		bne	.L238
1561:Drivers/STM32F4xx_HAL_Driver/Src/stm32f4xx_ll_usb.c ****     {
1562:Drivers/STM32F4xx_HAL_Driver/Src/stm32f4xx_ll_usb.c ****       USBx_HC(hc->ch_num)->HCINTMSK &= ~(USB_OTG_HCINTMSK_NYET | USB_OTG_HCINTMSK_ACKM);
 3216              		.loc 1 1562 0
 3217 0058 BB68     		ldr	r3, [r7, #8]
 3218 005a 5B78     		ldrb	r3, [r3, #1]	@ zero_extendqisi2
 3219 005c 5A01     		lsls	r2, r3, #5
 3220              	.LVL266:
 3221 005e FB68     		ldr	r3, [r7, #12]
 3222 0060 1344     		add	r3, r3, r2
 3223 0062 03F5A063 		add	r3, r3, #1280
 3224 0066 1946     		mov	r1, r3
 3225              	.LVL267:
 3226 0068 BB68     		ldr	r3, [r7, #8]
 3227 006a 5B78     		ldrb	r3, [r3, #1]	@ zero_extendqisi2
 3228 006c 5A01     		lsls	r2, r3, #5
 3229 006e FB68     		ldr	r3, [r7, #12]
 3230 0070 1344     		add	r3, r3, r2
 3231 0072 03F5A063 		add	r3, r3, #1280
 3232 0076 DB68     		ldr	r3, [r3, #12]
 3233 0078 23F06003 		bic	r3, r3, #96
 3234 007c CB60     		str	r3, [r1, #12]
1563:Drivers/STM32F4xx_HAL_Driver/Src/stm32f4xx_ll_usb.c ****       hc->do_ping = 0U;
 3235              		.loc 1 1563 0
 3236 007e BB68     		ldr	r3, [r7, #8]
 3237 0080 0022     		movs	r2, #0
 3238 0082 5A71     		strb	r2, [r3, #5]
 3239              	.L238:
1564:Drivers/STM32F4xx_HAL_Driver/Src/stm32f4xx_ll_usb.c ****     }
1565:Drivers/STM32F4xx_HAL_Driver/Src/stm32f4xx_ll_usb.c ****   }
1566:Drivers/STM32F4xx_HAL_Driver/Src/stm32f4xx_ll_usb.c ****   
1567:Drivers/STM32F4xx_HAL_Driver/Src/stm32f4xx_ll_usb.c ****   /* Compute the expected number of packets associated to the transfer */
1568:Drivers/STM32F4xx_HAL_Driver/Src/stm32f4xx_ll_usb.c ****   if (hc->xfer_len > 0U)
 3240              		.loc 1 1568 0
 3241 0084 BB68     		ldr	r3, [r7, #8]
 3242 0086 1B69     		ldr	r3, [r3, #16]
 3243 0088 002B     		cmp	r3, #0
 3244 008a 19D0     		beq	.L241
1569:Drivers/STM32F4xx_HAL_Driver/Src/stm32f4xx_ll_usb.c ****   {
1570:Drivers/STM32F4xx_HAL_Driver/Src/stm32f4xx_ll_usb.c ****     num_packets = (hc->xfer_len + hc->max_packet - 1U) / hc->max_packet;
 3245              		.loc 1 1570 0
 3246 008c BB68     		ldr	r3, [r7, #8]
 3247 008e 1B69     		ldr	r3, [r3, #16]
 3248 0090 BA68     		ldr	r2, [r7, #8]
 3249 0092 1289     		ldrh	r2, [r2, #8]
 3250 0094 1344     		add	r3, r3, r2
 3251 0096 013B     		subs	r3, r3, #1
 3252 0098 BA68     		ldr	r2, [r7, #8]
 3253 009a 1289     		ldrh	r2, [r2, #8]
 3254 009c B3FBF2F3 		udiv	r3, r3, r2
 3255 00a0 FB83     		strh	r3, [r7, #30]	@ movhi
 3256              	.LVL268:
1571:Drivers/STM32F4xx_HAL_Driver/Src/stm32f4xx_ll_usb.c ****     
1572:Drivers/STM32F4xx_HAL_Driver/Src/stm32f4xx_ll_usb.c ****     if (num_packets > max_hc_pkt_count)
 3257              		.loc 1 1572 0
 3258 00a2 FA8B     		ldrh	r2, [r7, #30]
ARM GAS  /var/folders/7p/1_dhylqx7nl5s8914_0f_4w00000gn/T//ccJwiRQE.s 			page 87


 3259 00a4 3B8B     		ldrh	r3, [r7, #24]
 3260              	.LVL269:
 3261 00a6 9A42     		cmp	r2, r3
 3262 00a8 0CD9     		bls	.L243
1573:Drivers/STM32F4xx_HAL_Driver/Src/stm32f4xx_ll_usb.c ****     {
1574:Drivers/STM32F4xx_HAL_Driver/Src/stm32f4xx_ll_usb.c ****       num_packets = max_hc_pkt_count;
 3263              		.loc 1 1574 0
 3264 00aa 3B8B     		ldrh	r3, [r7, #24]	@ movhi
 3265 00ac FB83     		strh	r3, [r7, #30]	@ movhi
 3266              	.LVL270:
1575:Drivers/STM32F4xx_HAL_Driver/Src/stm32f4xx_ll_usb.c ****       hc->xfer_len = num_packets * hc->max_packet;
 3267              		.loc 1 1575 0
 3268 00ae FB8B     		ldrh	r3, [r7, #30]
 3269              	.LVL271:
 3270 00b0 BA68     		ldr	r2, [r7, #8]
 3271 00b2 1289     		ldrh	r2, [r2, #8]
 3272 00b4 02FB03F3 		mul	r3, r2, r3
 3273 00b8 1A46     		mov	r2, r3
 3274 00ba BB68     		ldr	r3, [r7, #8]
 3275 00bc 1A61     		str	r2, [r3, #16]
 3276 00be 01E0     		b	.L243
 3277              	.L241:
1576:Drivers/STM32F4xx_HAL_Driver/Src/stm32f4xx_ll_usb.c ****     }
1577:Drivers/STM32F4xx_HAL_Driver/Src/stm32f4xx_ll_usb.c ****   }
1578:Drivers/STM32F4xx_HAL_Driver/Src/stm32f4xx_ll_usb.c ****   else
1579:Drivers/STM32F4xx_HAL_Driver/Src/stm32f4xx_ll_usb.c ****   {
1580:Drivers/STM32F4xx_HAL_Driver/Src/stm32f4xx_ll_usb.c ****     num_packets = 1;
 3278              		.loc 1 1580 0
 3279 00c0 0123     		movs	r3, #1
 3280 00c2 FB83     		strh	r3, [r7, #30]	@ movhi
 3281              	.LVL272:
 3282              	.L243:
1581:Drivers/STM32F4xx_HAL_Driver/Src/stm32f4xx_ll_usb.c ****   }
1582:Drivers/STM32F4xx_HAL_Driver/Src/stm32f4xx_ll_usb.c ****   if (hc->ep_is_in)
 3283              		.loc 1 1582 0
 3284 00c4 BB68     		ldr	r3, [r7, #8]
 3285 00c6 DB78     		ldrb	r3, [r3, #3]	@ zero_extendqisi2
 3286 00c8 002B     		cmp	r3, #0
 3287 00ca 07D0     		beq	.L244
1583:Drivers/STM32F4xx_HAL_Driver/Src/stm32f4xx_ll_usb.c ****   {
1584:Drivers/STM32F4xx_HAL_Driver/Src/stm32f4xx_ll_usb.c ****     hc->xfer_len = num_packets * hc->max_packet;
 3288              		.loc 1 1584 0
 3289 00cc FB8B     		ldrh	r3, [r7, #30]
 3290 00ce BA68     		ldr	r2, [r7, #8]
 3291 00d0 1289     		ldrh	r2, [r2, #8]
 3292 00d2 02FB03F3 		mul	r3, r2, r3
 3293 00d6 1A46     		mov	r2, r3
 3294 00d8 BB68     		ldr	r3, [r7, #8]
 3295 00da 1A61     		str	r2, [r3, #16]
 3296              	.L244:
1585:Drivers/STM32F4xx_HAL_Driver/Src/stm32f4xx_ll_usb.c ****   }
1586:Drivers/STM32F4xx_HAL_Driver/Src/stm32f4xx_ll_usb.c ****   
1587:Drivers/STM32F4xx_HAL_Driver/Src/stm32f4xx_ll_usb.c ****   /* Initialize the HCTSIZn register */
1588:Drivers/STM32F4xx_HAL_Driver/Src/stm32f4xx_ll_usb.c ****   USBx_HC(hc->ch_num)->HCTSIZ = (((hc->xfer_len) & USB_OTG_HCTSIZ_XFRSIZ)) |\
 3297              		.loc 1 1588 0
 3298 00dc BB68     		ldr	r3, [r7, #8]
 3299 00de 5B78     		ldrb	r3, [r3, #1]	@ zero_extendqisi2
ARM GAS  /var/folders/7p/1_dhylqx7nl5s8914_0f_4w00000gn/T//ccJwiRQE.s 			page 88


 3300 00e0 5A01     		lsls	r2, r3, #5
 3301 00e2 FB68     		ldr	r3, [r7, #12]
 3302 00e4 1344     		add	r3, r3, r2
 3303 00e6 03F5A063 		add	r3, r3, #1280
 3304 00ea 1946     		mov	r1, r3
 3305 00ec BB68     		ldr	r3, [r7, #8]
 3306 00ee 1B69     		ldr	r3, [r3, #16]
 3307 00f0 C3F31202 		ubfx	r2, r3, #0, #19
1589:Drivers/STM32F4xx_HAL_Driver/Src/stm32f4xx_ll_usb.c ****     ((num_packets << 19U) & USB_OTG_HCTSIZ_PKTCNT) |\
 3308              		.loc 1 1589 0
 3309 00f4 FB8B     		ldrh	r3, [r7, #30]
 3310 00f6 DB04     		lsls	r3, r3, #19
 3311 00f8 1846     		mov	r0, r3
 3312              	.LVL273:
 3313 00fa 5F4B     		ldr	r3, .L257
 3314 00fc 0340     		ands	r3, r3, r0
1588:Drivers/STM32F4xx_HAL_Driver/Src/stm32f4xx_ll_usb.c ****     ((num_packets << 19U) & USB_OTG_HCTSIZ_PKTCNT) |\
 3315              		.loc 1 1588 0
 3316 00fe 1A43     		orrs	r2, r2, r3
1590:Drivers/STM32F4xx_HAL_Driver/Src/stm32f4xx_ll_usb.c ****       (((hc->data_pid) << 29U) & USB_OTG_HCTSIZ_DPID);
 3317              		.loc 1 1590 0
 3318 0100 BB68     		ldr	r3, [r7, #8]
 3319 0102 9B7A     		ldrb	r3, [r3, #10]	@ zero_extendqisi2
 3320 0104 5B07     		lsls	r3, r3, #29
 3321 0106 03F0C043 		and	r3, r3, #1610612736
1589:Drivers/STM32F4xx_HAL_Driver/Src/stm32f4xx_ll_usb.c ****     ((num_packets << 19U) & USB_OTG_HCTSIZ_PKTCNT) |\
 3322              		.loc 1 1589 0
 3323 010a 1343     		orrs	r3, r3, r2
1588:Drivers/STM32F4xx_HAL_Driver/Src/stm32f4xx_ll_usb.c ****     ((num_packets << 19U) & USB_OTG_HCTSIZ_PKTCNT) |\
 3324              		.loc 1 1588 0
 3325 010c 0B61     		str	r3, [r1, #16]
1591:Drivers/STM32F4xx_HAL_Driver/Src/stm32f4xx_ll_usb.c ****   
1592:Drivers/STM32F4xx_HAL_Driver/Src/stm32f4xx_ll_usb.c ****   if (dma)
 3326              		.loc 1 1592 0
 3327 010e FB79     		ldrb	r3, [r7, #7]	@ zero_extendqisi2
 3328 0110 002B     		cmp	r3, #0
 3329 0112 0AD0     		beq	.L245
1593:Drivers/STM32F4xx_HAL_Driver/Src/stm32f4xx_ll_usb.c ****   {
1594:Drivers/STM32F4xx_HAL_Driver/Src/stm32f4xx_ll_usb.c ****     /* xfer_buff MUST be 32-bits aligned */
1595:Drivers/STM32F4xx_HAL_Driver/Src/stm32f4xx_ll_usb.c ****     USBx_HC(hc->ch_num)->HCDMA = (uint32_t)hc->xfer_buff;
 3330              		.loc 1 1595 0
 3331 0114 BB68     		ldr	r3, [r7, #8]
 3332 0116 5B78     		ldrb	r3, [r3, #1]	@ zero_extendqisi2
 3333 0118 5A01     		lsls	r2, r3, #5
 3334 011a FB68     		ldr	r3, [r7, #12]
 3335 011c 1344     		add	r3, r3, r2
 3336 011e 03F5A063 		add	r3, r3, #1280
 3337 0122 1A46     		mov	r2, r3
 3338 0124 BB68     		ldr	r3, [r7, #8]
 3339 0126 DB68     		ldr	r3, [r3, #12]
 3340 0128 5361     		str	r3, [r2, #20]
 3341              	.L245:
1596:Drivers/STM32F4xx_HAL_Driver/Src/stm32f4xx_ll_usb.c ****   }
1597:Drivers/STM32F4xx_HAL_Driver/Src/stm32f4xx_ll_usb.c ****   
1598:Drivers/STM32F4xx_HAL_Driver/Src/stm32f4xx_ll_usb.c ****   is_oddframe = (USBx_HOST->HFNUM & 0x01) ? 0 : 1;
 3342              		.loc 1 1598 0
 3343 012a FB68     		ldr	r3, [r7, #12]
ARM GAS  /var/folders/7p/1_dhylqx7nl5s8914_0f_4w00000gn/T//ccJwiRQE.s 			page 89


 3344 012c 03F58063 		add	r3, r3, #1024
 3345 0130 9B68     		ldr	r3, [r3, #8]
 3346 0132 03F00103 		and	r3, r3, #1
 3347 0136 002B     		cmp	r3, #0
 3348 0138 0CBF     		ite	eq
 3349 013a 0123     		moveq	r3, #1
 3350 013c 0023     		movne	r3, #0
 3351 013e DBB2     		uxtb	r3, r3
 3352 0140 7B77     		strb	r3, [r7, #29]
 3353              	.LVL274:
1599:Drivers/STM32F4xx_HAL_Driver/Src/stm32f4xx_ll_usb.c ****   USBx_HC(hc->ch_num)->HCCHAR &= ~USB_OTG_HCCHAR_ODDFRM;
 3354              		.loc 1 1599 0
 3355 0142 BB68     		ldr	r3, [r7, #8]
 3356              	.LVL275:
 3357 0144 5B78     		ldrb	r3, [r3, #1]	@ zero_extendqisi2
 3358 0146 5A01     		lsls	r2, r3, #5
 3359 0148 FB68     		ldr	r3, [r7, #12]
 3360 014a 1344     		add	r3, r3, r2
 3361 014c 03F5A063 		add	r3, r3, #1280
 3362 0150 1946     		mov	r1, r3
 3363 0152 BB68     		ldr	r3, [r7, #8]
 3364 0154 5B78     		ldrb	r3, [r3, #1]	@ zero_extendqisi2
 3365 0156 5A01     		lsls	r2, r3, #5
 3366 0158 FB68     		ldr	r3, [r7, #12]
 3367 015a 1344     		add	r3, r3, r2
 3368 015c 03F5A063 		add	r3, r3, #1280
 3369 0160 1B68     		ldr	r3, [r3]
 3370 0162 23F00053 		bic	r3, r3, #536870912
 3371 0166 0B60     		str	r3, [r1]
1600:Drivers/STM32F4xx_HAL_Driver/Src/stm32f4xx_ll_usb.c ****   USBx_HC(hc->ch_num)->HCCHAR |= (is_oddframe << 29);
 3372              		.loc 1 1600 0
 3373 0168 BB68     		ldr	r3, [r7, #8]
 3374 016a 5B78     		ldrb	r3, [r3, #1]	@ zero_extendqisi2
 3375 016c 5A01     		lsls	r2, r3, #5
 3376 016e FB68     		ldr	r3, [r7, #12]
 3377 0170 1344     		add	r3, r3, r2
 3378 0172 03F5A063 		add	r3, r3, #1280
 3379 0176 1946     		mov	r1, r3
 3380 0178 BB68     		ldr	r3, [r7, #8]
 3381 017a 5B78     		ldrb	r3, [r3, #1]	@ zero_extendqisi2
 3382 017c 5A01     		lsls	r2, r3, #5
 3383 017e FB68     		ldr	r3, [r7, #12]
 3384 0180 1344     		add	r3, r3, r2
 3385 0182 03F5A063 		add	r3, r3, #1280
 3386 0186 1B68     		ldr	r3, [r3]
 3387 0188 7A7F     		ldrb	r2, [r7, #29]	@ zero_extendqisi2
 3388 018a 5207     		lsls	r2, r2, #29
 3389 018c 1343     		orrs	r3, r3, r2
 3390 018e 0B60     		str	r3, [r1]
1601:Drivers/STM32F4xx_HAL_Driver/Src/stm32f4xx_ll_usb.c ****   
1602:Drivers/STM32F4xx_HAL_Driver/Src/stm32f4xx_ll_usb.c ****   /* Set host channel enable */
1603:Drivers/STM32F4xx_HAL_Driver/Src/stm32f4xx_ll_usb.c ****   tmpreg = USBx_HC(hc->ch_num)->HCCHAR;
 3391              		.loc 1 1603 0
 3392 0190 BB68     		ldr	r3, [r7, #8]
 3393 0192 5B78     		ldrb	r3, [r3, #1]	@ zero_extendqisi2
 3394 0194 5A01     		lsls	r2, r3, #5
 3395 0196 FB68     		ldr	r3, [r7, #12]
ARM GAS  /var/folders/7p/1_dhylqx7nl5s8914_0f_4w00000gn/T//ccJwiRQE.s 			page 90


 3396 0198 1344     		add	r3, r3, r2
 3397 019a 03F5A063 		add	r3, r3, #1280
 3398 019e 1B68     		ldr	r3, [r3]
 3399 01a0 7B61     		str	r3, [r7, #20]
 3400              	.LVL276:
1604:Drivers/STM32F4xx_HAL_Driver/Src/stm32f4xx_ll_usb.c ****   tmpreg &= ~USB_OTG_HCCHAR_CHDIS;
 3401              		.loc 1 1604 0
 3402 01a2 7B69     		ldr	r3, [r7, #20]
 3403 01a4 23F08043 		bic	r3, r3, #1073741824
 3404              	.LVL277:
 3405 01a8 7B61     		str	r3, [r7, #20]
 3406              	.LVL278:
1605:Drivers/STM32F4xx_HAL_Driver/Src/stm32f4xx_ll_usb.c ****   tmpreg |= USB_OTG_HCCHAR_CHENA;
 3407              		.loc 1 1605 0
 3408 01aa 7B69     		ldr	r3, [r7, #20]
 3409 01ac 43F00043 		orr	r3, r3, #-2147483648
 3410              	.LVL279:
 3411 01b0 7B61     		str	r3, [r7, #20]
 3412              	.LVL280:
1606:Drivers/STM32F4xx_HAL_Driver/Src/stm32f4xx_ll_usb.c ****   USBx_HC(hc->ch_num)->HCCHAR = tmpreg;
 3413              		.loc 1 1606 0
 3414 01b2 BB68     		ldr	r3, [r7, #8]
 3415              	.LVL281:
 3416 01b4 5B78     		ldrb	r3, [r3, #1]	@ zero_extendqisi2
 3417 01b6 5A01     		lsls	r2, r3, #5
 3418 01b8 FB68     		ldr	r3, [r7, #12]
 3419 01ba 1344     		add	r3, r3, r2
 3420 01bc 03F5A063 		add	r3, r3, #1280
 3421 01c0 1A46     		mov	r2, r3
 3422 01c2 7B69     		ldr	r3, [r7, #20]
 3423 01c4 1360     		str	r3, [r2]
1607:Drivers/STM32F4xx_HAL_Driver/Src/stm32f4xx_ll_usb.c ****   
1608:Drivers/STM32F4xx_HAL_Driver/Src/stm32f4xx_ll_usb.c ****   if (dma == 0) /* Slave mode */
 3424              		.loc 1 1608 0
 3425 01c6 FB79     		ldrb	r3, [r7, #7]	@ zero_extendqisi2
 3426 01c8 002B     		cmp	r3, #0
 3427 01ca 4FD1     		bne	.L246
1609:Drivers/STM32F4xx_HAL_Driver/Src/stm32f4xx_ll_usb.c ****   {  
1610:Drivers/STM32F4xx_HAL_Driver/Src/stm32f4xx_ll_usb.c ****     if((hc->ep_is_in == 0U) && (hc->xfer_len > 0U))
 3428              		.loc 1 1610 0
 3429 01cc BB68     		ldr	r3, [r7, #8]
 3430 01ce DB78     		ldrb	r3, [r3, #3]	@ zero_extendqisi2
 3431 01d0 002B     		cmp	r3, #0
 3432 01d2 4BD1     		bne	.L246
 3433              		.loc 1 1610 0 is_stmt 0 discriminator 1
 3434 01d4 BB68     		ldr	r3, [r7, #8]
 3435 01d6 1B69     		ldr	r3, [r3, #16]
 3436 01d8 002B     		cmp	r3, #0
 3437 01da 47D0     		beq	.L246
1611:Drivers/STM32F4xx_HAL_Driver/Src/stm32f4xx_ll_usb.c ****     {
1612:Drivers/STM32F4xx_HAL_Driver/Src/stm32f4xx_ll_usb.c ****       switch(hc->ep_type) 
 3438              		.loc 1 1612 0 is_stmt 1
 3439 01dc BB68     		ldr	r3, [r7, #8]
 3440 01de DB79     		ldrb	r3, [r3, #7]	@ zero_extendqisi2
 3441 01e0 032B     		cmp	r3, #3
 3442 01e2 31D8     		bhi	.L254
 3443 01e4 01A2     		adr	r2, .L249
ARM GAS  /var/folders/7p/1_dhylqx7nl5s8914_0f_4w00000gn/T//ccJwiRQE.s 			page 91


 3444 01e6 52F823F0 		ldr	pc, [r2, r3, lsl #2]
 3445 01ea 00BF     		.p2align 2
 3446              	.L249:
 3447 01ec FD010000 		.word	.L248+1
 3448 01f0 21020000 		.word	.L250+1
 3449 01f4 FD010000 		.word	.L248+1
 3450 01f8 21020000 		.word	.L250+1
 3451              		.p2align 1
 3452              	.L248:
1613:Drivers/STM32F4xx_HAL_Driver/Src/stm32f4xx_ll_usb.c ****       {
1614:Drivers/STM32F4xx_HAL_Driver/Src/stm32f4xx_ll_usb.c ****         /* Non periodic transfer */
1615:Drivers/STM32F4xx_HAL_Driver/Src/stm32f4xx_ll_usb.c ****       case EP_TYPE_CTRL:
1616:Drivers/STM32F4xx_HAL_Driver/Src/stm32f4xx_ll_usb.c ****       case EP_TYPE_BULK:
1617:Drivers/STM32F4xx_HAL_Driver/Src/stm32f4xx_ll_usb.c ****         
1618:Drivers/STM32F4xx_HAL_Driver/Src/stm32f4xx_ll_usb.c ****         len_words = (hc->xfer_len + 3) / 4;
 3453              		.loc 1 1618 0
 3454 01fc BB68     		ldr	r3, [r7, #8]
 3455 01fe 1B69     		ldr	r3, [r3, #16]
 3456 0200 0333     		adds	r3, r3, #3
 3457 0202 9B08     		lsrs	r3, r3, #2
 3458 0204 7B83     		strh	r3, [r7, #26]	@ movhi
 3459              	.LVL282:
1619:Drivers/STM32F4xx_HAL_Driver/Src/stm32f4xx_ll_usb.c ****         
1620:Drivers/STM32F4xx_HAL_Driver/Src/stm32f4xx_ll_usb.c ****         /* check if there is enough space in FIFO space */
1621:Drivers/STM32F4xx_HAL_Driver/Src/stm32f4xx_ll_usb.c ****         if(len_words > (USBx->HNPTXSTS & 0xFFFF))
 3460              		.loc 1 1621 0
 3461 0206 7A8B     		ldrh	r2, [r7, #26]
 3462 0208 FB68     		ldr	r3, [r7, #12]
 3463              	.LVL283:
 3464 020a DB6A     		ldr	r3, [r3, #44]
 3465 020c 9BB2     		uxth	r3, r3
 3466 020e 9A42     		cmp	r2, r3
 3467 0210 1CD9     		bls	.L255
1622:Drivers/STM32F4xx_HAL_Driver/Src/stm32f4xx_ll_usb.c ****         {
1623:Drivers/STM32F4xx_HAL_Driver/Src/stm32f4xx_ll_usb.c ****           /* need to process data in nptxfempty interrupt */
1624:Drivers/STM32F4xx_HAL_Driver/Src/stm32f4xx_ll_usb.c ****           USBx->GINTMSK |= USB_OTG_GINTMSK_NPTXFEM;
 3468              		.loc 1 1624 0
 3469 0212 FB68     		ldr	r3, [r7, #12]
 3470 0214 9B69     		ldr	r3, [r3, #24]
 3471 0216 43F02002 		orr	r2, r3, #32
 3472 021a FB68     		ldr	r3, [r7, #12]
 3473 021c 9A61     		str	r2, [r3, #24]
1625:Drivers/STM32F4xx_HAL_Driver/Src/stm32f4xx_ll_usb.c ****         }
1626:Drivers/STM32F4xx_HAL_Driver/Src/stm32f4xx_ll_usb.c ****         break;
 3474              		.loc 1 1626 0
 3475 021e 15E0     		b	.L255
 3476              	.L250:
1627:Drivers/STM32F4xx_HAL_Driver/Src/stm32f4xx_ll_usb.c ****         /* Periodic transfer */
1628:Drivers/STM32F4xx_HAL_Driver/Src/stm32f4xx_ll_usb.c ****       case EP_TYPE_INTR:
1629:Drivers/STM32F4xx_HAL_Driver/Src/stm32f4xx_ll_usb.c ****       case EP_TYPE_ISOC:
1630:Drivers/STM32F4xx_HAL_Driver/Src/stm32f4xx_ll_usb.c ****         len_words = (hc->xfer_len + 3) / 4;
 3477              		.loc 1 1630 0
 3478 0220 BB68     		ldr	r3, [r7, #8]
 3479 0222 1B69     		ldr	r3, [r3, #16]
 3480 0224 0333     		adds	r3, r3, #3
 3481 0226 9B08     		lsrs	r3, r3, #2
 3482 0228 7B83     		strh	r3, [r7, #26]	@ movhi
ARM GAS  /var/folders/7p/1_dhylqx7nl5s8914_0f_4w00000gn/T//ccJwiRQE.s 			page 92


 3483              	.LVL284:
1631:Drivers/STM32F4xx_HAL_Driver/Src/stm32f4xx_ll_usb.c ****         /* check if there is enough space in FIFO space */
1632:Drivers/STM32F4xx_HAL_Driver/Src/stm32f4xx_ll_usb.c ****         if(len_words > (USBx_HOST->HPTXSTS & 0xFFFF)) /* split the transfer */
 3484              		.loc 1 1632 0
 3485 022a 7A8B     		ldrh	r2, [r7, #26]
 3486 022c FB68     		ldr	r3, [r7, #12]
 3487              	.LVL285:
 3488 022e 03F58063 		add	r3, r3, #1024
 3489 0232 1B69     		ldr	r3, [r3, #16]
 3490 0234 9BB2     		uxth	r3, r3
 3491 0236 9A42     		cmp	r2, r3
 3492 0238 0AD9     		bls	.L256
1633:Drivers/STM32F4xx_HAL_Driver/Src/stm32f4xx_ll_usb.c ****         {
1634:Drivers/STM32F4xx_HAL_Driver/Src/stm32f4xx_ll_usb.c ****           /* need to process data in ptxfempty interrupt */
1635:Drivers/STM32F4xx_HAL_Driver/Src/stm32f4xx_ll_usb.c ****           USBx->GINTMSK |= USB_OTG_GINTMSK_PTXFEM;          
 3493              		.loc 1 1635 0
 3494 023a FB68     		ldr	r3, [r7, #12]
 3495 023c 9B69     		ldr	r3, [r3, #24]
 3496 023e 43F08062 		orr	r2, r3, #67108864
 3497 0242 FB68     		ldr	r3, [r7, #12]
 3498 0244 9A61     		str	r2, [r3, #24]
1636:Drivers/STM32F4xx_HAL_Driver/Src/stm32f4xx_ll_usb.c ****         }
1637:Drivers/STM32F4xx_HAL_Driver/Src/stm32f4xx_ll_usb.c ****         break;
 3499              		.loc 1 1637 0
 3500 0246 03E0     		b	.L256
 3501              	.L254:
1638:Drivers/STM32F4xx_HAL_Driver/Src/stm32f4xx_ll_usb.c ****         
1639:Drivers/STM32F4xx_HAL_Driver/Src/stm32f4xx_ll_usb.c ****       default:
1640:Drivers/STM32F4xx_HAL_Driver/Src/stm32f4xx_ll_usb.c ****         break;
 3502              		.loc 1 1640 0
 3503 0248 00BF     		nop
 3504 024a 02E0     		b	.L252
 3505              	.L255:
1626:Drivers/STM32F4xx_HAL_Driver/Src/stm32f4xx_ll_usb.c ****         /* Periodic transfer */
 3506              		.loc 1 1626 0
 3507 024c 00BF     		nop
 3508 024e 00E0     		b	.L252
 3509              	.L256:
1637:Drivers/STM32F4xx_HAL_Driver/Src/stm32f4xx_ll_usb.c ****         
 3510              		.loc 1 1637 0
 3511 0250 00BF     		nop
 3512              	.L252:
1641:Drivers/STM32F4xx_HAL_Driver/Src/stm32f4xx_ll_usb.c ****       }
1642:Drivers/STM32F4xx_HAL_Driver/Src/stm32f4xx_ll_usb.c ****       
1643:Drivers/STM32F4xx_HAL_Driver/Src/stm32f4xx_ll_usb.c ****       /* Write packet into the Tx FIFO. */
1644:Drivers/STM32F4xx_HAL_Driver/Src/stm32f4xx_ll_usb.c ****       USB_WritePacket(USBx, hc->xfer_buff, hc->ch_num, hc->xfer_len, 0);
 3513              		.loc 1 1644 0
 3514 0252 BB68     		ldr	r3, [r7, #8]
 3515 0254 D968     		ldr	r1, [r3, #12]
 3516 0256 BB68     		ldr	r3, [r7, #8]
 3517 0258 5A78     		ldrb	r2, [r3, #1]	@ zero_extendqisi2
 3518 025a BB68     		ldr	r3, [r7, #8]
 3519 025c 1B69     		ldr	r3, [r3, #16]
 3520 025e 98B2     		uxth	r0, r3
 3521 0260 0023     		movs	r3, #0
 3522 0262 0093     		str	r3, [sp]
 3523 0264 0346     		mov	r3, r0
ARM GAS  /var/folders/7p/1_dhylqx7nl5s8914_0f_4w00000gn/T//ccJwiRQE.s 			page 93


 3524 0266 F868     		ldr	r0, [r7, #12]
 3525 0268 FFF7FEFF 		bl	USB_WritePacket
 3526              	.LVL286:
 3527              	.L246:
1645:Drivers/STM32F4xx_HAL_Driver/Src/stm32f4xx_ll_usb.c ****     }
1646:Drivers/STM32F4xx_HAL_Driver/Src/stm32f4xx_ll_usb.c ****   }
1647:Drivers/STM32F4xx_HAL_Driver/Src/stm32f4xx_ll_usb.c ****   
1648:Drivers/STM32F4xx_HAL_Driver/Src/stm32f4xx_ll_usb.c ****   return HAL_OK;
 3528              		.loc 1 1648 0
 3529 026c 0023     		movs	r3, #0
 3530              	.L240:
1649:Drivers/STM32F4xx_HAL_Driver/Src/stm32f4xx_ll_usb.c **** }
 3531              		.loc 1 1649 0
 3532 026e 1846     		mov	r0, r3
 3533 0270 2037     		adds	r7, r7, #32
 3534              	.LCFI56:
 3535              		.cfi_def_cfa_offset 8
 3536 0272 BD46     		mov	sp, r7
 3537              	.LCFI57:
 3538              		.cfi_def_cfa_register 13
 3539              	.LVL287:
 3540              		@ sp needed
 3541 0274 80BD     		pop	{r7, pc}
 3542              	.L258:
 3543 0276 00BF     		.align	2
 3544              	.L257:
 3545 0278 0000F81F 		.word	536346624
 3546              		.cfi_endproc
 3547              	.LFE164:
 3549              		.section	.text.USB_HC_ReadInterrupt,"ax",%progbits
 3550              		.align	1
 3551              		.global	USB_HC_ReadInterrupt
 3552              		.syntax unified
 3553              		.thumb
 3554              		.thumb_func
 3555              		.fpu fpv4-sp-d16
 3557              	USB_HC_ReadInterrupt:
 3558              	.LFB165:
1650:Drivers/STM32F4xx_HAL_Driver/Src/stm32f4xx_ll_usb.c **** 
1651:Drivers/STM32F4xx_HAL_Driver/Src/stm32f4xx_ll_usb.c **** /**
1652:Drivers/STM32F4xx_HAL_Driver/Src/stm32f4xx_ll_usb.c ****   * @brief Read all host channel interrupts status
1653:Drivers/STM32F4xx_HAL_Driver/Src/stm32f4xx_ll_usb.c ****   * @param  USBx : Selected device
1654:Drivers/STM32F4xx_HAL_Driver/Src/stm32f4xx_ll_usb.c ****   * @retval HAL state
1655:Drivers/STM32F4xx_HAL_Driver/Src/stm32f4xx_ll_usb.c ****   */
1656:Drivers/STM32F4xx_HAL_Driver/Src/stm32f4xx_ll_usb.c **** uint32_t USB_HC_ReadInterrupt (USB_OTG_GlobalTypeDef *USBx)
1657:Drivers/STM32F4xx_HAL_Driver/Src/stm32f4xx_ll_usb.c **** {
 3559              		.loc 1 1657 0
 3560              		.cfi_startproc
 3561              		@ args = 0, pretend = 0, frame = 8
 3562              		@ frame_needed = 1, uses_anonymous_args = 0
 3563              		@ link register save eliminated.
 3564              	.LVL288:
 3565 0000 80B4     		push	{r7}
 3566              	.LCFI58:
 3567              		.cfi_def_cfa_offset 4
 3568              		.cfi_offset 7, -4
 3569 0002 83B0     		sub	sp, sp, #12
ARM GAS  /var/folders/7p/1_dhylqx7nl5s8914_0f_4w00000gn/T//ccJwiRQE.s 			page 94


 3570              	.LCFI59:
 3571              		.cfi_def_cfa_offset 16
 3572 0004 00AF     		add	r7, sp, #0
 3573              	.LCFI60:
 3574              		.cfi_def_cfa_register 7
 3575 0006 7860     		str	r0, [r7, #4]
1658:Drivers/STM32F4xx_HAL_Driver/Src/stm32f4xx_ll_usb.c ****   return ((USBx_HOST->HAINT) & 0xFFFFU);
 3576              		.loc 1 1658 0
 3577 0008 7B68     		ldr	r3, [r7, #4]
 3578 000a 03F58063 		add	r3, r3, #1024
 3579 000e 5B69     		ldr	r3, [r3, #20]
 3580 0010 9BB2     		uxth	r3, r3
1659:Drivers/STM32F4xx_HAL_Driver/Src/stm32f4xx_ll_usb.c **** }
 3581              		.loc 1 1659 0
 3582 0012 1846     		mov	r0, r3
 3583              	.LVL289:
 3584 0014 0C37     		adds	r7, r7, #12
 3585              	.LCFI61:
 3586              		.cfi_def_cfa_offset 4
 3587              	.LVL290:
 3588 0016 BD46     		mov	sp, r7
 3589              	.LCFI62:
 3590              		.cfi_def_cfa_register 13
 3591              		@ sp needed
 3592 0018 5DF8047B 		ldr	r7, [sp], #4
 3593              	.LCFI63:
 3594              		.cfi_restore 7
 3595              		.cfi_def_cfa_offset 0
 3596              	.LVL291:
 3597 001c 7047     		bx	lr
 3598              		.cfi_endproc
 3599              	.LFE165:
 3601              		.section	.text.USB_HC_Halt,"ax",%progbits
 3602              		.align	1
 3603              		.global	USB_HC_Halt
 3604              		.syntax unified
 3605              		.thumb
 3606              		.thumb_func
 3607              		.fpu fpv4-sp-d16
 3609              	USB_HC_Halt:
 3610              	.LFB166:
1660:Drivers/STM32F4xx_HAL_Driver/Src/stm32f4xx_ll_usb.c **** 
1661:Drivers/STM32F4xx_HAL_Driver/Src/stm32f4xx_ll_usb.c **** /**
1662:Drivers/STM32F4xx_HAL_Driver/Src/stm32f4xx_ll_usb.c ****   * @brief  Halt a host channel
1663:Drivers/STM32F4xx_HAL_Driver/Src/stm32f4xx_ll_usb.c ****   * @param  USBx : Selected device
1664:Drivers/STM32F4xx_HAL_Driver/Src/stm32f4xx_ll_usb.c ****   * @param  hc_num : Host Channel number
1665:Drivers/STM32F4xx_HAL_Driver/Src/stm32f4xx_ll_usb.c ****   *         This parameter can be a value from 1 to 15
1666:Drivers/STM32F4xx_HAL_Driver/Src/stm32f4xx_ll_usb.c ****   * @retval HAL state
1667:Drivers/STM32F4xx_HAL_Driver/Src/stm32f4xx_ll_usb.c ****   */
1668:Drivers/STM32F4xx_HAL_Driver/Src/stm32f4xx_ll_usb.c **** HAL_StatusTypeDef USB_HC_Halt(USB_OTG_GlobalTypeDef *USBx , uint8_t hc_num)
1669:Drivers/STM32F4xx_HAL_Driver/Src/stm32f4xx_ll_usb.c **** {
 3611              		.loc 1 1669 0
 3612              		.cfi_startproc
 3613              		@ args = 0, pretend = 0, frame = 16
 3614              		@ frame_needed = 1, uses_anonymous_args = 0
 3615              		@ link register save eliminated.
 3616              	.LVL292:
ARM GAS  /var/folders/7p/1_dhylqx7nl5s8914_0f_4w00000gn/T//ccJwiRQE.s 			page 95


 3617 0000 80B4     		push	{r7}
 3618              	.LCFI64:
 3619              		.cfi_def_cfa_offset 4
 3620              		.cfi_offset 7, -4
 3621 0002 85B0     		sub	sp, sp, #20
 3622              	.LCFI65:
 3623              		.cfi_def_cfa_offset 24
 3624 0004 00AF     		add	r7, sp, #0
 3625              	.LCFI66:
 3626              		.cfi_def_cfa_register 7
 3627 0006 7860     		str	r0, [r7, #4]
 3628 0008 0B46     		mov	r3, r1
 3629 000a FB70     		strb	r3, [r7, #3]
1670:Drivers/STM32F4xx_HAL_Driver/Src/stm32f4xx_ll_usb.c ****   uint32_t count = 0U;
 3630              		.loc 1 1670 0
 3631 000c 0023     		movs	r3, #0
 3632 000e FB60     		str	r3, [r7, #12]
 3633              	.LVL293:
1671:Drivers/STM32F4xx_HAL_Driver/Src/stm32f4xx_ll_usb.c ****   
1672:Drivers/STM32F4xx_HAL_Driver/Src/stm32f4xx_ll_usb.c ****   /* Check for space in the request queue to issue the halt. */
1673:Drivers/STM32F4xx_HAL_Driver/Src/stm32f4xx_ll_usb.c ****   if (((((USBx_HC(hc_num)->HCCHAR) & USB_OTG_HCCHAR_EPTYP) >> 18) == HCCHAR_CTRL) || (((((USBx_HC(h
 3634              		.loc 1 1673 0
 3635 0010 FB78     		ldrb	r3, [r7, #3]	@ zero_extendqisi2
 3636              	.LVL294:
 3637 0012 5A01     		lsls	r2, r3, #5
 3638 0014 7B68     		ldr	r3, [r7, #4]
 3639 0016 1344     		add	r3, r3, r2
 3640 0018 03F5A063 		add	r3, r3, #1280
 3641 001c 1B68     		ldr	r3, [r3]
 3642 001e 9B0C     		lsrs	r3, r3, #18
 3643 0020 03F00303 		and	r3, r3, #3
 3644 0024 002B     		cmp	r3, #0
 3645 0026 0BD0     		beq	.L262
 3646              		.loc 1 1673 0 is_stmt 0 discriminator 1
 3647 0028 FB78     		ldrb	r3, [r7, #3]	@ zero_extendqisi2
 3648 002a 5A01     		lsls	r2, r3, #5
 3649 002c 7B68     		ldr	r3, [r7, #4]
 3650 002e 1344     		add	r3, r3, r2
 3651 0030 03F5A063 		add	r3, r3, #1280
 3652 0034 1B68     		ldr	r3, [r3]
1674:Drivers/STM32F4xx_HAL_Driver/Src/stm32f4xx_ll_usb.c ****   USB_OTG_HCCHAR_EPTYP) >> 18) == HCCHAR_BULK)))
 3653              		.loc 1 1674 0 is_stmt 1 discriminator 1
 3654 0036 9B0C     		lsrs	r3, r3, #18
 3655 0038 03F00303 		and	r3, r3, #3
1673:Drivers/STM32F4xx_HAL_Driver/Src/stm32f4xx_ll_usb.c ****   USB_OTG_HCCHAR_EPTYP) >> 18) == HCCHAR_BULK)))
 3656              		.loc 1 1673 0 discriminator 1
 3657 003c 022B     		cmp	r3, #2
 3658 003e 60D1     		bne	.L263
 3659              	.L262:
1675:Drivers/STM32F4xx_HAL_Driver/Src/stm32f4xx_ll_usb.c ****   {
1676:Drivers/STM32F4xx_HAL_Driver/Src/stm32f4xx_ll_usb.c ****     USBx_HC(hc_num)->HCCHAR |= USB_OTG_HCCHAR_CHDIS;
 3660              		.loc 1 1676 0
 3661 0040 FB78     		ldrb	r3, [r7, #3]	@ zero_extendqisi2
 3662 0042 5A01     		lsls	r2, r3, #5
 3663 0044 7B68     		ldr	r3, [r7, #4]
 3664 0046 1344     		add	r3, r3, r2
 3665 0048 03F5A063 		add	r3, r3, #1280
ARM GAS  /var/folders/7p/1_dhylqx7nl5s8914_0f_4w00000gn/T//ccJwiRQE.s 			page 96


 3666 004c 1946     		mov	r1, r3
 3667              	.LVL295:
 3668 004e FB78     		ldrb	r3, [r7, #3]	@ zero_extendqisi2
 3669 0050 5A01     		lsls	r2, r3, #5
 3670 0052 7B68     		ldr	r3, [r7, #4]
 3671 0054 1344     		add	r3, r3, r2
 3672 0056 03F5A063 		add	r3, r3, #1280
 3673 005a 1B68     		ldr	r3, [r3]
 3674 005c 43F08043 		orr	r3, r3, #1073741824
 3675 0060 0B60     		str	r3, [r1]
1677:Drivers/STM32F4xx_HAL_Driver/Src/stm32f4xx_ll_usb.c ****     
1678:Drivers/STM32F4xx_HAL_Driver/Src/stm32f4xx_ll_usb.c ****     if ((USBx->HNPTXSTS & 0xFF0000U) == 0U)
 3676              		.loc 1 1678 0
 3677 0062 7B68     		ldr	r3, [r7, #4]
 3678 0064 DB6A     		ldr	r3, [r3, #44]
 3679 0066 03F47F03 		and	r3, r3, #16711680
 3680 006a 002B     		cmp	r3, #0
 3681 006c 35D1     		bne	.L264
1679:Drivers/STM32F4xx_HAL_Driver/Src/stm32f4xx_ll_usb.c ****     {
1680:Drivers/STM32F4xx_HAL_Driver/Src/stm32f4xx_ll_usb.c ****       USBx_HC(hc_num)->HCCHAR &= ~USB_OTG_HCCHAR_CHENA;
 3682              		.loc 1 1680 0
 3683 006e FB78     		ldrb	r3, [r7, #3]	@ zero_extendqisi2
 3684 0070 5A01     		lsls	r2, r3, #5
 3685 0072 7B68     		ldr	r3, [r7, #4]
 3686 0074 1344     		add	r3, r3, r2
 3687 0076 03F5A063 		add	r3, r3, #1280
 3688 007a 1946     		mov	r1, r3
 3689 007c FB78     		ldrb	r3, [r7, #3]	@ zero_extendqisi2
 3690 007e 5A01     		lsls	r2, r3, #5
 3691 0080 7B68     		ldr	r3, [r7, #4]
 3692 0082 1344     		add	r3, r3, r2
 3693 0084 03F5A063 		add	r3, r3, #1280
 3694 0088 1B68     		ldr	r3, [r3]
 3695 008a 23F00043 		bic	r3, r3, #-2147483648
 3696 008e 0B60     		str	r3, [r1]
1681:Drivers/STM32F4xx_HAL_Driver/Src/stm32f4xx_ll_usb.c ****       USBx_HC(hc_num)->HCCHAR |= USB_OTG_HCCHAR_CHENA;  
 3697              		.loc 1 1681 0
 3698 0090 FB78     		ldrb	r3, [r7, #3]	@ zero_extendqisi2
 3699 0092 5A01     		lsls	r2, r3, #5
 3700 0094 7B68     		ldr	r3, [r7, #4]
 3701 0096 1344     		add	r3, r3, r2
 3702 0098 03F5A063 		add	r3, r3, #1280
 3703 009c 1946     		mov	r1, r3
 3704 009e FB78     		ldrb	r3, [r7, #3]	@ zero_extendqisi2
 3705 00a0 5A01     		lsls	r2, r3, #5
 3706 00a2 7B68     		ldr	r3, [r7, #4]
 3707 00a4 1344     		add	r3, r3, r2
 3708 00a6 03F5A063 		add	r3, r3, #1280
 3709 00aa 1B68     		ldr	r3, [r3]
 3710 00ac 43F00043 		orr	r3, r3, #-2147483648
 3711 00b0 0B60     		str	r3, [r1]
 3712              	.L267:
1682:Drivers/STM32F4xx_HAL_Driver/Src/stm32f4xx_ll_usb.c ****       do 
1683:Drivers/STM32F4xx_HAL_Driver/Src/stm32f4xx_ll_usb.c ****       {
1684:Drivers/STM32F4xx_HAL_Driver/Src/stm32f4xx_ll_usb.c ****         if (++count > 1000U) 
 3713              		.loc 1 1684 0
 3714 00b2 FB68     		ldr	r3, [r7, #12]
ARM GAS  /var/folders/7p/1_dhylqx7nl5s8914_0f_4w00000gn/T//ccJwiRQE.s 			page 97


 3715 00b4 0133     		adds	r3, r3, #1
 3716 00b6 FB60     		str	r3, [r7, #12]
 3717              	.LVL296:
 3718 00b8 FB68     		ldr	r3, [r7, #12]
 3719 00ba B3F57A7F 		cmp	r3, #1000
 3720 00be 1ED8     		bhi	.L276
1685:Drivers/STM32F4xx_HAL_Driver/Src/stm32f4xx_ll_usb.c ****         {
1686:Drivers/STM32F4xx_HAL_Driver/Src/stm32f4xx_ll_usb.c ****           break;
1687:Drivers/STM32F4xx_HAL_Driver/Src/stm32f4xx_ll_usb.c ****         }
1688:Drivers/STM32F4xx_HAL_Driver/Src/stm32f4xx_ll_usb.c ****       } 
1689:Drivers/STM32F4xx_HAL_Driver/Src/stm32f4xx_ll_usb.c ****       while ((USBx_HC(hc_num)->HCCHAR & USB_OTG_HCCHAR_CHENA) == USB_OTG_HCCHAR_CHENA);     
 3721              		.loc 1 1689 0
 3722 00c0 FB78     		ldrb	r3, [r7, #3]	@ zero_extendqisi2
 3723              	.LVL297:
 3724 00c2 5A01     		lsls	r2, r3, #5
 3725 00c4 7B68     		ldr	r3, [r7, #4]
 3726 00c6 1344     		add	r3, r3, r2
 3727 00c8 03F5A063 		add	r3, r3, #1280
 3728 00cc 1B68     		ldr	r3, [r3]
 3729 00ce 03F00043 		and	r3, r3, #-2147483648
 3730 00d2 B3F1004F 		cmp	r3, #-2147483648
 3731 00d6 ECD0     		beq	.L267
1678:Drivers/STM32F4xx_HAL_Driver/Src/stm32f4xx_ll_usb.c ****     {
 3732              		.loc 1 1678 0
 3733 00d8 74E0     		b	.L269
 3734              	.L264:
1690:Drivers/STM32F4xx_HAL_Driver/Src/stm32f4xx_ll_usb.c ****     }
1691:Drivers/STM32F4xx_HAL_Driver/Src/stm32f4xx_ll_usb.c ****     else
1692:Drivers/STM32F4xx_HAL_Driver/Src/stm32f4xx_ll_usb.c ****     {
1693:Drivers/STM32F4xx_HAL_Driver/Src/stm32f4xx_ll_usb.c ****       USBx_HC(hc_num)->HCCHAR |= USB_OTG_HCCHAR_CHENA; 
 3735              		.loc 1 1693 0
 3736 00da FB78     		ldrb	r3, [r7, #3]	@ zero_extendqisi2
 3737 00dc 5A01     		lsls	r2, r3, #5
 3738 00de 7B68     		ldr	r3, [r7, #4]
 3739 00e0 1344     		add	r3, r3, r2
 3740 00e2 03F5A063 		add	r3, r3, #1280
 3741 00e6 1946     		mov	r1, r3
 3742 00e8 FB78     		ldrb	r3, [r7, #3]	@ zero_extendqisi2
 3743 00ea 5A01     		lsls	r2, r3, #5
 3744 00ec 7B68     		ldr	r3, [r7, #4]
 3745 00ee 1344     		add	r3, r3, r2
 3746 00f0 03F5A063 		add	r3, r3, #1280
 3747 00f4 1B68     		ldr	r3, [r3]
 3748 00f6 43F00043 		orr	r3, r3, #-2147483648
 3749 00fa 0B60     		str	r3, [r1]
1678:Drivers/STM32F4xx_HAL_Driver/Src/stm32f4xx_ll_usb.c ****     {
 3750              		.loc 1 1678 0
 3751 00fc 62E0     		b	.L269
 3752              	.LVL298:
 3753              	.L276:
1686:Drivers/STM32F4xx_HAL_Driver/Src/stm32f4xx_ll_usb.c ****         }
 3754              		.loc 1 1686 0
 3755 00fe 00BF     		nop
1678:Drivers/STM32F4xx_HAL_Driver/Src/stm32f4xx_ll_usb.c ****     {
 3756              		.loc 1 1678 0
 3757 0100 60E0     		b	.L269
 3758              	.LVL299:
ARM GAS  /var/folders/7p/1_dhylqx7nl5s8914_0f_4w00000gn/T//ccJwiRQE.s 			page 98


 3759              	.L263:
1694:Drivers/STM32F4xx_HAL_Driver/Src/stm32f4xx_ll_usb.c ****     }
1695:Drivers/STM32F4xx_HAL_Driver/Src/stm32f4xx_ll_usb.c ****   }
1696:Drivers/STM32F4xx_HAL_Driver/Src/stm32f4xx_ll_usb.c ****   else
1697:Drivers/STM32F4xx_HAL_Driver/Src/stm32f4xx_ll_usb.c ****   {
1698:Drivers/STM32F4xx_HAL_Driver/Src/stm32f4xx_ll_usb.c ****     USBx_HC(hc_num)->HCCHAR |= USB_OTG_HCCHAR_CHDIS;
 3760              		.loc 1 1698 0
 3761 0102 FB78     		ldrb	r3, [r7, #3]	@ zero_extendqisi2
 3762 0104 5A01     		lsls	r2, r3, #5
 3763 0106 7B68     		ldr	r3, [r7, #4]
 3764 0108 1344     		add	r3, r3, r2
 3765 010a 03F5A063 		add	r3, r3, #1280
 3766 010e 1946     		mov	r1, r3
 3767              	.LVL300:
 3768 0110 FB78     		ldrb	r3, [r7, #3]	@ zero_extendqisi2
 3769 0112 5A01     		lsls	r2, r3, #5
 3770 0114 7B68     		ldr	r3, [r7, #4]
 3771 0116 1344     		add	r3, r3, r2
 3772 0118 03F5A063 		add	r3, r3, #1280
 3773 011c 1B68     		ldr	r3, [r3]
 3774 011e 43F08043 		orr	r3, r3, #1073741824
 3775 0122 0B60     		str	r3, [r1]
1699:Drivers/STM32F4xx_HAL_Driver/Src/stm32f4xx_ll_usb.c ****     
1700:Drivers/STM32F4xx_HAL_Driver/Src/stm32f4xx_ll_usb.c ****     if ((USBx_HOST->HPTXSTS & 0xFFFFU) == 0U)
 3776              		.loc 1 1700 0
 3777 0124 7B68     		ldr	r3, [r7, #4]
 3778 0126 03F58063 		add	r3, r3, #1024
 3779 012a 1B69     		ldr	r3, [r3, #16]
 3780 012c 9BB2     		uxth	r3, r3
 3781 012e 002B     		cmp	r3, #0
 3782 0130 35D1     		bne	.L270
1701:Drivers/STM32F4xx_HAL_Driver/Src/stm32f4xx_ll_usb.c ****     {
1702:Drivers/STM32F4xx_HAL_Driver/Src/stm32f4xx_ll_usb.c ****       USBx_HC(hc_num)->HCCHAR &= ~USB_OTG_HCCHAR_CHENA;
 3783              		.loc 1 1702 0
 3784 0132 FB78     		ldrb	r3, [r7, #3]	@ zero_extendqisi2
 3785 0134 5A01     		lsls	r2, r3, #5
 3786 0136 7B68     		ldr	r3, [r7, #4]
 3787 0138 1344     		add	r3, r3, r2
 3788 013a 03F5A063 		add	r3, r3, #1280
 3789 013e 1946     		mov	r1, r3
 3790 0140 FB78     		ldrb	r3, [r7, #3]	@ zero_extendqisi2
 3791 0142 5A01     		lsls	r2, r3, #5
 3792 0144 7B68     		ldr	r3, [r7, #4]
 3793 0146 1344     		add	r3, r3, r2
 3794 0148 03F5A063 		add	r3, r3, #1280
 3795 014c 1B68     		ldr	r3, [r3]
 3796 014e 23F00043 		bic	r3, r3, #-2147483648
 3797 0152 0B60     		str	r3, [r1]
1703:Drivers/STM32F4xx_HAL_Driver/Src/stm32f4xx_ll_usb.c ****       USBx_HC(hc_num)->HCCHAR |= USB_OTG_HCCHAR_CHENA;  
 3798              		.loc 1 1703 0
 3799 0154 FB78     		ldrb	r3, [r7, #3]	@ zero_extendqisi2
 3800 0156 5A01     		lsls	r2, r3, #5
 3801 0158 7B68     		ldr	r3, [r7, #4]
 3802 015a 1344     		add	r3, r3, r2
 3803 015c 03F5A063 		add	r3, r3, #1280
 3804 0160 1946     		mov	r1, r3
 3805 0162 FB78     		ldrb	r3, [r7, #3]	@ zero_extendqisi2
ARM GAS  /var/folders/7p/1_dhylqx7nl5s8914_0f_4w00000gn/T//ccJwiRQE.s 			page 99


 3806 0164 5A01     		lsls	r2, r3, #5
 3807 0166 7B68     		ldr	r3, [r7, #4]
 3808 0168 1344     		add	r3, r3, r2
 3809 016a 03F5A063 		add	r3, r3, #1280
 3810 016e 1B68     		ldr	r3, [r3]
 3811 0170 43F00043 		orr	r3, r3, #-2147483648
 3812 0174 0B60     		str	r3, [r1]
 3813              	.L273:
1704:Drivers/STM32F4xx_HAL_Driver/Src/stm32f4xx_ll_usb.c ****       do 
1705:Drivers/STM32F4xx_HAL_Driver/Src/stm32f4xx_ll_usb.c ****       {
1706:Drivers/STM32F4xx_HAL_Driver/Src/stm32f4xx_ll_usb.c ****         if (++count > 1000U) 
 3814              		.loc 1 1706 0
 3815 0176 FB68     		ldr	r3, [r7, #12]
 3816 0178 0133     		adds	r3, r3, #1
 3817 017a FB60     		str	r3, [r7, #12]
 3818              	.LVL301:
 3819 017c FB68     		ldr	r3, [r7, #12]
 3820 017e B3F57A7F 		cmp	r3, #1000
 3821 0182 1ED8     		bhi	.L277
1707:Drivers/STM32F4xx_HAL_Driver/Src/stm32f4xx_ll_usb.c ****         {
1708:Drivers/STM32F4xx_HAL_Driver/Src/stm32f4xx_ll_usb.c ****           break;
1709:Drivers/STM32F4xx_HAL_Driver/Src/stm32f4xx_ll_usb.c ****         }
1710:Drivers/STM32F4xx_HAL_Driver/Src/stm32f4xx_ll_usb.c ****       } 
1711:Drivers/STM32F4xx_HAL_Driver/Src/stm32f4xx_ll_usb.c ****       while ((USBx_HC(hc_num)->HCCHAR & USB_OTG_HCCHAR_CHENA) == USB_OTG_HCCHAR_CHENA);     
 3822              		.loc 1 1711 0
 3823 0184 FB78     		ldrb	r3, [r7, #3]	@ zero_extendqisi2
 3824              	.LVL302:
 3825 0186 5A01     		lsls	r2, r3, #5
 3826 0188 7B68     		ldr	r3, [r7, #4]
 3827 018a 1344     		add	r3, r3, r2
 3828 018c 03F5A063 		add	r3, r3, #1280
 3829 0190 1B68     		ldr	r3, [r3]
 3830 0192 03F00043 		and	r3, r3, #-2147483648
 3831 0196 B3F1004F 		cmp	r3, #-2147483648
 3832 019a ECD0     		beq	.L273
 3833 019c 12E0     		b	.L269
 3834              	.L270:
1712:Drivers/STM32F4xx_HAL_Driver/Src/stm32f4xx_ll_usb.c ****     }
1713:Drivers/STM32F4xx_HAL_Driver/Src/stm32f4xx_ll_usb.c ****     else
1714:Drivers/STM32F4xx_HAL_Driver/Src/stm32f4xx_ll_usb.c ****     {
1715:Drivers/STM32F4xx_HAL_Driver/Src/stm32f4xx_ll_usb.c ****        USBx_HC(hc_num)->HCCHAR |= USB_OTG_HCCHAR_CHENA; 
 3835              		.loc 1 1715 0
 3836 019e FB78     		ldrb	r3, [r7, #3]	@ zero_extendqisi2
 3837 01a0 5A01     		lsls	r2, r3, #5
 3838 01a2 7B68     		ldr	r3, [r7, #4]
 3839 01a4 1344     		add	r3, r3, r2
 3840 01a6 03F5A063 		add	r3, r3, #1280
 3841 01aa 1946     		mov	r1, r3
 3842 01ac FB78     		ldrb	r3, [r7, #3]	@ zero_extendqisi2
 3843 01ae 5A01     		lsls	r2, r3, #5
 3844 01b0 7B68     		ldr	r3, [r7, #4]
 3845 01b2 1344     		add	r3, r3, r2
 3846 01b4 03F5A063 		add	r3, r3, #1280
 3847 01b8 1B68     		ldr	r3, [r3]
 3848 01ba 43F00043 		orr	r3, r3, #-2147483648
 3849 01be 0B60     		str	r3, [r1]
 3850 01c0 00E0     		b	.L269
ARM GAS  /var/folders/7p/1_dhylqx7nl5s8914_0f_4w00000gn/T//ccJwiRQE.s 			page 100


 3851              	.LVL303:
 3852              	.L277:
1708:Drivers/STM32F4xx_HAL_Driver/Src/stm32f4xx_ll_usb.c ****         }
 3853              		.loc 1 1708 0
 3854 01c2 00BF     		nop
 3855              	.LVL304:
 3856              	.L269:
1716:Drivers/STM32F4xx_HAL_Driver/Src/stm32f4xx_ll_usb.c ****     }
1717:Drivers/STM32F4xx_HAL_Driver/Src/stm32f4xx_ll_usb.c ****   }
1718:Drivers/STM32F4xx_HAL_Driver/Src/stm32f4xx_ll_usb.c ****   
1719:Drivers/STM32F4xx_HAL_Driver/Src/stm32f4xx_ll_usb.c ****   return HAL_OK;
 3857              		.loc 1 1719 0
 3858 01c4 0023     		movs	r3, #0
1720:Drivers/STM32F4xx_HAL_Driver/Src/stm32f4xx_ll_usb.c **** }
 3859              		.loc 1 1720 0
 3860 01c6 1846     		mov	r0, r3
 3861              	.LVL305:
 3862 01c8 1437     		adds	r7, r7, #20
 3863              	.LCFI67:
 3864              		.cfi_def_cfa_offset 4
 3865 01ca BD46     		mov	sp, r7
 3866              	.LCFI68:
 3867              		.cfi_def_cfa_register 13
 3868              	.LVL306:
 3869              		@ sp needed
 3870 01cc 5DF8047B 		ldr	r7, [sp], #4
 3871              	.LCFI69:
 3872              		.cfi_restore 7
 3873              		.cfi_def_cfa_offset 0
 3874 01d0 7047     		bx	lr
 3875              		.cfi_endproc
 3876              	.LFE166:
 3878              		.section	.text.USB_DoPing,"ax",%progbits
 3879              		.align	1
 3880              		.global	USB_DoPing
 3881              		.syntax unified
 3882              		.thumb
 3883              		.thumb_func
 3884              		.fpu fpv4-sp-d16
 3886              	USB_DoPing:
 3887              	.LFB167:
1721:Drivers/STM32F4xx_HAL_Driver/Src/stm32f4xx_ll_usb.c **** 
1722:Drivers/STM32F4xx_HAL_Driver/Src/stm32f4xx_ll_usb.c **** /**
1723:Drivers/STM32F4xx_HAL_Driver/Src/stm32f4xx_ll_usb.c ****   * @brief  Initiate Do Ping protocol
1724:Drivers/STM32F4xx_HAL_Driver/Src/stm32f4xx_ll_usb.c ****   * @param  USBx : Selected device
1725:Drivers/STM32F4xx_HAL_Driver/Src/stm32f4xx_ll_usb.c ****   * @param  hc_num : Host Channel number
1726:Drivers/STM32F4xx_HAL_Driver/Src/stm32f4xx_ll_usb.c ****   *         This parameter can be a value from 1 to 15
1727:Drivers/STM32F4xx_HAL_Driver/Src/stm32f4xx_ll_usb.c ****   * @retval HAL state
1728:Drivers/STM32F4xx_HAL_Driver/Src/stm32f4xx_ll_usb.c ****   */
1729:Drivers/STM32F4xx_HAL_Driver/Src/stm32f4xx_ll_usb.c **** HAL_StatusTypeDef USB_DoPing(USB_OTG_GlobalTypeDef *USBx , uint8_t ch_num)
1730:Drivers/STM32F4xx_HAL_Driver/Src/stm32f4xx_ll_usb.c **** {
 3888              		.loc 1 1730 0
 3889              		.cfi_startproc
 3890              		@ args = 0, pretend = 0, frame = 16
 3891              		@ frame_needed = 1, uses_anonymous_args = 0
 3892              		@ link register save eliminated.
 3893              	.LVL307:
ARM GAS  /var/folders/7p/1_dhylqx7nl5s8914_0f_4w00000gn/T//ccJwiRQE.s 			page 101


 3894 0000 80B4     		push	{r7}
 3895              	.LCFI70:
 3896              		.cfi_def_cfa_offset 4
 3897              		.cfi_offset 7, -4
 3898 0002 85B0     		sub	sp, sp, #20
 3899              	.LCFI71:
 3900              		.cfi_def_cfa_offset 24
 3901 0004 00AF     		add	r7, sp, #0
 3902              	.LCFI72:
 3903              		.cfi_def_cfa_register 7
 3904 0006 7860     		str	r0, [r7, #4]
 3905 0008 0B46     		mov	r3, r1
 3906 000a FB70     		strb	r3, [r7, #3]
1731:Drivers/STM32F4xx_HAL_Driver/Src/stm32f4xx_ll_usb.c ****   uint8_t  num_packets = 1U;
 3907              		.loc 1 1731 0
 3908 000c 0123     		movs	r3, #1
 3909 000e FB73     		strb	r3, [r7, #15]
 3910              	.LVL308:
1732:Drivers/STM32F4xx_HAL_Driver/Src/stm32f4xx_ll_usb.c ****   uint32_t tmpreg = 0U;
 3911              		.loc 1 1732 0
 3912 0010 0023     		movs	r3, #0
 3913              	.LVL309:
 3914 0012 BB60     		str	r3, [r7, #8]
 3915              	.LVL310:
1733:Drivers/STM32F4xx_HAL_Driver/Src/stm32f4xx_ll_usb.c **** 
1734:Drivers/STM32F4xx_HAL_Driver/Src/stm32f4xx_ll_usb.c ****   USBx_HC(ch_num)->HCTSIZ = ((num_packets << 19U) & USB_OTG_HCTSIZ_PKTCNT) |\
 3916              		.loc 1 1734 0
 3917 0014 FB78     		ldrb	r3, [r7, #3]	@ zero_extendqisi2
 3918              	.LVL311:
 3919 0016 5A01     		lsls	r2, r3, #5
 3920 0018 7B68     		ldr	r3, [r7, #4]
 3921 001a 1344     		add	r3, r3, r2
 3922 001c 03F5A063 		add	r3, r3, #1280
 3923 0020 1A46     		mov	r2, r3
 3924 0022 FB7B     		ldrb	r3, [r7, #15]	@ zero_extendqisi2
 3925 0024 DB04     		lsls	r3, r3, #19
 3926 0026 1946     		mov	r1, r3
 3927              	.LVL312:
 3928 0028 124B     		ldr	r3, .L280
 3929 002a 0B40     		ands	r3, r3, r1
 3930 002c 43F00043 		orr	r3, r3, #-2147483648
 3931 0030 1361     		str	r3, [r2, #16]
1735:Drivers/STM32F4xx_HAL_Driver/Src/stm32f4xx_ll_usb.c ****                                 USB_OTG_HCTSIZ_DOPING;
1736:Drivers/STM32F4xx_HAL_Driver/Src/stm32f4xx_ll_usb.c ****   
1737:Drivers/STM32F4xx_HAL_Driver/Src/stm32f4xx_ll_usb.c ****   /* Set host channel enable */
1738:Drivers/STM32F4xx_HAL_Driver/Src/stm32f4xx_ll_usb.c ****   tmpreg = USBx_HC(ch_num)->HCCHAR;
 3932              		.loc 1 1738 0
 3933 0032 FB78     		ldrb	r3, [r7, #3]	@ zero_extendqisi2
 3934 0034 5A01     		lsls	r2, r3, #5
 3935 0036 7B68     		ldr	r3, [r7, #4]
 3936 0038 1344     		add	r3, r3, r2
 3937 003a 03F5A063 		add	r3, r3, #1280
 3938 003e 1B68     		ldr	r3, [r3]
 3939 0040 BB60     		str	r3, [r7, #8]
 3940              	.LVL313:
1739:Drivers/STM32F4xx_HAL_Driver/Src/stm32f4xx_ll_usb.c ****   tmpreg &= ~USB_OTG_HCCHAR_CHDIS;
 3941              		.loc 1 1739 0
ARM GAS  /var/folders/7p/1_dhylqx7nl5s8914_0f_4w00000gn/T//ccJwiRQE.s 			page 102


 3942 0042 BB68     		ldr	r3, [r7, #8]
 3943 0044 23F08043 		bic	r3, r3, #1073741824
 3944              	.LVL314:
 3945 0048 BB60     		str	r3, [r7, #8]
 3946              	.LVL315:
1740:Drivers/STM32F4xx_HAL_Driver/Src/stm32f4xx_ll_usb.c ****   tmpreg |= USB_OTG_HCCHAR_CHENA;
 3947              		.loc 1 1740 0
 3948 004a BB68     		ldr	r3, [r7, #8]
 3949 004c 43F00043 		orr	r3, r3, #-2147483648
 3950              	.LVL316:
 3951 0050 BB60     		str	r3, [r7, #8]
 3952              	.LVL317:
1741:Drivers/STM32F4xx_HAL_Driver/Src/stm32f4xx_ll_usb.c ****   USBx_HC(ch_num)->HCCHAR = tmpreg;
 3953              		.loc 1 1741 0
 3954 0052 FB78     		ldrb	r3, [r7, #3]	@ zero_extendqisi2
 3955              	.LVL318:
 3956 0054 5A01     		lsls	r2, r3, #5
 3957 0056 7B68     		ldr	r3, [r7, #4]
 3958 0058 1344     		add	r3, r3, r2
 3959 005a 03F5A063 		add	r3, r3, #1280
 3960 005e 1A46     		mov	r2, r3
 3961 0060 BB68     		ldr	r3, [r7, #8]
 3962 0062 1360     		str	r3, [r2]
1742:Drivers/STM32F4xx_HAL_Driver/Src/stm32f4xx_ll_usb.c ****   
1743:Drivers/STM32F4xx_HAL_Driver/Src/stm32f4xx_ll_usb.c ****   return HAL_OK;  
 3963              		.loc 1 1743 0
 3964 0064 0023     		movs	r3, #0
1744:Drivers/STM32F4xx_HAL_Driver/Src/stm32f4xx_ll_usb.c **** }
 3965              		.loc 1 1744 0
 3966 0066 1846     		mov	r0, r3
 3967              	.LVL319:
 3968 0068 1437     		adds	r7, r7, #20
 3969              	.LCFI73:
 3970              		.cfi_def_cfa_offset 4
 3971 006a BD46     		mov	sp, r7
 3972              	.LCFI74:
 3973              		.cfi_def_cfa_register 13
 3974              	.LVL320:
 3975              		@ sp needed
 3976 006c 5DF8047B 		ldr	r7, [sp], #4
 3977              	.LCFI75:
 3978              		.cfi_restore 7
 3979              		.cfi_def_cfa_offset 0
 3980 0070 7047     		bx	lr
 3981              	.L281:
 3982 0072 00BF     		.align	2
 3983              	.L280:
 3984 0074 0000F81F 		.word	536346624
 3985              		.cfi_endproc
 3986              	.LFE167:
 3988              		.section	.text.USB_StopHost,"ax",%progbits
 3989              		.align	1
 3990              		.global	USB_StopHost
 3991              		.syntax unified
 3992              		.thumb
 3993              		.thumb_func
 3994              		.fpu fpv4-sp-d16
ARM GAS  /var/folders/7p/1_dhylqx7nl5s8914_0f_4w00000gn/T//ccJwiRQE.s 			page 103


 3996              	USB_StopHost:
 3997              	.LFB168:
1745:Drivers/STM32F4xx_HAL_Driver/Src/stm32f4xx_ll_usb.c **** 
1746:Drivers/STM32F4xx_HAL_Driver/Src/stm32f4xx_ll_usb.c **** /**
1747:Drivers/STM32F4xx_HAL_Driver/Src/stm32f4xx_ll_usb.c ****   * @brief  Stop Host Core
1748:Drivers/STM32F4xx_HAL_Driver/Src/stm32f4xx_ll_usb.c ****   * @param  USBx : Selected device
1749:Drivers/STM32F4xx_HAL_Driver/Src/stm32f4xx_ll_usb.c ****   * @retval HAL state
1750:Drivers/STM32F4xx_HAL_Driver/Src/stm32f4xx_ll_usb.c ****   */
1751:Drivers/STM32F4xx_HAL_Driver/Src/stm32f4xx_ll_usb.c **** HAL_StatusTypeDef USB_StopHost(USB_OTG_GlobalTypeDef *USBx)
1752:Drivers/STM32F4xx_HAL_Driver/Src/stm32f4xx_ll_usb.c **** {
 3998              		.loc 1 1752 0
 3999              		.cfi_startproc
 4000              		@ args = 0, pretend = 0, frame = 24
 4001              		@ frame_needed = 1, uses_anonymous_args = 0
 4002              	.LVL321:
 4003 0000 80B5     		push	{r7, lr}
 4004              	.LCFI76:
 4005              		.cfi_def_cfa_offset 8
 4006              		.cfi_offset 7, -8
 4007              		.cfi_offset 14, -4
 4008 0002 86B0     		sub	sp, sp, #24
 4009              	.LCFI77:
 4010              		.cfi_def_cfa_offset 32
 4011 0004 00AF     		add	r7, sp, #0
 4012              	.LCFI78:
 4013              		.cfi_def_cfa_register 7
 4014 0006 7860     		str	r0, [r7, #4]
1753:Drivers/STM32F4xx_HAL_Driver/Src/stm32f4xx_ll_usb.c ****   uint8_t i;
1754:Drivers/STM32F4xx_HAL_Driver/Src/stm32f4xx_ll_usb.c ****   uint32_t count = 0U;
 4015              		.loc 1 1754 0
 4016 0008 0023     		movs	r3, #0
 4017 000a 3B61     		str	r3, [r7, #16]
 4018              	.LVL322:
1755:Drivers/STM32F4xx_HAL_Driver/Src/stm32f4xx_ll_usb.c ****   uint32_t value;
1756:Drivers/STM32F4xx_HAL_Driver/Src/stm32f4xx_ll_usb.c ****   
1757:Drivers/STM32F4xx_HAL_Driver/Src/stm32f4xx_ll_usb.c ****   USB_DisableGlobalInt(USBx);
 4019              		.loc 1 1757 0
 4020 000c 7868     		ldr	r0, [r7, #4]
 4021 000e FFF7FEFF 		bl	USB_DisableGlobalInt
 4022              	.LVL323:
1758:Drivers/STM32F4xx_HAL_Driver/Src/stm32f4xx_ll_usb.c ****   
1759:Drivers/STM32F4xx_HAL_Driver/Src/stm32f4xx_ll_usb.c ****     /* Flush FIFO */
1760:Drivers/STM32F4xx_HAL_Driver/Src/stm32f4xx_ll_usb.c ****   USB_FlushTxFifo(USBx, 0x10U);
 4023              		.loc 1 1760 0
 4024 0012 1021     		movs	r1, #16
 4025 0014 7868     		ldr	r0, [r7, #4]
 4026 0016 FFF7FEFF 		bl	USB_FlushTxFifo
 4027              	.LVL324:
1761:Drivers/STM32F4xx_HAL_Driver/Src/stm32f4xx_ll_usb.c ****   USB_FlushRxFifo(USBx);
 4028              		.loc 1 1761 0
 4029 001a 7868     		ldr	r0, [r7, #4]
 4030 001c FFF7FEFF 		bl	USB_FlushRxFifo
 4031              	.LVL325:
1762:Drivers/STM32F4xx_HAL_Driver/Src/stm32f4xx_ll_usb.c ****   
1763:Drivers/STM32F4xx_HAL_Driver/Src/stm32f4xx_ll_usb.c ****   /* Flush out any leftover queued requests. */
1764:Drivers/STM32F4xx_HAL_Driver/Src/stm32f4xx_ll_usb.c ****   for (i = 0; i <= 15; i++)
 4032              		.loc 1 1764 0
ARM GAS  /var/folders/7p/1_dhylqx7nl5s8914_0f_4w00000gn/T//ccJwiRQE.s 			page 104


 4033 0020 0023     		movs	r3, #0
 4034 0022 FB75     		strb	r3, [r7, #23]
 4035              	.LVL326:
 4036 0024 1FE0     		b	.L283
 4037              	.LVL327:
 4038              	.L284:
1765:Drivers/STM32F4xx_HAL_Driver/Src/stm32f4xx_ll_usb.c ****   {   
1766:Drivers/STM32F4xx_HAL_Driver/Src/stm32f4xx_ll_usb.c **** 
1767:Drivers/STM32F4xx_HAL_Driver/Src/stm32f4xx_ll_usb.c ****     value = USBx_HC(i)->HCCHAR ;
 4039              		.loc 1 1767 0 discriminator 3
 4040 0026 FB7D     		ldrb	r3, [r7, #23]	@ zero_extendqisi2
 4041 0028 5A01     		lsls	r2, r3, #5
 4042 002a 7B68     		ldr	r3, [r7, #4]
 4043 002c 1344     		add	r3, r3, r2
 4044 002e 03F5A063 		add	r3, r3, #1280
 4045 0032 1B68     		ldr	r3, [r3]
 4046 0034 FB60     		str	r3, [r7, #12]
 4047              	.LVL328:
1768:Drivers/STM32F4xx_HAL_Driver/Src/stm32f4xx_ll_usb.c ****     value |=  USB_OTG_HCCHAR_CHDIS;
 4048              		.loc 1 1768 0 discriminator 3
 4049 0036 FB68     		ldr	r3, [r7, #12]
 4050 0038 43F08043 		orr	r3, r3, #1073741824
 4051              	.LVL329:
 4052 003c FB60     		str	r3, [r7, #12]
 4053              	.LVL330:
1769:Drivers/STM32F4xx_HAL_Driver/Src/stm32f4xx_ll_usb.c ****     value &= ~USB_OTG_HCCHAR_CHENA;  
 4054              		.loc 1 1769 0 discriminator 3
 4055 003e FB68     		ldr	r3, [r7, #12]
 4056 0040 23F00043 		bic	r3, r3, #-2147483648
 4057              	.LVL331:
 4058 0044 FB60     		str	r3, [r7, #12]
 4059              	.LVL332:
1770:Drivers/STM32F4xx_HAL_Driver/Src/stm32f4xx_ll_usb.c ****     value &= ~USB_OTG_HCCHAR_EPDIR;
 4060              		.loc 1 1770 0 discriminator 3
 4061 0046 FB68     		ldr	r3, [r7, #12]
 4062 0048 23F40043 		bic	r3, r3, #32768
 4063              	.LVL333:
 4064 004c FB60     		str	r3, [r7, #12]
 4065              	.LVL334:
1771:Drivers/STM32F4xx_HAL_Driver/Src/stm32f4xx_ll_usb.c ****     USBx_HC(i)->HCCHAR = value;
 4066              		.loc 1 1771 0 discriminator 3
 4067 004e FB7D     		ldrb	r3, [r7, #23]	@ zero_extendqisi2
 4068              	.LVL335:
 4069 0050 5A01     		lsls	r2, r3, #5
 4070 0052 7B68     		ldr	r3, [r7, #4]
 4071 0054 1344     		add	r3, r3, r2
 4072 0056 03F5A063 		add	r3, r3, #1280
 4073 005a 1A46     		mov	r2, r3
 4074 005c FB68     		ldr	r3, [r7, #12]
 4075 005e 1360     		str	r3, [r2]
1764:Drivers/STM32F4xx_HAL_Driver/Src/stm32f4xx_ll_usb.c ****   {   
 4076              		.loc 1 1764 0 discriminator 3
 4077 0060 FB7D     		ldrb	r3, [r7, #23]	@ zero_extendqisi2
 4078 0062 0133     		adds	r3, r3, #1
 4079 0064 FB75     		strb	r3, [r7, #23]
 4080              	.LVL336:
 4081              	.L283:
ARM GAS  /var/folders/7p/1_dhylqx7nl5s8914_0f_4w00000gn/T//ccJwiRQE.s 			page 105


1764:Drivers/STM32F4xx_HAL_Driver/Src/stm32f4xx_ll_usb.c ****   {   
 4082              		.loc 1 1764 0 is_stmt 0 discriminator 1
 4083 0066 FB7D     		ldrb	r3, [r7, #23]	@ zero_extendqisi2
 4084 0068 0F2B     		cmp	r3, #15
 4085 006a DCD9     		bls	.L284
1772:Drivers/STM32F4xx_HAL_Driver/Src/stm32f4xx_ll_usb.c ****   }
1773:Drivers/STM32F4xx_HAL_Driver/Src/stm32f4xx_ll_usb.c ****   
1774:Drivers/STM32F4xx_HAL_Driver/Src/stm32f4xx_ll_usb.c ****   /* Halt all channels to put them into a known state. */  
1775:Drivers/STM32F4xx_HAL_Driver/Src/stm32f4xx_ll_usb.c ****   for (i = 0; i <= 15; i++)
 4086              		.loc 1 1775 0 is_stmt 1
 4087 006c 0023     		movs	r3, #0
 4088 006e FB75     		strb	r3, [r7, #23]
 4089              	.LVL337:
 4090 0070 34E0     		b	.L285
 4091              	.LVL338:
 4092              	.L289:
1776:Drivers/STM32F4xx_HAL_Driver/Src/stm32f4xx_ll_usb.c ****   {
1777:Drivers/STM32F4xx_HAL_Driver/Src/stm32f4xx_ll_usb.c ****     value = USBx_HC(i)->HCCHAR ;
 4093              		.loc 1 1777 0
 4094 0072 FB7D     		ldrb	r3, [r7, #23]	@ zero_extendqisi2
 4095 0074 5A01     		lsls	r2, r3, #5
 4096 0076 7B68     		ldr	r3, [r7, #4]
 4097 0078 1344     		add	r3, r3, r2
 4098 007a 03F5A063 		add	r3, r3, #1280
 4099 007e 1B68     		ldr	r3, [r3]
 4100 0080 FB60     		str	r3, [r7, #12]
 4101              	.LVL339:
1778:Drivers/STM32F4xx_HAL_Driver/Src/stm32f4xx_ll_usb.c ****     
1779:Drivers/STM32F4xx_HAL_Driver/Src/stm32f4xx_ll_usb.c ****     value |= USB_OTG_HCCHAR_CHDIS;
 4102              		.loc 1 1779 0
 4103 0082 FB68     		ldr	r3, [r7, #12]
 4104 0084 43F08043 		orr	r3, r3, #1073741824
 4105              	.LVL340:
 4106 0088 FB60     		str	r3, [r7, #12]
 4107              	.LVL341:
1780:Drivers/STM32F4xx_HAL_Driver/Src/stm32f4xx_ll_usb.c ****     value |= USB_OTG_HCCHAR_CHENA;  
 4108              		.loc 1 1780 0
 4109 008a FB68     		ldr	r3, [r7, #12]
 4110 008c 43F00043 		orr	r3, r3, #-2147483648
 4111              	.LVL342:
 4112 0090 FB60     		str	r3, [r7, #12]
 4113              	.LVL343:
1781:Drivers/STM32F4xx_HAL_Driver/Src/stm32f4xx_ll_usb.c ****     value &= ~USB_OTG_HCCHAR_EPDIR;
 4114              		.loc 1 1781 0
 4115 0092 FB68     		ldr	r3, [r7, #12]
 4116 0094 23F40043 		bic	r3, r3, #32768
 4117              	.LVL344:
 4118 0098 FB60     		str	r3, [r7, #12]
 4119              	.LVL345:
1782:Drivers/STM32F4xx_HAL_Driver/Src/stm32f4xx_ll_usb.c ****     
1783:Drivers/STM32F4xx_HAL_Driver/Src/stm32f4xx_ll_usb.c ****     USBx_HC(i)->HCCHAR = value;
 4120              		.loc 1 1783 0
 4121 009a FB7D     		ldrb	r3, [r7, #23]	@ zero_extendqisi2
 4122              	.LVL346:
 4123 009c 5A01     		lsls	r2, r3, #5
 4124 009e 7B68     		ldr	r3, [r7, #4]
 4125 00a0 1344     		add	r3, r3, r2
ARM GAS  /var/folders/7p/1_dhylqx7nl5s8914_0f_4w00000gn/T//ccJwiRQE.s 			page 106


 4126 00a2 03F5A063 		add	r3, r3, #1280
 4127 00a6 1A46     		mov	r2, r3
 4128 00a8 FB68     		ldr	r3, [r7, #12]
 4129 00aa 1360     		str	r3, [r2]
 4130              	.L288:
1784:Drivers/STM32F4xx_HAL_Driver/Src/stm32f4xx_ll_usb.c ****     do 
1785:Drivers/STM32F4xx_HAL_Driver/Src/stm32f4xx_ll_usb.c ****     {
1786:Drivers/STM32F4xx_HAL_Driver/Src/stm32f4xx_ll_usb.c ****       if (++count > 1000U) 
 4131              		.loc 1 1786 0
 4132 00ac 3B69     		ldr	r3, [r7, #16]
 4133 00ae 0133     		adds	r3, r3, #1
 4134 00b0 3B61     		str	r3, [r7, #16]
 4135              	.LVL347:
 4136 00b2 3B69     		ldr	r3, [r7, #16]
 4137 00b4 B3F57A7F 		cmp	r3, #1000
 4138 00b8 0CD8     		bhi	.L291
1787:Drivers/STM32F4xx_HAL_Driver/Src/stm32f4xx_ll_usb.c ****       {
1788:Drivers/STM32F4xx_HAL_Driver/Src/stm32f4xx_ll_usb.c ****         break;
1789:Drivers/STM32F4xx_HAL_Driver/Src/stm32f4xx_ll_usb.c ****       }
1790:Drivers/STM32F4xx_HAL_Driver/Src/stm32f4xx_ll_usb.c ****     } 
1791:Drivers/STM32F4xx_HAL_Driver/Src/stm32f4xx_ll_usb.c ****     while ((USBx_HC(i)->HCCHAR & USB_OTG_HCCHAR_CHENA) == USB_OTG_HCCHAR_CHENA);
 4139              		.loc 1 1791 0
 4140 00ba FB7D     		ldrb	r3, [r7, #23]	@ zero_extendqisi2
 4141              	.LVL348:
 4142 00bc 5A01     		lsls	r2, r3, #5
 4143 00be 7B68     		ldr	r3, [r7, #4]
 4144 00c0 1344     		add	r3, r3, r2
 4145 00c2 03F5A063 		add	r3, r3, #1280
 4146 00c6 1B68     		ldr	r3, [r3]
 4147 00c8 03F00043 		and	r3, r3, #-2147483648
 4148 00cc B3F1004F 		cmp	r3, #-2147483648
 4149 00d0 ECD0     		beq	.L288
 4150 00d2 00E0     		b	.L287
 4151              	.LVL349:
 4152              	.L291:
1788:Drivers/STM32F4xx_HAL_Driver/Src/stm32f4xx_ll_usb.c ****       }
 4153              		.loc 1 1788 0
 4154 00d4 00BF     		nop
 4155              	.LVL350:
 4156              	.L287:
1775:Drivers/STM32F4xx_HAL_Driver/Src/stm32f4xx_ll_usb.c ****   {
 4157              		.loc 1 1775 0 discriminator 2
 4158 00d6 FB7D     		ldrb	r3, [r7, #23]	@ zero_extendqisi2
 4159 00d8 0133     		adds	r3, r3, #1
 4160 00da FB75     		strb	r3, [r7, #23]
 4161              	.LVL351:
 4162              	.L285:
1775:Drivers/STM32F4xx_HAL_Driver/Src/stm32f4xx_ll_usb.c ****   {
 4163              		.loc 1 1775 0 is_stmt 0 discriminator 1
 4164 00dc FB7D     		ldrb	r3, [r7, #23]	@ zero_extendqisi2
 4165 00de 0F2B     		cmp	r3, #15
 4166 00e0 C7D9     		bls	.L289
1792:Drivers/STM32F4xx_HAL_Driver/Src/stm32f4xx_ll_usb.c ****   }
1793:Drivers/STM32F4xx_HAL_Driver/Src/stm32f4xx_ll_usb.c **** 
1794:Drivers/STM32F4xx_HAL_Driver/Src/stm32f4xx_ll_usb.c ****   /* Clear any pending Host interrupts */  
1795:Drivers/STM32F4xx_HAL_Driver/Src/stm32f4xx_ll_usb.c ****   USBx_HOST->HAINT = 0xFFFFFFFFU;
 4167              		.loc 1 1795 0 is_stmt 1
ARM GAS  /var/folders/7p/1_dhylqx7nl5s8914_0f_4w00000gn/T//ccJwiRQE.s 			page 107


 4168 00e2 7B68     		ldr	r3, [r7, #4]
 4169 00e4 03F58063 		add	r3, r3, #1024
 4170 00e8 1A46     		mov	r2, r3
 4171 00ea 4FF0FF33 		mov	r3, #-1
 4172 00ee 5361     		str	r3, [r2, #20]
1796:Drivers/STM32F4xx_HAL_Driver/Src/stm32f4xx_ll_usb.c ****   USBx->GINTSTS = 0xFFFFFFFFU;
 4173              		.loc 1 1796 0
 4174 00f0 7B68     		ldr	r3, [r7, #4]
 4175 00f2 4FF0FF32 		mov	r2, #-1
 4176 00f6 5A61     		str	r2, [r3, #20]
1797:Drivers/STM32F4xx_HAL_Driver/Src/stm32f4xx_ll_usb.c ****   USB_EnableGlobalInt(USBx);
 4177              		.loc 1 1797 0
 4178 00f8 7868     		ldr	r0, [r7, #4]
 4179 00fa FFF7FEFF 		bl	USB_EnableGlobalInt
 4180              	.LVL352:
1798:Drivers/STM32F4xx_HAL_Driver/Src/stm32f4xx_ll_usb.c ****   return HAL_OK;  
 4181              		.loc 1 1798 0
 4182 00fe 0023     		movs	r3, #0
1799:Drivers/STM32F4xx_HAL_Driver/Src/stm32f4xx_ll_usb.c **** }
 4183              		.loc 1 1799 0
 4184 0100 1846     		mov	r0, r3
 4185 0102 1837     		adds	r7, r7, #24
 4186              	.LCFI79:
 4187              		.cfi_def_cfa_offset 8
 4188 0104 BD46     		mov	sp, r7
 4189              	.LCFI80:
 4190              		.cfi_def_cfa_register 13
 4191              	.LVL353:
 4192              		@ sp needed
 4193 0106 80BD     		pop	{r7, pc}
 4194              		.cfi_endproc
 4195              	.LFE168:
 4197              		.section	.bss.debug.8857,"aw",%nobits
 4198              		.align	2
 4199              		.set	.LANCHOR0,. + 0
 4202              	debug.8857:
 4203 0000 00000000 		.space	4
 4204              		.text
 4205              	.Letext0:
 4206              		.file 2 "/Users/augustmason/Documents/gitHub/riptide_firmware/STM32/gcc-arm-none-eabi-6-2017-q2-up
 4207              		.file 3 "/Users/augustmason/Documents/gitHub/riptide_firmware/STM32/gcc-arm-none-eabi-6-2017-q2-up
 4208              		.file 4 "Drivers/CMSIS/Include/core_cm4.h"
 4209              		.file 5 "Drivers/CMSIS/Device/ST/STM32F4xx/Include/system_stm32f4xx.h"
 4210              		.file 6 "Drivers/CMSIS/Device/ST/STM32F4xx/Include/stm32f405xx.h"
 4211              		.file 7 "/Users/augustmason/Documents/gitHub/riptide_firmware/STM32/gcc-arm-none-eabi-6-2017-q2-up
 4212              		.file 8 "/Users/augustmason/Documents/gitHub/riptide_firmware/STM32/gcc-arm-none-eabi-6-2017-q2-up
 4213              		.file 9 "/Users/augustmason/Documents/gitHub/riptide_firmware/STM32/gcc-arm-none-eabi-6-2017-q2-up
 4214              		.file 10 "/Users/augustmason/Documents/gitHub/riptide_firmware/STM32/gcc-arm-none-eabi-6-2017-q2-u
 4215              		.file 11 "Drivers/CMSIS/Device/ST/STM32F4xx/Include/stm32f4xx.h"
 4216              		.file 12 "Drivers/STM32F4xx_HAL_Driver/Inc/stm32f4xx_hal_def.h"
 4217              		.file 13 "Drivers/STM32F4xx_HAL_Driver/Inc/stm32f4xx_ll_usb.h"
 4218              		.file 14 "Drivers/STM32F4xx_HAL_Driver/Inc/stm32f4xx_hal.h"
ARM GAS  /var/folders/7p/1_dhylqx7nl5s8914_0f_4w00000gn/T//ccJwiRQE.s 			page 108


DEFINED SYMBOLS
                            *ABS*:0000000000000000 stm32f4xx_ll_usb.c
/var/folders/7p/1_dhylqx7nl5s8914_0f_4w00000gn/T//ccJwiRQE.s:18     .text.USB_CoreInit:0000000000000000 $t
/var/folders/7p/1_dhylqx7nl5s8914_0f_4w00000gn/T//ccJwiRQE.s:25     .text.USB_CoreInit:0000000000000000 USB_CoreInit
/var/folders/7p/1_dhylqx7nl5s8914_0f_4w00000gn/T//ccJwiRQE.s:2480   .text.USB_CoreReset:0000000000000000 USB_CoreReset
/var/folders/7p/1_dhylqx7nl5s8914_0f_4w00000gn/T//ccJwiRQE.s:126    .text.USB_EnableGlobalInt:0000000000000000 $t
/var/folders/7p/1_dhylqx7nl5s8914_0f_4w00000gn/T//ccJwiRQE.s:133    .text.USB_EnableGlobalInt:0000000000000000 USB_EnableGlobalInt
/var/folders/7p/1_dhylqx7nl5s8914_0f_4w00000gn/T//ccJwiRQE.s:153    .text.USB_DisableGlobalInt:0000000000000000 $t
/var/folders/7p/1_dhylqx7nl5s8914_0f_4w00000gn/T//ccJwiRQE.s:160    .text.USB_DisableGlobalInt:0000000000000000 USB_DisableGlobalInt
/var/folders/7p/1_dhylqx7nl5s8914_0f_4w00000gn/T//ccJwiRQE.s:180    .text.USB_SetCurrentMode:0000000000000000 $t
/var/folders/7p/1_dhylqx7nl5s8914_0f_4w00000gn/T//ccJwiRQE.s:187    .text.USB_SetCurrentMode:0000000000000000 USB_SetCurrentMode
/var/folders/7p/1_dhylqx7nl5s8914_0f_4w00000gn/T//ccJwiRQE.s:232    .text.USB_DevInit:0000000000000000 $t
/var/folders/7p/1_dhylqx7nl5s8914_0f_4w00000gn/T//ccJwiRQE.s:239    .text.USB_DevInit:0000000000000000 USB_DevInit
/var/folders/7p/1_dhylqx7nl5s8914_0f_4w00000gn/T//ccJwiRQE.s:599    .text.USB_SetDevSpeed:0000000000000000 USB_SetDevSpeed
/var/folders/7p/1_dhylqx7nl5s8914_0f_4w00000gn/T//ccJwiRQE.s:495    .text.USB_FlushTxFifo:0000000000000000 USB_FlushTxFifo
/var/folders/7p/1_dhylqx7nl5s8914_0f_4w00000gn/T//ccJwiRQE.s:548    .text.USB_FlushRxFifo:0000000000000000 USB_FlushRxFifo
/var/folders/7p/1_dhylqx7nl5s8914_0f_4w00000gn/T//ccJwiRQE.s:482    .text.USB_DevInit:0000000000000148 $d
/var/folders/7p/1_dhylqx7nl5s8914_0f_4w00000gn/T//ccJwiRQE.s:488    .text.USB_FlushTxFifo:0000000000000000 $t
/var/folders/7p/1_dhylqx7nl5s8914_0f_4w00000gn/T//ccJwiRQE.s:536    .text.USB_FlushTxFifo:0000000000000024 $d
/var/folders/7p/1_dhylqx7nl5s8914_0f_4w00000gn/T//ccJwiRQE.s:541    .text.USB_FlushRxFifo:0000000000000000 $t
/var/folders/7p/1_dhylqx7nl5s8914_0f_4w00000gn/T//ccJwiRQE.s:587    .text.USB_FlushRxFifo:0000000000000020 $d
/var/folders/7p/1_dhylqx7nl5s8914_0f_4w00000gn/T//ccJwiRQE.s:592    .text.USB_SetDevSpeed:0000000000000000 $t
/var/folders/7p/1_dhylqx7nl5s8914_0f_4w00000gn/T//ccJwiRQE.s:620    .text.USB_GetDevSpeed:0000000000000000 $t
/var/folders/7p/1_dhylqx7nl5s8914_0f_4w00000gn/T//ccJwiRQE.s:627    .text.USB_GetDevSpeed:0000000000000000 USB_GetDevSpeed
/var/folders/7p/1_dhylqx7nl5s8914_0f_4w00000gn/T//ccJwiRQE.s:682    .text.USB_ActivateEndpoint:0000000000000000 $t
/var/folders/7p/1_dhylqx7nl5s8914_0f_4w00000gn/T//ccJwiRQE.s:689    .text.USB_ActivateEndpoint:0000000000000000 USB_ActivateEndpoint
/var/folders/7p/1_dhylqx7nl5s8914_0f_4w00000gn/T//ccJwiRQE.s:776    .text.USB_ActivateDedicatedEndpoint:0000000000000000 $t
/var/folders/7p/1_dhylqx7nl5s8914_0f_4w00000gn/T//ccJwiRQE.s:783    .text.USB_ActivateDedicatedEndpoint:0000000000000000 USB_ActivateDedicatedEndpoint
/var/folders/7p/1_dhylqx7nl5s8914_0f_4w00000gn/T//ccJwiRQE.s:906    .text.USB_ActivateDedicatedEndpoint:00000000000000e4 $d
/var/folders/7p/1_dhylqx7nl5s8914_0f_4w00000gn/T//ccJwiRQE.s:911    .text.USB_DeactivateEndpoint:0000000000000000 $t
/var/folders/7p/1_dhylqx7nl5s8914_0f_4w00000gn/T//ccJwiRQE.s:918    .text.USB_DeactivateEndpoint:0000000000000000 USB_DeactivateEndpoint
/var/folders/7p/1_dhylqx7nl5s8914_0f_4w00000gn/T//ccJwiRQE.s:1059   .text.USB_DeactivateEndpoint:00000000000000ec $d
/var/folders/7p/1_dhylqx7nl5s8914_0f_4w00000gn/T//ccJwiRQE.s:1064   .text.USB_DeactivateDedicatedEndpoint:0000000000000000 $t
/var/folders/7p/1_dhylqx7nl5s8914_0f_4w00000gn/T//ccJwiRQE.s:1071   .text.USB_DeactivateDedicatedEndpoint:0000000000000000 USB_DeactivateDedicatedEndpoint
/var/folders/7p/1_dhylqx7nl5s8914_0f_4w00000gn/T//ccJwiRQE.s:1212   .text.USB_DeactivateDedicatedEndpoint:00000000000000ec $d
/var/folders/7p/1_dhylqx7nl5s8914_0f_4w00000gn/T//ccJwiRQE.s:1217   .text.USB_EPStartXfer:0000000000000000 $t
/var/folders/7p/1_dhylqx7nl5s8914_0f_4w00000gn/T//ccJwiRQE.s:1224   .text.USB_EPStartXfer:0000000000000000 USB_EPStartXfer
/var/folders/7p/1_dhylqx7nl5s8914_0f_4w00000gn/T//ccJwiRQE.s:1724   .text.USB_WritePacket:0000000000000000 USB_WritePacket
/var/folders/7p/1_dhylqx7nl5s8914_0f_4w00000gn/T//ccJwiRQE.s:1519   .text.USB_EPStartXfer:0000000000000260 $d
/var/folders/7p/1_dhylqx7nl5s8914_0f_4w00000gn/T//ccJwiRQE.s:1524   .text.USB_EP0StartXfer:0000000000000000 $t
/var/folders/7p/1_dhylqx7nl5s8914_0f_4w00000gn/T//ccJwiRQE.s:1531   .text.USB_EP0StartXfer:0000000000000000 USB_EP0StartXfer
/var/folders/7p/1_dhylqx7nl5s8914_0f_4w00000gn/T//ccJwiRQE.s:1717   .text.USB_WritePacket:0000000000000000 $t
/var/folders/7p/1_dhylqx7nl5s8914_0f_4w00000gn/T//ccJwiRQE.s:1781   .text.USB_ReadPacket:0000000000000000 $t
/var/folders/7p/1_dhylqx7nl5s8914_0f_4w00000gn/T//ccJwiRQE.s:1788   .text.USB_ReadPacket:0000000000000000 USB_ReadPacket
/var/folders/7p/1_dhylqx7nl5s8914_0f_4w00000gn/T//ccJwiRQE.s:1839   .text.USB_EPSetStall:0000000000000000 $t
/var/folders/7p/1_dhylqx7nl5s8914_0f_4w00000gn/T//ccJwiRQE.s:1846   .text.USB_EPSetStall:0000000000000000 USB_EPSetStall
/var/folders/7p/1_dhylqx7nl5s8914_0f_4w00000gn/T//ccJwiRQE.s:1905   .text.USB_EPClearStall:0000000000000000 $t
/var/folders/7p/1_dhylqx7nl5s8914_0f_4w00000gn/T//ccJwiRQE.s:1912   .text.USB_EPClearStall:0000000000000000 USB_EPClearStall
/var/folders/7p/1_dhylqx7nl5s8914_0f_4w00000gn/T//ccJwiRQE.s:1977   .text.USB_StopDevice:0000000000000000 $t
/var/folders/7p/1_dhylqx7nl5s8914_0f_4w00000gn/T//ccJwiRQE.s:1984   .text.USB_StopDevice:0000000000000000 USB_StopDevice
/var/folders/7p/1_dhylqx7nl5s8914_0f_4w00000gn/T//ccJwiRQE.s:2046   .text.USB_SetDevAddress:0000000000000000 $t
/var/folders/7p/1_dhylqx7nl5s8914_0f_4w00000gn/T//ccJwiRQE.s:2053   .text.USB_SetDevAddress:0000000000000000 USB_SetDevAddress
/var/folders/7p/1_dhylqx7nl5s8914_0f_4w00000gn/T//ccJwiRQE.s:2080   .text.USB_DevConnect:0000000000000000 $t
/var/folders/7p/1_dhylqx7nl5s8914_0f_4w00000gn/T//ccJwiRQE.s:2087   .text.USB_DevConnect:0000000000000000 USB_DevConnect
/var/folders/7p/1_dhylqx7nl5s8914_0f_4w00000gn/T//ccJwiRQE.s:2115   .text.USB_DevDisconnect:0000000000000000 $t
/var/folders/7p/1_dhylqx7nl5s8914_0f_4w00000gn/T//ccJwiRQE.s:2122   .text.USB_DevDisconnect:0000000000000000 USB_DevDisconnect
/var/folders/7p/1_dhylqx7nl5s8914_0f_4w00000gn/T//ccJwiRQE.s:2150   .text.USB_ReadInterrupts:0000000000000000 $t
ARM GAS  /var/folders/7p/1_dhylqx7nl5s8914_0f_4w00000gn/T//ccJwiRQE.s 			page 109


/var/folders/7p/1_dhylqx7nl5s8914_0f_4w00000gn/T//ccJwiRQE.s:2157   .text.USB_ReadInterrupts:0000000000000000 USB_ReadInterrupts
/var/folders/7p/1_dhylqx7nl5s8914_0f_4w00000gn/T//ccJwiRQE.s:2179   .text.USB_ReadDevAllOutEpInterrupt:0000000000000000 $t
/var/folders/7p/1_dhylqx7nl5s8914_0f_4w00000gn/T//ccJwiRQE.s:2186   .text.USB_ReadDevAllOutEpInterrupt:0000000000000000 USB_ReadDevAllOutEpInterrupt
/var/folders/7p/1_dhylqx7nl5s8914_0f_4w00000gn/T//ccJwiRQE.s:2211   .text.USB_ReadDevAllInEpInterrupt:0000000000000000 $t
/var/folders/7p/1_dhylqx7nl5s8914_0f_4w00000gn/T//ccJwiRQE.s:2218   .text.USB_ReadDevAllInEpInterrupt:0000000000000000 USB_ReadDevAllInEpInterrupt
/var/folders/7p/1_dhylqx7nl5s8914_0f_4w00000gn/T//ccJwiRQE.s:2243   .text.USB_ReadDevOutEPInterrupt:0000000000000000 $t
/var/folders/7p/1_dhylqx7nl5s8914_0f_4w00000gn/T//ccJwiRQE.s:2250   .text.USB_ReadDevOutEPInterrupt:0000000000000000 USB_ReadDevOutEPInterrupt
/var/folders/7p/1_dhylqx7nl5s8914_0f_4w00000gn/T//ccJwiRQE.s:2276   .text.USB_ReadDevInEPInterrupt:0000000000000000 $t
/var/folders/7p/1_dhylqx7nl5s8914_0f_4w00000gn/T//ccJwiRQE.s:2283   .text.USB_ReadDevInEPInterrupt:0000000000000000 USB_ReadDevInEPInterrupt
/var/folders/7p/1_dhylqx7nl5s8914_0f_4w00000gn/T//ccJwiRQE.s:2317   .text.USB_ClearInterrupts:0000000000000000 $t
/var/folders/7p/1_dhylqx7nl5s8914_0f_4w00000gn/T//ccJwiRQE.s:2324   .text.USB_ClearInterrupts:0000000000000000 USB_ClearInterrupts
/var/folders/7p/1_dhylqx7nl5s8914_0f_4w00000gn/T//ccJwiRQE.s:2342   .text.USB_GetMode:0000000000000000 $t
/var/folders/7p/1_dhylqx7nl5s8914_0f_4w00000gn/T//ccJwiRQE.s:2349   .text.USB_GetMode:0000000000000000 USB_GetMode
/var/folders/7p/1_dhylqx7nl5s8914_0f_4w00000gn/T//ccJwiRQE.s:2367   .text.USB_ActivateSetup:0000000000000000 $t
/var/folders/7p/1_dhylqx7nl5s8914_0f_4w00000gn/T//ccJwiRQE.s:2374   .text.USB_ActivateSetup:0000000000000000 USB_ActivateSetup
/var/folders/7p/1_dhylqx7nl5s8914_0f_4w00000gn/T//ccJwiRQE.s:2413   .text.USB_EP0_OutStart:0000000000000000 $t
/var/folders/7p/1_dhylqx7nl5s8914_0f_4w00000gn/T//ccJwiRQE.s:2420   .text.USB_EP0_OutStart:0000000000000000 USB_EP0_OutStart
/var/folders/7p/1_dhylqx7nl5s8914_0f_4w00000gn/T//ccJwiRQE.s:2474   .text.USB_CoreReset:0000000000000000 $t
/var/folders/7p/1_dhylqx7nl5s8914_0f_4w00000gn/T//ccJwiRQE.s:2541   .text.USB_CoreReset:0000000000000038 $d
/var/folders/7p/1_dhylqx7nl5s8914_0f_4w00000gn/T//ccJwiRQE.s:2546   .text.USB_HostInit:0000000000000000 $t
/var/folders/7p/1_dhylqx7nl5s8914_0f_4w00000gn/T//ccJwiRQE.s:2553   .text.USB_HostInit:0000000000000000 USB_HostInit
/var/folders/7p/1_dhylqx7nl5s8914_0f_4w00000gn/T//ccJwiRQE.s:2843   .text.USB_DriveVbus:0000000000000000 USB_DriveVbus
/var/folders/7p/1_dhylqx7nl5s8914_0f_4w00000gn/T//ccJwiRQE.s:2712   .text.USB_HostInit:00000000000000e0 $d
/var/folders/7p/1_dhylqx7nl5s8914_0f_4w00000gn/T//ccJwiRQE.s:2719   .text.USB_InitFSLSPClkSel:0000000000000000 $t
/var/folders/7p/1_dhylqx7nl5s8914_0f_4w00000gn/T//ccJwiRQE.s:2726   .text.USB_InitFSLSPClkSel:0000000000000000 USB_InitFSLSPClkSel
/var/folders/7p/1_dhylqx7nl5s8914_0f_4w00000gn/T//ccJwiRQE.s:2782   .text.USB_ResetPort:0000000000000000 $t
/var/folders/7p/1_dhylqx7nl5s8914_0f_4w00000gn/T//ccJwiRQE.s:2789   .text.USB_ResetPort:0000000000000000 USB_ResetPort
/var/folders/7p/1_dhylqx7nl5s8914_0f_4w00000gn/T//ccJwiRQE.s:2836   .text.USB_DriveVbus:0000000000000000 $t
/var/folders/7p/1_dhylqx7nl5s8914_0f_4w00000gn/T//ccJwiRQE.s:2902   .text.USB_GetHostSpeed:0000000000000000 $t
/var/folders/7p/1_dhylqx7nl5s8914_0f_4w00000gn/T//ccJwiRQE.s:2909   .text.USB_GetHostSpeed:0000000000000000 USB_GetHostSpeed
/var/folders/7p/1_dhylqx7nl5s8914_0f_4w00000gn/T//ccJwiRQE.s:2937   .text.USB_GetCurrentFrame:0000000000000000 $t
/var/folders/7p/1_dhylqx7nl5s8914_0f_4w00000gn/T//ccJwiRQE.s:2944   .text.USB_GetCurrentFrame:0000000000000000 USB_GetCurrentFrame
/var/folders/7p/1_dhylqx7nl5s8914_0f_4w00000gn/T//ccJwiRQE.s:2964   .text.USB_HC_Init:0000000000000000 $t
/var/folders/7p/1_dhylqx7nl5s8914_0f_4w00000gn/T//ccJwiRQE.s:2971   .text.USB_HC_Init:0000000000000000 USB_HC_Init
/var/folders/7p/1_dhylqx7nl5s8914_0f_4w00000gn/T//ccJwiRQE.s:2997   .text.USB_HC_Init:000000000000001c $d
/var/folders/7p/1_dhylqx7nl5s8914_0f_4w00000gn/T//ccJwiRQE.s:3001   .text.USB_HC_Init:0000000000000020 $t
/var/folders/7p/1_dhylqx7nl5s8914_0f_4w00000gn/T//ccJwiRQE.s:3127   .text.USB_HC_StartXfer:0000000000000000 $t
/var/folders/7p/1_dhylqx7nl5s8914_0f_4w00000gn/T//ccJwiRQE.s:3134   .text.USB_HC_StartXfer:0000000000000000 USB_HC_StartXfer
/var/folders/7p/1_dhylqx7nl5s8914_0f_4w00000gn/T//ccJwiRQE.s:3886   .text.USB_DoPing:0000000000000000 USB_DoPing
/var/folders/7p/1_dhylqx7nl5s8914_0f_4w00000gn/T//ccJwiRQE.s:3447   .text.USB_HC_StartXfer:00000000000001ec $d
/var/folders/7p/1_dhylqx7nl5s8914_0f_4w00000gn/T//ccJwiRQE.s:3451   .text.USB_HC_StartXfer:00000000000001fc $t
/var/folders/7p/1_dhylqx7nl5s8914_0f_4w00000gn/T//ccJwiRQE.s:3545   .text.USB_HC_StartXfer:0000000000000278 $d
/var/folders/7p/1_dhylqx7nl5s8914_0f_4w00000gn/T//ccJwiRQE.s:3550   .text.USB_HC_ReadInterrupt:0000000000000000 $t
/var/folders/7p/1_dhylqx7nl5s8914_0f_4w00000gn/T//ccJwiRQE.s:3557   .text.USB_HC_ReadInterrupt:0000000000000000 USB_HC_ReadInterrupt
/var/folders/7p/1_dhylqx7nl5s8914_0f_4w00000gn/T//ccJwiRQE.s:3602   .text.USB_HC_Halt:0000000000000000 $t
/var/folders/7p/1_dhylqx7nl5s8914_0f_4w00000gn/T//ccJwiRQE.s:3609   .text.USB_HC_Halt:0000000000000000 USB_HC_Halt
/var/folders/7p/1_dhylqx7nl5s8914_0f_4w00000gn/T//ccJwiRQE.s:3879   .text.USB_DoPing:0000000000000000 $t
/var/folders/7p/1_dhylqx7nl5s8914_0f_4w00000gn/T//ccJwiRQE.s:3984   .text.USB_DoPing:0000000000000074 $d
/var/folders/7p/1_dhylqx7nl5s8914_0f_4w00000gn/T//ccJwiRQE.s:3989   .text.USB_StopHost:0000000000000000 $t
/var/folders/7p/1_dhylqx7nl5s8914_0f_4w00000gn/T//ccJwiRQE.s:3996   .text.USB_StopHost:0000000000000000 USB_StopHost
/var/folders/7p/1_dhylqx7nl5s8914_0f_4w00000gn/T//ccJwiRQE.s:4198   .bss.debug.8857:0000000000000000 $d
/var/folders/7p/1_dhylqx7nl5s8914_0f_4w00000gn/T//ccJwiRQE.s:4202   .bss.debug.8857:0000000000000000 debug.8857
                     .debug_frame:0000000000000010 $d

UNDEFINED SYMBOLS
HAL_Delay
