ARM GAS  /var/folders/7p/1_dhylqx7nl5s8914_0f_4w00000gn/T//cckou4WT.s 			page 1


   1              		.cpu cortex-m4
   2              		.eabi_attribute 27, 1
   3              		.eabi_attribute 28, 1
   4              		.eabi_attribute 20, 1
   5              		.eabi_attribute 21, 1
   6              		.eabi_attribute 23, 3
   7              		.eabi_attribute 24, 1
   8              		.eabi_attribute 25, 1
   9              		.eabi_attribute 26, 1
  10              		.eabi_attribute 30, 1
  11              		.eabi_attribute 34, 1
  12              		.eabi_attribute 18, 4
  13              		.file	"riptideFunctions.c"
  14              		.text
  15              	.Ltext0:
  16              		.cfi_sections	.debug_frame
  17              		.section	.text.MessageCheck,"ax",%progbits
  18              		.align	1
  19              		.global	MessageCheck
  20              		.syntax unified
  21              		.thumb
  22              		.thumb_func
  23              		.fpu fpv4-sp-d16
  25              	MessageCheck:
  26              	.LFB0:
  27              		.file 1 "riptideSTM/src/riptideFunctions.c"
   1:riptideSTM/src/riptideFunctions.c **** //
   2:riptideSTM/src/riptideFunctions.c **** // Created by August R. Mason on 2/11/18.
   3:riptideSTM/src/riptideFunctions.c **** //
   4:riptideSTM/src/riptideFunctions.c **** #include "main.h"
   5:riptideSTM/src/riptideFunctions.c **** #include <stdbool.h> //used for the MessageCheck function
   6:riptideSTM/src/riptideFunctions.c **** #include <stdint.h>
   7:riptideSTM/src/riptideFunctions.c **** #include "riptideFunctions.h"
   8:riptideSTM/src/riptideFunctions.c **** /*
   9:riptideSTM/src/riptideFunctions.c ****  *          Message Check
  10:riptideSTM/src/riptideFunctions.c ****  *  This function is meant to streamline the messages sent from riptide to the STM32. Primary use c
  11:riptideSTM/src/riptideFunctions.c ****  *  is for working in the CDC_Recieve function to check which message that gets recieved and set a 
  12:riptideSTM/src/riptideFunctions.c ****  *  determine which message was sent
  13:riptideSTM/src/riptideFunctions.c ****  *  Intakes:
  14:riptideSTM/src/riptideFunctions.c ****  *          char* start     -the characters that start the message
  15:riptideSTM/src/riptideFunctions.c ****  *          char* end       -the characters that are the last
  16:riptideSTM/src/riptideFunctions.c ****  *          int compNumber  -the number of characters that start and end the message
  17:riptideSTM/src/riptideFunctions.c ****  *          uint8_t* Buf    -the message sent
  18:riptideSTM/src/riptideFunctions.c ****  *          uint32_t *Len   -the length of the message
  19:riptideSTM/src/riptideFunctions.c ****  */
  20:riptideSTM/src/riptideFunctions.c **** bool MessageCheck(char* start, char* end, int compNumber,uint8_t* Buf, uint32_t *Len ){
  28              		.loc 1 20 0
  29              		.cfi_startproc
  30              		@ args = 4, pretend = 0, frame = 0
  31              		@ frame_needed = 0, uses_anonymous_args = 0
  32              		@ link register save eliminated.
  33              	.LVL0:
  34 0000 F0B4     		push	{r4, r5, r6, r7}
  35              	.LCFI0:
  36              		.cfi_def_cfa_offset 16
  37              		.cfi_offset 4, -16
  38              		.cfi_offset 5, -12
ARM GAS  /var/folders/7p/1_dhylqx7nl5s8914_0f_4w00000gn/T//cckou4WT.s 			page 2


  39              		.cfi_offset 6, -8
  40              		.cfi_offset 7, -4
  41 0002 049F     		ldr	r7, [sp, #16]
  42              	.LVL1:
  21:riptideSTM/src/riptideFunctions.c ****     int i = 0;
  43              		.loc 1 21 0
  44 0004 0025     		movs	r5, #0
  45              	.LVL2:
  46              	.L2:
  22:riptideSTM/src/riptideFunctions.c ****     while( i < compNumber ){
  47              		.loc 1 22 0
  48 0006 9542     		cmp	r5, r2
  49 0008 0CDA     		bge	.L8
  23:riptideSTM/src/riptideFunctions.c ****         if (Buf[i] == *start && Buf[*Len - (1+i)] == *end){
  50              		.loc 1 23 0
  51 000a 5E5D     		ldrb	r6, [r3, r5]	@ zero_extendqisi2
  52 000c 0478     		ldrb	r4, [r0]	@ zero_extendqisi2
  53 000e A642     		cmp	r6, r4
  54 0010 0BD1     		bne	.L5
  55              		.loc 1 23 0 is_stmt 0 discriminator 1
  56 0012 3C68     		ldr	r4, [r7]
  57 0014 641B     		subs	r4, r4, r5
  58 0016 013C     		subs	r4, r4, #1
  59 0018 1E5D     		ldrb	r6, [r3, r4]	@ zero_extendqisi2
  60 001a 0C78     		ldrb	r4, [r1]	@ zero_extendqisi2
  61 001c A642     		cmp	r6, r4
  62 001e 06D1     		bne	.L6
  24:riptideSTM/src/riptideFunctions.c **** 
  25:riptideSTM/src/riptideFunctions.c ****             i++;
  63              		.loc 1 25 0 is_stmt 1
  64 0020 0135     		adds	r5, r5, #1
  65              	.LVL3:
  66 0022 F0E7     		b	.L2
  67              	.L8:
  26:riptideSTM/src/riptideFunctions.c ****         }
  27:riptideSTM/src/riptideFunctions.c ****         else {
  28:riptideSTM/src/riptideFunctions.c ****             return false;
  29:riptideSTM/src/riptideFunctions.c ****         }
  30:riptideSTM/src/riptideFunctions.c ****     }
  31:riptideSTM/src/riptideFunctions.c ****     return true;
  68              		.loc 1 31 0
  69 0024 0120     		movs	r0, #1
  70              	.LVL4:
  71              	.L3:
  32:riptideSTM/src/riptideFunctions.c **** 
  33:riptideSTM/src/riptideFunctions.c **** }
  72              		.loc 1 33 0
  73 0026 F0BC     		pop	{r4, r5, r6, r7}
  74              	.LCFI1:
  75              		.cfi_remember_state
  76              		.cfi_restore 7
  77              		.cfi_restore 6
  78              		.cfi_restore 5
  79              		.cfi_restore 4
  80              		.cfi_def_cfa_offset 0
  81              	.LVL5:
  82 0028 7047     		bx	lr
ARM GAS  /var/folders/7p/1_dhylqx7nl5s8914_0f_4w00000gn/T//cckou4WT.s 			page 3


  83              	.LVL6:
  84              	.L5:
  85              	.LCFI2:
  86              		.cfi_restore_state
  28:riptideSTM/src/riptideFunctions.c ****         }
  87              		.loc 1 28 0
  88 002a 0020     		movs	r0, #0
  89              	.LVL7:
  90 002c FBE7     		b	.L3
  91              	.LVL8:
  92              	.L6:
  93 002e 0020     		movs	r0, #0
  94              	.LVL9:
  95 0030 F9E7     		b	.L3
  96              		.cfi_endproc
  97              	.LFE0:
  99              		.text
 100              	.Letext0:
 101              		.file 2 "/Users/augustmason/Documents/GitHub/riptide_firmware/STM32/gcc-arm-none-eabi-6-2017-q2-up
 102              		.file 3 "/Users/augustmason/Documents/GitHub/riptide_firmware/STM32/gcc-arm-none-eabi-6-2017-q2-up
ARM GAS  /var/folders/7p/1_dhylqx7nl5s8914_0f_4w00000gn/T//cckou4WT.s 			page 4

