ARM GAS  /var/folders/7p/1_dhylqx7nl5s8914_0f_4w00000gn/T//cc8pyLC6.s 			page 1


   1              		.cpu cortex-m4
   2              		.eabi_attribute 27, 1
   3              		.eabi_attribute 28, 1
   4              		.eabi_attribute 20, 1
   5              		.eabi_attribute 21, 1
   6              		.eabi_attribute 23, 3
   7              		.eabi_attribute 24, 1
   8              		.eabi_attribute 25, 1
   9              		.eabi_attribute 26, 1
  10              		.eabi_attribute 30, 1
  11              		.eabi_attribute 34, 1
  12              		.eabi_attribute 18, 4
  13              		.file	"riptideThreads.c"
  14              		.text
  15              	.Ltext0:
  16              		.cfi_sections	.debug_frame
  17              		.section	.text.vHeartbeat,"ax",%progbits
  18              		.align	1
  19              		.global	vHeartbeat
  20              		.syntax unified
  21              		.thumb
  22              		.thumb_func
  23              		.fpu fpv4-sp-d16
  25              	vHeartbeat:
  26              	.LFB129:
  27              		.file 1 "riptideSTM/src/riptideThreads.c"
   1:riptideSTM/src/riptideThreads.c **** //
   2:riptideSTM/src/riptideThreads.c **** // Created by August R. Mason on 2/11/18.
   3:riptideSTM/src/riptideThreads.c **** //
   4:riptideSTM/src/riptideThreads.c **** 
   5:riptideSTM/src/riptideThreads.c **** #include "main.h"
   6:riptideSTM/src/riptideThreads.c **** #include "stm32f4xx_hal.h"
   7:riptideSTM/src/riptideThreads.c **** #include "cmsis_os.h"
   8:riptideSTM/src/riptideThreads.c **** #include "usb_device.h"
   9:riptideSTM/src/riptideThreads.c **** #include "usbd_cdc_if.h"
  10:riptideSTM/src/riptideThreads.c **** 
  11:riptideSTM/src/riptideThreads.c **** 
  12:riptideSTM/src/riptideThreads.c **** #include "riptideMain.h"
  13:riptideSTM/src/riptideThreads.c **** #include "riptideFunctions.h"
  14:riptideSTM/src/riptideThreads.c **** #include "riptidethreads.h"
  15:riptideSTM/src/riptideThreads.c **** //#include "../../Inc/main.h"
  16:riptideSTM/src/riptideThreads.c **** //#include "../../Drivers/STM32F4xx_HAL_Driver/Inc/stm32f4xx_hal_gpio.h"
  17:riptideSTM/src/riptideThreads.c **** 
  18:riptideSTM/src/riptideThreads.c **** void vHeartbeat(void *pvParameters ){
  28              		.loc 1 18 0
  29              		.cfi_startproc
  30              		@ Volatile: function does not return.
  31              		@ args = 0, pretend = 0, frame = 16
  32              		@ frame_needed = 0, uses_anonymous_args = 0
  33              	.LVL0:
  34 0000 00B5     		push	{lr}
  35              	.LCFI0:
  36              		.cfi_def_cfa_offset 4
  37              		.cfi_offset 14, -4
  38 0002 85B0     		sub	sp, sp, #20
  39              	.LCFI1:
  40              		.cfi_def_cfa_offset 24
ARM GAS  /var/folders/7p/1_dhylqx7nl5s8914_0f_4w00000gn/T//cc8pyLC6.s 			page 2


  19:riptideSTM/src/riptideThreads.c **** 
  20:riptideSTM/src/riptideThreads.c ****     uint8_t HiMsg[] = "heartbeat\r\n";
  41              		.loc 1 20 0
  42 0004 094B     		ldr	r3, .L4
  43 0006 93E80700 		ldm	r3, {r0, r1, r2}
  44              	.LVL1:
  45 000a 04AB     		add	r3, sp, #16
  46 000c 03E90700 		stmdb	r3, {r0, r1, r2}
  47              	.L2:
  21:riptideSTM/src/riptideThreads.c ****     /* Infinite loop */
  22:riptideSTM/src/riptideThreads.c ****     for(;;) {
  23:riptideSTM/src/riptideThreads.c ****         HAL_GPIO_TogglePin(HeartBeat1_GPIO_Port, HeartBeat1_Pin);
  48              		.loc 1 23 0 discriminator 1
  49 0010 4021     		movs	r1, #64
  50 0012 0748     		ldr	r0, .L4+4
  51 0014 FFF7FEFF 		bl	HAL_GPIO_TogglePin
  52              	.LVL2:
  24:riptideSTM/src/riptideThreads.c ****         //to note here, we do not nead the sizeof(msg)/sizeof(uint8_t)
  25:riptideSTM/src/riptideThreads.c ****         CDC_Transmit_HS(HiMsg, sizeof(HiMsg));
  53              		.loc 1 25 0 discriminator 1
  54 0018 0C21     		movs	r1, #12
  55 001a 01A8     		add	r0, sp, #4
  56 001c FFF7FEFF 		bl	CDC_Transmit_HS
  57              	.LVL3:
  26:riptideSTM/src/riptideThreads.c ****         vTaskDelay(1000);
  58              		.loc 1 26 0 discriminator 1
  59 0020 4FF47A70 		mov	r0, #1000
  60 0024 FFF7FEFF 		bl	vTaskDelay
  61              	.LVL4:
  62 0028 F2E7     		b	.L2
  63              	.L5:
  64 002a 00BF     		.align	2
  65              	.L4:
  66 002c 00000000 		.word	.LC0
  67 0030 00080240 		.word	1073874944
  68              		.cfi_endproc
  69              	.LFE129:
  71              		.section	.text.vSwitchMonitor,"ax",%progbits
  72              		.align	1
  73              		.global	vSwitchMonitor
  74              		.syntax unified
  75              		.thumb
  76              		.thumb_func
  77              		.fpu fpv4-sp-d16
  79              	vSwitchMonitor:
  80              	.LFB130:
  27:riptideSTM/src/riptideThreads.c **** 
  28:riptideSTM/src/riptideThreads.c ****     }
  29:riptideSTM/src/riptideThreads.c **** 
  30:riptideSTM/src/riptideThreads.c **** }
  31:riptideSTM/src/riptideThreads.c **** 
  32:riptideSTM/src/riptideThreads.c **** void vSwitchMonitor(void *pvParameters){
  81              		.loc 1 32 0
  82              		.cfi_startproc
  83              		@ Volatile: function does not return.
  84              		@ args = 0, pretend = 0, frame = 16
  85              		@ frame_needed = 0, uses_anonymous_args = 0
ARM GAS  /var/folders/7p/1_dhylqx7nl5s8914_0f_4w00000gn/T//cc8pyLC6.s 			page 3


  86              	.LVL5:
  87 0000 00B5     		push	{lr}
  88              	.LCFI2:
  89              		.cfi_def_cfa_offset 4
  90              		.cfi_offset 14, -4
  91 0002 85B0     		sub	sp, sp, #20
  92              	.LCFI3:
  93              		.cfi_def_cfa_offset 24
  33:riptideSTM/src/riptideThreads.c ****     uint8_t switchMessage[14] = "$$$$nnnnnn@@@@";
  94              		.loc 1 33 0
  95 0004 0C4B     		ldr	r3, .L11
  96 0006 6C46     		mov	r4, sp
  97 0008 0FCB     		ldm	r3, {r0, r1, r2, r3}
  98              	.LVL6:
  99 000a 07C4     		stmia	r4!, {r0, r1, r2}
 100 000c 2380     		strh	r3, [r4]	@ movhi
 101 000e 0AE0     		b	.L8
 102              	.L9:
  34:riptideSTM/src/riptideThreads.c ****     //uint8_t switchMessage = "";
  35:riptideSTM/src/riptideThreads.c ****     for(;;){
  36:riptideSTM/src/riptideThreads.c ****         //this disaster of reading the switches
  37:riptideSTM/src/riptideThreads.c ****         //please forgive me, for I am lazy
  38:riptideSTM/src/riptideThreads.c ****         //TODO
  39:riptideSTM/src/riptideThreads.c ****         //move to turniary operator or write direct in
  40:riptideSTM/src/riptideThreads.c ****         switchMessage [4] = HAL_GPIO_ReadPin(KillSwitch_GPIO_Port, KillSwitch_Pin) ? '1':'0';
 103              		.loc 1 40 0
 104 0010 3023     		movs	r3, #48
 105              	.L7:
 106              		.loc 1 40 0 is_stmt 0 discriminator 4
 107 0012 8DF80430 		strb	r3, [sp, #4]
  41:riptideSTM/src/riptideThreads.c ****         /*
  42:riptideSTM/src/riptideThreads.c ****         if(HAL_GPIO_ReadPin(KillSwitch_GPIO_Port, KillSwitch_Pin)){
  43:riptideSTM/src/riptideThreads.c ****             switchMessage[4] = '1'; //be sure you use single things instead of double things
  44:riptideSTM/src/riptideThreads.c ****         }if(!HAL_GPIO_ReadPin(KillSwitch_GPIO_Port, KillSwitch_Pin)){
  45:riptideSTM/src/riptideThreads.c ****             switchMessage[4] = '0';
  46:riptideSTM/src/riptideThreads.c ****         }
  47:riptideSTM/src/riptideThreads.c ****         if(HAL_GPIO_ReadPin(Switch1_GPIO_Port, Switch1_Pin)){
  48:riptideSTM/src/riptideThreads.c ****             switchMessage[5] = '1'; //be sure you use single things instead of double things
  49:riptideSTM/src/riptideThreads.c ****         }if(!HAL_GPIO_ReadPin(Switch1_GPIO_Port, Switch1_Pin)){
  50:riptideSTM/src/riptideThreads.c ****             switchMessage[5] = '0';
  51:riptideSTM/src/riptideThreads.c ****         }
  52:riptideSTM/src/riptideThreads.c ****         if(HAL_GPIO_ReadPin(Switch2_GPIO_Port, Switch2_Pin)){
  53:riptideSTM/src/riptideThreads.c ****             switchMessage[6] = '1'; //be sure you use single things instead of double things
  54:riptideSTM/src/riptideThreads.c ****         }if(!HAL_GPIO_ReadPin(Switch2_GPIO_Port, Switch2_Pin)){
  55:riptideSTM/src/riptideThreads.c ****             switchMessage[6] = '0';
  56:riptideSTM/src/riptideThreads.c ****         }
  57:riptideSTM/src/riptideThreads.c ****         if(HAL_GPIO_ReadPin(Switch3_GPIO_Port, Switch3_Pin)){
  58:riptideSTM/src/riptideThreads.c ****             switchMessage[7] = '1'; //be sure you use single things instead of double things
  59:riptideSTM/src/riptideThreads.c ****         }if(!HAL_GPIO_ReadPin(Switch3_GPIO_Port, Switch3_Pin)){
  60:riptideSTM/src/riptideThreads.c ****             switchMessage[7] = '0';
  61:riptideSTM/src/riptideThreads.c ****         }
  62:riptideSTM/src/riptideThreads.c ****         if(HAL_GPIO_ReadPin(Switch4_GPIO_Port, Switch4_Pin)){
  63:riptideSTM/src/riptideThreads.c ****             switchMessage[8] = '1'; //be sure you use single things instead of double things
  64:riptideSTM/src/riptideThreads.c ****         }if(!HAL_GPIO_ReadPin(Switch4_GPIO_Port, Switch4_Pin)){
  65:riptideSTM/src/riptideThreads.c ****             switchMessage[8] = '0';
  66:riptideSTM/src/riptideThreads.c ****         }*/
  67:riptideSTM/src/riptideThreads.c ****         CDC_Transmit_HS(switchMessage, sizeof(switchMessage));
ARM GAS  /var/folders/7p/1_dhylqx7nl5s8914_0f_4w00000gn/T//cc8pyLC6.s 			page 4


 108              		.loc 1 67 0 is_stmt 1 discriminator 4
 109 0016 0E21     		movs	r1, #14
 110 0018 6846     		mov	r0, sp
 111 001a FFF7FEFF 		bl	CDC_Transmit_HS
 112              	.LVL7:
  68:riptideSTM/src/riptideThreads.c ****         vTaskDelay(900);
 113              		.loc 1 68 0 discriminator 4
 114 001e 4FF46170 		mov	r0, #900
 115 0022 FFF7FEFF 		bl	vTaskDelay
 116              	.LVL8:
 117              	.L8:
  40:riptideSTM/src/riptideThreads.c ****         /*
 118              		.loc 1 40 0
 119 0026 4FF40041 		mov	r1, #32768
 120 002a 0448     		ldr	r0, .L11+4
 121 002c FFF7FEFF 		bl	HAL_GPIO_ReadPin
 122              	.LVL9:
 123 0030 0028     		cmp	r0, #0
 124 0032 EDD0     		beq	.L9
 125 0034 3123     		movs	r3, #49
 126 0036 ECE7     		b	.L7
 127              	.L12:
 128              		.align	2
 129              	.L11:
 130 0038 00000000 		.word	.LANCHOR0
 131 003c 00080240 		.word	1073874944
 132              		.cfi_endproc
 133              	.LFE130:
 135              		.section	.rodata
 136              		.align	2
 137              		.set	.LANCHOR0,. + 0
 138              	.LC1:
 139 0000 24242424 		.ascii	"$$$$nnnnnn@@@@\000"
 139      6E6E6E6E 
 139      6E6E4040 
 139      404000
 140              		.section	.rodata.vHeartbeat.str1.4,"aMS",%progbits,1
 141              		.align	2
 142              	.LC0:
 143 0000 68656172 		.ascii	"heartbeat\015\012\000"
 143      74626561 
 143      740D0A00 
 144              		.text
 145              	.Letext0:
 146              		.file 2 "/Users/augustmason/Documents/gitHub/riptide_firmware/STM32/gcc-arm-none-eabi-6-2017-q2-up
 147              		.file 3 "/Users/augustmason/Documents/gitHub/riptide_firmware/STM32/gcc-arm-none-eabi-6-2017-q2-up
 148              		.file 4 "Drivers/CMSIS/Include/core_cm4.h"
 149              		.file 5 "Drivers/CMSIS/Device/ST/STM32F4xx/Include/system_stm32f4xx.h"
 150              		.file 6 "Drivers/CMSIS/Device/ST/STM32F4xx/Include/stm32f405xx.h"
 151              		.file 7 "/Users/augustmason/Documents/gitHub/riptide_firmware/STM32/gcc-arm-none-eabi-6-2017-q2-up
 152              		.file 8 "/Users/augustmason/Documents/gitHub/riptide_firmware/STM32/gcc-arm-none-eabi-6-2017-q2-up
 153              		.file 9 "/Users/augustmason/Documents/gitHub/riptide_firmware/STM32/gcc-arm-none-eabi-6-2017-q2-up
 154              		.file 10 "/Users/augustmason/Documents/gitHub/riptide_firmware/STM32/gcc-arm-none-eabi-6-2017-q2-u
 155              		.file 11 "/Users/augustmason/Documents/gitHub/riptide_firmware/STM32/gcc-arm-none-eabi-6-2017-q2-u
 156              		.file 12 "Middlewares/ST/STM32_USB_Device_Library/Core/Inc/usbd_def.h"
 157              		.file 13 "Inc/usb_device.h"
 158              		.file 14 "Middlewares/ST/STM32_USB_Device_Library/Class/CDC/Inc/usbd_cdc.h"
ARM GAS  /var/folders/7p/1_dhylqx7nl5s8914_0f_4w00000gn/T//cc8pyLC6.s 			page 5


 159              		.file 15 "Inc/usbd_cdc_if.h"
 160              		.file 16 "Middlewares/Third_Party/FreeRTOS/Source/include/task.h"
 161              		.file 17 "Drivers/STM32F4xx_HAL_Driver/Inc/stm32f4xx_hal_gpio.h"
ARM GAS  /var/folders/7p/1_dhylqx7nl5s8914_0f_4w00000gn/T//cc8pyLC6.s 			page 6


DEFINED SYMBOLS
                            *ABS*:0000000000000000 riptideThreads.c
/var/folders/7p/1_dhylqx7nl5s8914_0f_4w00000gn/T//cc8pyLC6.s:18     .text.vHeartbeat:0000000000000000 $t
/var/folders/7p/1_dhylqx7nl5s8914_0f_4w00000gn/T//cc8pyLC6.s:25     .text.vHeartbeat:0000000000000000 vHeartbeat
/var/folders/7p/1_dhylqx7nl5s8914_0f_4w00000gn/T//cc8pyLC6.s:66     .text.vHeartbeat:000000000000002c $d
/var/folders/7p/1_dhylqx7nl5s8914_0f_4w00000gn/T//cc8pyLC6.s:72     .text.vSwitchMonitor:0000000000000000 $t
/var/folders/7p/1_dhylqx7nl5s8914_0f_4w00000gn/T//cc8pyLC6.s:79     .text.vSwitchMonitor:0000000000000000 vSwitchMonitor
/var/folders/7p/1_dhylqx7nl5s8914_0f_4w00000gn/T//cc8pyLC6.s:130    .text.vSwitchMonitor:0000000000000038 $d
/var/folders/7p/1_dhylqx7nl5s8914_0f_4w00000gn/T//cc8pyLC6.s:136    .rodata:0000000000000000 $d
/var/folders/7p/1_dhylqx7nl5s8914_0f_4w00000gn/T//cc8pyLC6.s:141    .rodata.vHeartbeat.str1.4:0000000000000000 $d
                     .debug_frame:0000000000000010 $d

UNDEFINED SYMBOLS
HAL_GPIO_TogglePin
CDC_Transmit_HS
vTaskDelay
HAL_GPIO_ReadPin
