Archive member included to satisfy reference by file (symbol)

/Users/augustmason/Documents/gitHub/riptide_firmware/STM32/gcc-arm-none-eabi-6-2017-q2-update/bin/../lib/gcc/arm-none-eabi/6.3.1/../../../../arm-none-eabi/lib/thumb/v7e-m/fpv4-sp/hard/libc_nano.a(lib_a-atoi.o)
                              build/riptideFunctions.o (atoi)
/Users/augustmason/Documents/gitHub/riptide_firmware/STM32/gcc-arm-none-eabi-6-2017-q2-update/bin/../lib/gcc/arm-none-eabi/6.3.1/../../../../arm-none-eabi/lib/thumb/v7e-m/fpv4-sp/hard/libc_nano.a(lib_a-efgcvt.o)
                              build/riptideThreads.o (gcvt)
/Users/augustmason/Documents/gitHub/riptide_firmware/STM32/gcc-arm-none-eabi-6-2017-q2-update/bin/../lib/gcc/arm-none-eabi/6.3.1/../../../../arm-none-eabi/lib/thumb/v7e-m/fpv4-sp/hard/libc_nano.a(lib_a-exit.o)
                              /Users/augustmason/Documents/gitHub/riptide_firmware/STM32/gcc-arm-none-eabi-6-2017-q2-update/bin/../lib/gcc/arm-none-eabi/6.3.1/../../../../arm-none-eabi/lib/thumb/v7e-m/fpv4-sp/hard/crt0.o (exit)
/Users/augustmason/Documents/gitHub/riptide_firmware/STM32/gcc-arm-none-eabi-6-2017-q2-update/bin/../lib/gcc/arm-none-eabi/6.3.1/../../../../arm-none-eabi/lib/thumb/v7e-m/fpv4-sp/hard/libc_nano.a(lib_a-impure.o)
                              /Users/augustmason/Documents/gitHub/riptide_firmware/STM32/gcc-arm-none-eabi-6-2017-q2-update/bin/../lib/gcc/arm-none-eabi/6.3.1/../../../../arm-none-eabi/lib/thumb/v7e-m/fpv4-sp/hard/libc_nano.a(lib_a-exit.o) (_global_impure_ptr)
/Users/augustmason/Documents/gitHub/riptide_firmware/STM32/gcc-arm-none-eabi-6-2017-q2-update/bin/../lib/gcc/arm-none-eabi/6.3.1/../../../../arm-none-eabi/lib/thumb/v7e-m/fpv4-sp/hard/libc_nano.a(lib_a-init.o)
                              /Users/augustmason/Documents/gitHub/riptide_firmware/STM32/gcc-arm-none-eabi-6-2017-q2-update/bin/../lib/gcc/arm-none-eabi/6.3.1/../../../../arm-none-eabi/lib/thumb/v7e-m/fpv4-sp/hard/crt0.o (__libc_init_array)
/Users/augustmason/Documents/gitHub/riptide_firmware/STM32/gcc-arm-none-eabi-6-2017-q2-update/bin/../lib/gcc/arm-none-eabi/6.3.1/../../../../arm-none-eabi/lib/thumb/v7e-m/fpv4-sp/hard/libc_nano.a(lib_a-malloc.o)
                              build/usbd_cdc.o (malloc)
/Users/augustmason/Documents/gitHub/riptide_firmware/STM32/gcc-arm-none-eabi-6-2017-q2-update/bin/../lib/gcc/arm-none-eabi/6.3.1/../../../../arm-none-eabi/lib/thumb/v7e-m/fpv4-sp/hard/libc_nano.a(lib_a-memcpy-stub.o)
                              build/queue.o (memcpy)
/Users/augustmason/Documents/gitHub/riptide_firmware/STM32/gcc-arm-none-eabi-6-2017-q2-update/bin/../lib/gcc/arm-none-eabi/6.3.1/../../../../arm-none-eabi/lib/thumb/v7e-m/fpv4-sp/hard/libc_nano.a(lib_a-memset.o)
                              /Users/augustmason/Documents/gitHub/riptide_firmware/STM32/gcc-arm-none-eabi-6-2017-q2-update/bin/../lib/gcc/arm-none-eabi/6.3.1/../../../../arm-none-eabi/lib/thumb/v7e-m/fpv4-sp/hard/crt0.o (memset)
/Users/augustmason/Documents/gitHub/riptide_firmware/STM32/gcc-arm-none-eabi-6-2017-q2-update/bin/../lib/gcc/arm-none-eabi/6.3.1/../../../../arm-none-eabi/lib/thumb/v7e-m/fpv4-sp/hard/libc_nano.a(lib_a-nano-freer.o)
                              /Users/augustmason/Documents/gitHub/riptide_firmware/STM32/gcc-arm-none-eabi-6-2017-q2-update/bin/../lib/gcc/arm-none-eabi/6.3.1/../../../../arm-none-eabi/lib/thumb/v7e-m/fpv4-sp/hard/libc_nano.a(lib_a-malloc.o) (_free_r)
/Users/augustmason/Documents/gitHub/riptide_firmware/STM32/gcc-arm-none-eabi-6-2017-q2-update/bin/../lib/gcc/arm-none-eabi/6.3.1/../../../../arm-none-eabi/lib/thumb/v7e-m/fpv4-sp/hard/libc_nano.a(lib_a-nano-mallocr.o)
                              /Users/augustmason/Documents/gitHub/riptide_firmware/STM32/gcc-arm-none-eabi-6-2017-q2-update/bin/../lib/gcc/arm-none-eabi/6.3.1/../../../../arm-none-eabi/lib/thumb/v7e-m/fpv4-sp/hard/libc_nano.a(lib_a-malloc.o) (_malloc_r)
/Users/augustmason/Documents/gitHub/riptide_firmware/STM32/gcc-arm-none-eabi-6-2017-q2-update/bin/../lib/gcc/arm-none-eabi/6.3.1/../../../../arm-none-eabi/lib/thumb/v7e-m/fpv4-sp/hard/libc_nano.a(lib_a-sbrkr.o)
                              /Users/augustmason/Documents/gitHub/riptide_firmware/STM32/gcc-arm-none-eabi-6-2017-q2-update/bin/../lib/gcc/arm-none-eabi/6.3.1/../../../../arm-none-eabi/lib/thumb/v7e-m/fpv4-sp/hard/libc_nano.a(lib_a-nano-mallocr.o) (_sbrk_r)
/Users/augustmason/Documents/gitHub/riptide_firmware/STM32/gcc-arm-none-eabi-6-2017-q2-update/bin/../lib/gcc/arm-none-eabi/6.3.1/../../../../arm-none-eabi/lib/thumb/v7e-m/fpv4-sp/hard/libc_nano.a(lib_a-strlen.o)
                              build/riptideThreads.o (strlen)
/Users/augustmason/Documents/gitHub/riptide_firmware/STM32/gcc-arm-none-eabi-6-2017-q2-update/bin/../lib/gcc/arm-none-eabi/6.3.1/../../../../arm-none-eabi/lib/thumb/v7e-m/fpv4-sp/hard/libc_nano.a(lib_a-strtol.o)
                              /Users/augustmason/Documents/gitHub/riptide_firmware/STM32/gcc-arm-none-eabi-6-2017-q2-update/bin/../lib/gcc/arm-none-eabi/6.3.1/../../../../arm-none-eabi/lib/thumb/v7e-m/fpv4-sp/hard/libc_nano.a(lib_a-atoi.o) (_strtol_r)
/Users/augustmason/Documents/gitHub/riptide_firmware/STM32/gcc-arm-none-eabi-6-2017-q2-update/bin/../lib/gcc/arm-none-eabi/6.3.1/../../../../arm-none-eabi/lib/thumb/v7e-m/fpv4-sp/hard/libc_nano.a(lib_a-ecvtbuf.o)
                              /Users/augustmason/Documents/gitHub/riptide_firmware/STM32/gcc-arm-none-eabi-6-2017-q2-update/bin/../lib/gcc/arm-none-eabi/6.3.1/../../../../arm-none-eabi/lib/thumb/v7e-m/fpv4-sp/hard/libc_nano.a(lib_a-efgcvt.o) (fcvtbuf)
/Users/augustmason/Documents/gitHub/riptide_firmware/STM32/gcc-arm-none-eabi-6-2017-q2-update/bin/../lib/gcc/arm-none-eabi/6.3.1/../../../../arm-none-eabi/lib/thumb/v7e-m/fpv4-sp/hard/libc_nano.a(lib_a-locale.o)
                              /Users/augustmason/Documents/gitHub/riptide_firmware/STM32/gcc-arm-none-eabi-6-2017-q2-update/bin/../lib/gcc/arm-none-eabi/6.3.1/../../../../arm-none-eabi/lib/thumb/v7e-m/fpv4-sp/hard/libc_nano.a(lib_a-strtol.o) (__locale_ctype_ptr_l)
/Users/augustmason/Documents/gitHub/riptide_firmware/STM32/gcc-arm-none-eabi-6-2017-q2-update/bin/../lib/gcc/arm-none-eabi/6.3.1/../../../../arm-none-eabi/lib/thumb/v7e-m/fpv4-sp/hard/libc_nano.a(lib_a-mbtowc_r.o)
                              /Users/augustmason/Documents/gitHub/riptide_firmware/STM32/gcc-arm-none-eabi-6-2017-q2-update/bin/../lib/gcc/arm-none-eabi/6.3.1/../../../../arm-none-eabi/lib/thumb/v7e-m/fpv4-sp/hard/libc_nano.a(lib_a-locale.o) (__ascii_mbtowc)
/Users/augustmason/Documents/gitHub/riptide_firmware/STM32/gcc-arm-none-eabi-6-2017-q2-update/bin/../lib/gcc/arm-none-eabi/6.3.1/../../../../arm-none-eabi/lib/thumb/v7e-m/fpv4-sp/hard/libc_nano.a(lib_a-mlock.o)
                              /Users/augustmason/Documents/gitHub/riptide_firmware/STM32/gcc-arm-none-eabi-6-2017-q2-update/bin/../lib/gcc/arm-none-eabi/6.3.1/../../../../arm-none-eabi/lib/thumb/v7e-m/fpv4-sp/hard/libc_nano.a(lib_a-nano-freer.o) (__malloc_lock)
/Users/augustmason/Documents/gitHub/riptide_firmware/STM32/gcc-arm-none-eabi-6-2017-q2-update/bin/../lib/gcc/arm-none-eabi/6.3.1/../../../../arm-none-eabi/lib/thumb/v7e-m/fpv4-sp/hard/libc_nano.a(lib_a-mprec.o)
                              /Users/augustmason/Documents/gitHub/riptide_firmware/STM32/gcc-arm-none-eabi-6-2017-q2-update/bin/../lib/gcc/arm-none-eabi/6.3.1/../../../../arm-none-eabi/lib/thumb/v7e-m/fpv4-sp/hard/libc_nano.a(lib_a-ecvtbuf.o) (_mprec_log10)
/Users/augustmason/Documents/gitHub/riptide_firmware/STM32/gcc-arm-none-eabi-6-2017-q2-update/bin/../lib/gcc/arm-none-eabi/6.3.1/../../../../arm-none-eabi/lib/thumb/v7e-m/fpv4-sp/hard/libc_nano.a(lib_a-nano-callocr.o)
                              /Users/augustmason/Documents/gitHub/riptide_firmware/STM32/gcc-arm-none-eabi-6-2017-q2-update/bin/../lib/gcc/arm-none-eabi/6.3.1/../../../../arm-none-eabi/lib/thumb/v7e-m/fpv4-sp/hard/libc_nano.a(lib_a-mprec.o) (_calloc_r)
/Users/augustmason/Documents/gitHub/riptide_firmware/STM32/gcc-arm-none-eabi-6-2017-q2-update/bin/../lib/gcc/arm-none-eabi/6.3.1/../../../../arm-none-eabi/lib/thumb/v7e-m/fpv4-sp/hard/libc_nano.a(lib_a-nano-reallocr.o)
                              /Users/augustmason/Documents/gitHub/riptide_firmware/STM32/gcc-arm-none-eabi-6-2017-q2-update/bin/../lib/gcc/arm-none-eabi/6.3.1/../../../../arm-none-eabi/lib/thumb/v7e-m/fpv4-sp/hard/libc_nano.a(lib_a-ecvtbuf.o) (_realloc_r)
/Users/augustmason/Documents/gitHub/riptide_firmware/STM32/gcc-arm-none-eabi-6-2017-q2-update/bin/../lib/gcc/arm-none-eabi/6.3.1/../../../../arm-none-eabi/lib/thumb/v7e-m/fpv4-sp/hard/libc_nano.a(lib_a-reent.o)
                              /Users/augustmason/Documents/gitHub/riptide_firmware/STM32/gcc-arm-none-eabi-6-2017-q2-update/bin/../lib/gcc/arm-none-eabi/6.3.1/../../../../arm-none-eabi/lib/thumb/v7e-m/fpv4-sp/hard/libc_nano.a(lib_a-sbrkr.o) (errno)
/Users/augustmason/Documents/gitHub/riptide_firmware/STM32/gcc-arm-none-eabi-6-2017-q2-update/bin/../lib/gcc/arm-none-eabi/6.3.1/../../../../arm-none-eabi/lib/thumb/v7e-m/fpv4-sp/hard/libc_nano.a(lib_a-strcmp.o)
                              /Users/augustmason/Documents/gitHub/riptide_firmware/STM32/gcc-arm-none-eabi-6-2017-q2-update/bin/../lib/gcc/arm-none-eabi/6.3.1/../../../../arm-none-eabi/lib/thumb/v7e-m/fpv4-sp/hard/libc_nano.a(lib_a-locale.o) (strcmp)
/Users/augustmason/Documents/gitHub/riptide_firmware/STM32/gcc-arm-none-eabi-6-2017-q2-update/bin/../lib/gcc/arm-none-eabi/6.3.1/../../../../arm-none-eabi/lib/thumb/v7e-m/fpv4-sp/hard/libc_nano.a(lib_a-strcpy.o)
                              /Users/augustmason/Documents/gitHub/riptide_firmware/STM32/gcc-arm-none-eabi-6-2017-q2-update/bin/../lib/gcc/arm-none-eabi/6.3.1/../../../../arm-none-eabi/lib/thumb/v7e-m/fpv4-sp/hard/libc_nano.a(lib_a-ecvtbuf.o) (strcpy)
/Users/augustmason/Documents/gitHub/riptide_firmware/STM32/gcc-arm-none-eabi-6-2017-q2-update/bin/../lib/gcc/arm-none-eabi/6.3.1/../../../../arm-none-eabi/lib/thumb/v7e-m/fpv4-sp/hard/libc_nano.a(lib_a-wctomb_r.o)
                              /Users/augustmason/Documents/gitHub/riptide_firmware/STM32/gcc-arm-none-eabi-6-2017-q2-update/bin/../lib/gcc/arm-none-eabi/6.3.1/../../../../arm-none-eabi/lib/thumb/v7e-m/fpv4-sp/hard/libc_nano.a(lib_a-locale.o) (__ascii_wctomb)
/Users/augustmason/Documents/gitHub/riptide_firmware/STM32/gcc-arm-none-eabi-6-2017-q2-update/bin/../lib/gcc/arm-none-eabi/6.3.1/../../../../arm-none-eabi/lib/thumb/v7e-m/fpv4-sp/hard/libc_nano.a(lib_a-ctype_.o)
                              /Users/augustmason/Documents/gitHub/riptide_firmware/STM32/gcc-arm-none-eabi-6-2017-q2-update/bin/../lib/gcc/arm-none-eabi/6.3.1/../../../../arm-none-eabi/lib/thumb/v7e-m/fpv4-sp/hard/libc_nano.a(lib_a-locale.o) (_ctype_)
/Users/augustmason/Documents/gitHub/riptide_firmware/STM32/gcc-arm-none-eabi-6-2017-q2-update/bin/../lib/gcc/arm-none-eabi/6.3.1/../../../../arm-none-eabi/lib/thumb/v7e-m/fpv4-sp/hard/libc_nano.a(lib_a-dtoa.o)
                              /Users/augustmason/Documents/gitHub/riptide_firmware/STM32/gcc-arm-none-eabi-6-2017-q2-update/bin/../lib/gcc/arm-none-eabi/6.3.1/../../../../arm-none-eabi/lib/thumb/v7e-m/fpv4-sp/hard/libc_nano.a(lib_a-ecvtbuf.o) (_dtoa_r)
/Users/augustmason/Documents/gitHub/riptide_firmware/STM32/gcc-arm-none-eabi-6-2017-q2-update/bin/../lib/gcc/arm-none-eabi/6.3.1/../../../../arm-none-eabi/lib/thumb/v7e-m/fpv4-sp/hard/libc_nano.a(lib_a-nano-msizer.o)
                              /Users/augustmason/Documents/gitHub/riptide_firmware/STM32/gcc-arm-none-eabi-6-2017-q2-update/bin/../lib/gcc/arm-none-eabi/6.3.1/../../../../arm-none-eabi/lib/thumb/v7e-m/fpv4-sp/hard/libc_nano.a(lib_a-nano-reallocr.o) (_malloc_usable_size_r)
/Users/augustmason/Documents/gitHub/riptide_firmware/STM32/gcc-arm-none-eabi-6-2017-q2-update/bin/../lib/gcc/arm-none-eabi/6.3.1/../../../../arm-none-eabi/lib/thumb/v7e-m/fpv4-sp/hard/libnosys.a(sbrk.o)
                              /Users/augustmason/Documents/gitHub/riptide_firmware/STM32/gcc-arm-none-eabi-6-2017-q2-update/bin/../lib/gcc/arm-none-eabi/6.3.1/../../../../arm-none-eabi/lib/thumb/v7e-m/fpv4-sp/hard/libc_nano.a(lib_a-sbrkr.o) (_sbrk)
/Users/augustmason/Documents/gitHub/riptide_firmware/STM32/gcc-arm-none-eabi-6-2017-q2-update/bin/../lib/gcc/arm-none-eabi/6.3.1/../../../../arm-none-eabi/lib/thumb/v7e-m/fpv4-sp/hard/libnosys.a(_exit.o)
                              /Users/augustmason/Documents/gitHub/riptide_firmware/STM32/gcc-arm-none-eabi-6-2017-q2-update/bin/../lib/gcc/arm-none-eabi/6.3.1/../../../../arm-none-eabi/lib/thumb/v7e-m/fpv4-sp/hard/libc_nano.a(lib_a-exit.o) (_exit)
/Users/augustmason/Documents/gitHub/riptide_firmware/STM32/gcc-arm-none-eabi-6-2017-q2-update/bin/../lib/gcc/arm-none-eabi/6.3.1/thumb/v7e-m/fpv4-sp/hard/libgcc.a(_arm_addsubdf3.o)
                              build/riptideFunctions.o (__aeabi_dsub)
/Users/augustmason/Documents/gitHub/riptide_firmware/STM32/gcc-arm-none-eabi-6-2017-q2-update/bin/../lib/gcc/arm-none-eabi/6.3.1/thumb/v7e-m/fpv4-sp/hard/libgcc.a(_arm_muldivdf3.o)
                              build/riptideFunctions.o (__aeabi_dmul)
/Users/augustmason/Documents/gitHub/riptide_firmware/STM32/gcc-arm-none-eabi-6-2017-q2-update/bin/../lib/gcc/arm-none-eabi/6.3.1/thumb/v7e-m/fpv4-sp/hard/libgcc.a(_arm_cmpdf2.o)
                              /Users/augustmason/Documents/gitHub/riptide_firmware/STM32/gcc-arm-none-eabi-6-2017-q2-update/bin/../lib/gcc/arm-none-eabi/6.3.1/../../../../arm-none-eabi/lib/thumb/v7e-m/fpv4-sp/hard/libc_nano.a(lib_a-ecvtbuf.o) (__aeabi_dcmpeq)
/Users/augustmason/Documents/gitHub/riptide_firmware/STM32/gcc-arm-none-eabi-6-2017-q2-update/bin/../lib/gcc/arm-none-eabi/6.3.1/thumb/v7e-m/fpv4-sp/hard/libgcc.a(_arm_fixdfsi.o)
                              /Users/augustmason/Documents/gitHub/riptide_firmware/STM32/gcc-arm-none-eabi-6-2017-q2-update/bin/../lib/gcc/arm-none-eabi/6.3.1/../../../../arm-none-eabi/lib/thumb/v7e-m/fpv4-sp/hard/libc_nano.a(lib_a-dtoa.o) (__aeabi_d2iz)
/Users/augustmason/Documents/gitHub/riptide_firmware/STM32/gcc-arm-none-eabi-6-2017-q2-update/bin/../lib/gcc/arm-none-eabi/6.3.1/thumb/v7e-m/fpv4-sp/hard/libgcc.a(_arm_truncdfsf2.o)
                              build/riptideFunctions.o (__aeabi_d2f)
/Users/augustmason/Documents/gitHub/riptide_firmware/STM32/gcc-arm-none-eabi-6-2017-q2-update/bin/../lib/gcc/arm-none-eabi/6.3.1/thumb/v7e-m/fpv4-sp/hard/libgcc.a(_aeabi_ldivmod.o)
                              build/riptideFunctions.o (__aeabi_ldivmod)
/Users/augustmason/Documents/gitHub/riptide_firmware/STM32/gcc-arm-none-eabi-6-2017-q2-update/bin/../lib/gcc/arm-none-eabi/6.3.1/thumb/v7e-m/fpv4-sp/hard/libgcc.a(_udivmoddi4.o)
                              /Users/augustmason/Documents/gitHub/riptide_firmware/STM32/gcc-arm-none-eabi-6-2017-q2-update/bin/../lib/gcc/arm-none-eabi/6.3.1/thumb/v7e-m/fpv4-sp/hard/libgcc.a(_aeabi_ldivmod.o) (__udivmoddi4)
/Users/augustmason/Documents/gitHub/riptide_firmware/STM32/gcc-arm-none-eabi-6-2017-q2-update/bin/../lib/gcc/arm-none-eabi/6.3.1/thumb/v7e-m/fpv4-sp/hard/libgcc.a(_dvmd_tls.o)
                              /Users/augustmason/Documents/gitHub/riptide_firmware/STM32/gcc-arm-none-eabi-6-2017-q2-update/bin/../lib/gcc/arm-none-eabi/6.3.1/thumb/v7e-m/fpv4-sp/hard/libgcc.a(_aeabi_ldivmod.o) (__aeabi_ldiv0)

Allocating common symbols
Common symbol       size              file

defaultTaskHandle   0x4               build/main.o
hi2c3               0x54              build/main.o
UserRxBufferHS      0x800             build/usbd_cdc_if.o
errno               0x4               /Users/augustmason/Documents/gitHub/riptide_firmware/STM32/gcc-arm-none-eabi-6-2017-q2-update/bin/../lib/gcc/arm-none-eabi/6.3.1/../../../../arm-none-eabi/lib/thumb/v7e-m/fpv4-sp/hard/libc_nano.a(lib_a-reent.o)
hpcd_USB_OTG_HS     0x3f0             build/usbd_conf.o
hi2c1               0x54              build/main.o
uwTick              0x4               build/stm32f4xx_hal.o
xQueueRegistry      0x40              build/queue.o
pFlash              0x20              build/stm32f4xx_hal_flash.o
htim5               0x3c              build/main.o
htim3               0x3c              build/main.o
hUsbDeviceHS        0x224             build/usb_device.o
htim13              0x3c              build/main.o
htim1               0x3c              build/stm32f4xx_hal_timebase_TIM.o
UserTxBufferHS      0x800             build/usbd_cdc_if.o
htim2               0x3c              build/main.o
htim14              0x3c              build/main.o
USBD_StrDesc        0x200             build/usbd_desc.o

Discarded input sections

 .text          0x0000000000000000        0x0 /Users/augustmason/Documents/gitHub/riptide_firmware/STM32/gcc-arm-none-eabi-6-2017-q2-update/bin/../lib/gcc/arm-none-eabi/6.3.1/thumb/v7e-m/fpv4-sp/hard/crti.o
 .data          0x0000000000000000        0x0 /Users/augustmason/Documents/gitHub/riptide_firmware/STM32/gcc-arm-none-eabi-6-2017-q2-update/bin/../lib/gcc/arm-none-eabi/6.3.1/thumb/v7e-m/fpv4-sp/hard/crti.o
 .bss           0x0000000000000000        0x0 /Users/augustmason/Documents/gitHub/riptide_firmware/STM32/gcc-arm-none-eabi-6-2017-q2-update/bin/../lib/gcc/arm-none-eabi/6.3.1/thumb/v7e-m/fpv4-sp/hard/crti.o
 .data          0x0000000000000000        0x4 /Users/augustmason/Documents/gitHub/riptide_firmware/STM32/gcc-arm-none-eabi-6-2017-q2-update/bin/../lib/gcc/arm-none-eabi/6.3.1/thumb/v7e-m/fpv4-sp/hard/crtbegin.o
 .text          0x0000000000000000       0x74 /Users/augustmason/Documents/gitHub/riptide_firmware/STM32/gcc-arm-none-eabi-6-2017-q2-update/bin/../lib/gcc/arm-none-eabi/6.3.1/../../../../arm-none-eabi/lib/thumb/v7e-m/fpv4-sp/hard/crt0.o
 .data          0x0000000000000000        0x0 /Users/augustmason/Documents/gitHub/riptide_firmware/STM32/gcc-arm-none-eabi-6-2017-q2-update/bin/../lib/gcc/arm-none-eabi/6.3.1/../../../../arm-none-eabi/lib/thumb/v7e-m/fpv4-sp/hard/crt0.o
 .bss           0x0000000000000000        0x0 /Users/augustmason/Documents/gitHub/riptide_firmware/STM32/gcc-arm-none-eabi-6-2017-q2-update/bin/../lib/gcc/arm-none-eabi/6.3.1/../../../../arm-none-eabi/lib/thumb/v7e-m/fpv4-sp/hard/crt0.o
 .ARM.extab     0x0000000000000000        0x0 /Users/augustmason/Documents/gitHub/riptide_firmware/STM32/gcc-arm-none-eabi-6-2017-q2-update/bin/../lib/gcc/arm-none-eabi/6.3.1/../../../../arm-none-eabi/lib/thumb/v7e-m/fpv4-sp/hard/crt0.o
 .ARM.exidx     0x0000000000000000        0x8 /Users/augustmason/Documents/gitHub/riptide_firmware/STM32/gcc-arm-none-eabi-6-2017-q2-update/bin/../lib/gcc/arm-none-eabi/6.3.1/../../../../arm-none-eabi/lib/thumb/v7e-m/fpv4-sp/hard/crt0.o
 .ARM.attributes
                0x0000000000000000       0x20 /Users/augustmason/Documents/gitHub/riptide_firmware/STM32/gcc-arm-none-eabi-6-2017-q2-update/bin/../lib/gcc/arm-none-eabi/6.3.1/../../../../arm-none-eabi/lib/thumb/v7e-m/fpv4-sp/hard/crt0.o
 .text          0x0000000000000000        0x0 build/stm32f4xx_hal.o
 .data          0x0000000000000000        0x0 build/stm32f4xx_hal.o
 .bss           0x0000000000000000        0x0 build/stm32f4xx_hal.o
 .text.HAL_MspInit
                0x0000000000000000        0x2 build/stm32f4xx_hal.o
 .text.HAL_MspDeInit
                0x0000000000000000        0x2 build/stm32f4xx_hal.o
 .text.HAL_DeInit
                0x0000000000000000       0x2c build/stm32f4xx_hal.o
 .text.HAL_InitTick
                0x0000000000000000       0x2c build/stm32f4xx_hal.o
 .text.HAL_SuspendTick
                0x0000000000000000       0x10 build/stm32f4xx_hal.o
 .text.HAL_ResumeTick
                0x0000000000000000       0x10 build/stm32f4xx_hal.o
 .text.HAL_GetHalVersion
                0x0000000000000000        0x8 build/stm32f4xx_hal.o
 .text.HAL_GetREVID
                0x0000000000000000        0xc build/stm32f4xx_hal.o
 .text.HAL_GetDEVID
                0x0000000000000000       0x10 build/stm32f4xx_hal.o
 .text.HAL_DBGMCU_EnableDBGSleepMode
                0x0000000000000000       0x10 build/stm32f4xx_hal.o
 .text.HAL_DBGMCU_DisableDBGSleepMode
                0x0000000000000000       0x10 build/stm32f4xx_hal.o
 .text.HAL_DBGMCU_EnableDBGStopMode
                0x0000000000000000       0x10 build/stm32f4xx_hal.o
 .text.HAL_DBGMCU_DisableDBGStopMode
                0x0000000000000000       0x10 build/stm32f4xx_hal.o
 .text.HAL_DBGMCU_EnableDBGStandbyMode
                0x0000000000000000       0x10 build/stm32f4xx_hal.o
 .text.HAL_DBGMCU_DisableDBGStandbyMode
                0x0000000000000000       0x10 build/stm32f4xx_hal.o
 .text.HAL_EnableCompensationCell
                0x0000000000000000       0x18 build/stm32f4xx_hal.o
 .text.HAL_DisableCompensationCell
                0x0000000000000000       0x1c build/stm32f4xx_hal.o
 .text.HAL_GetUID
                0x0000000000000000       0x20 build/stm32f4xx_hal.o
 .text          0x0000000000000000        0x0 build/main.o
 .data          0x0000000000000000        0x0 build/main.o
 .bss           0x0000000000000000        0x0 build/main.o
 .text          0x0000000000000000        0x0 build/usbd_cdc.o
 .data          0x0000000000000000        0x0 build/usbd_cdc.o
 .bss           0x0000000000000000        0x0 build/usbd_cdc.o
 .text          0x0000000000000000        0x0 build/stm32f4xx_hal_cortex.o
 .data          0x0000000000000000        0x0 build/stm32f4xx_hal_cortex.o
 .bss           0x0000000000000000        0x0 build/stm32f4xx_hal_cortex.o
 .text.HAL_NVIC_DisableIRQ
                0x0000000000000000       0x1c build/stm32f4xx_hal_cortex.o
 .text.HAL_NVIC_SystemReset
                0x0000000000000000       0x24 build/stm32f4xx_hal_cortex.o
 .text.HAL_MPU_Disable
                0x0000000000000000       0x20 build/stm32f4xx_hal_cortex.o
 .text.HAL_MPU_Enable
                0x0000000000000000       0x24 build/stm32f4xx_hal_cortex.o
 .text.HAL_MPU_ConfigRegion
                0x0000000000000000       0x54 build/stm32f4xx_hal_cortex.o
 .text.HAL_NVIC_GetPriorityGrouping
                0x0000000000000000       0x10 build/stm32f4xx_hal_cortex.o
 .text.HAL_NVIC_GetPriority
                0x0000000000000000       0x5c build/stm32f4xx_hal_cortex.o
 .text.HAL_NVIC_SetPendingIRQ
                0x0000000000000000       0x1c build/stm32f4xx_hal_cortex.o
 .text.HAL_NVIC_GetPendingIRQ
                0x0000000000000000       0x1c build/stm32f4xx_hal_cortex.o
 .text.HAL_NVIC_ClearPendingIRQ
                0x0000000000000000       0x1c build/stm32f4xx_hal_cortex.o
 .text.HAL_NVIC_GetActive
                0x0000000000000000       0x1c build/stm32f4xx_hal_cortex.o
 .text.HAL_SYSTICK_Callback
                0x0000000000000000        0x2 build/stm32f4xx_hal_cortex.o
 .text.HAL_SYSTICK_IRQHandler
                0x0000000000000000        0x8 build/stm32f4xx_hal_cortex.o
 .text          0x0000000000000000        0x0 build/list.o
 .data          0x0000000000000000        0x0 build/list.o
 .bss           0x0000000000000000        0x0 build/list.o
 .text          0x0000000000000000        0x0 build/stm32f4xx_hal_flash_ex.o
 .data          0x0000000000000000        0x0 build/stm32f4xx_hal_flash_ex.o
 .bss           0x0000000000000000        0x0 build/stm32f4xx_hal_flash_ex.o
 .text.FLASH_MassErase
                0x0000000000000000       0x24 build/stm32f4xx_hal_flash_ex.o
 .text.FLASH_OB_BOR_LevelConfig
                0x0000000000000000       0x18 build/stm32f4xx_hal_flash_ex.o
 .text.FLASH_OB_GetUser
                0x0000000000000000       0x10 build/stm32f4xx_hal_flash_ex.o
 .text.FLASH_OB_GetWRP
                0x0000000000000000        0xc build/stm32f4xx_hal_flash_ex.o
 .text.FLASH_OB_GetRDP
                0x0000000000000000       0x24 build/stm32f4xx_hal_flash_ex.o
 .text.FLASH_OB_GetBOR
                0x0000000000000000       0x10 build/stm32f4xx_hal_flash_ex.o
 .text.FLASH_OB_EnableWRP
                0x0000000000000000       0x24 build/stm32f4xx_hal_flash_ex.o
 .text.FLASH_OB_DisableWRP
                0x0000000000000000       0x24 build/stm32f4xx_hal_flash_ex.o
 .text.FLASH_OB_RDP_LevelConfig
                0x0000000000000000       0x1c build/stm32f4xx_hal_flash_ex.o
 .text.FLASH_OB_UserConfig
                0x0000000000000000       0x2c build/stm32f4xx_hal_flash_ex.o
 .text.HAL_FLASHEx_OBProgram
                0x0000000000000000       0x84 build/stm32f4xx_hal_flash_ex.o
 .text.HAL_FLASHEx_OBGetConfig
                0x0000000000000000       0x22 build/stm32f4xx_hal_flash_ex.o
 .text.FLASH_Erase_Sector
                0x0000000000000000       0x5c build/stm32f4xx_hal_flash_ex.o
 .text.HAL_FLASHEx_Erase_IT
                0x0000000000000000       0x6c build/stm32f4xx_hal_flash_ex.o
 .text.FLASH_FlushCaches
                0x0000000000000000       0x60 build/stm32f4xx_hal_flash_ex.o
 .text.HAL_FLASHEx_Erase
                0x0000000000000000       0x94 build/stm32f4xx_hal_flash_ex.o
 .debug_info    0x0000000000000000     0x11d7 build/stm32f4xx_hal_flash_ex.o
 .debug_abbrev  0x0000000000000000      0x382 build/stm32f4xx_hal_flash_ex.o
 .debug_loc     0x0000000000000000      0x66d build/stm32f4xx_hal_flash_ex.o
 .debug_aranges
                0x0000000000000000       0x98 build/stm32f4xx_hal_flash_ex.o
 .debug_ranges  0x0000000000000000       0x88 build/stm32f4xx_hal_flash_ex.o
 .debug_line    0x0000000000000000      0x4fb build/stm32f4xx_hal_flash_ex.o
 .debug_str     0x0000000000000000      0x9f8 build/stm32f4xx_hal_flash_ex.o
 .comment       0x0000000000000000       0x80 build/stm32f4xx_hal_flash_ex.o
 .debug_frame   0x0000000000000000      0x184 build/stm32f4xx_hal_flash_ex.o
 .ARM.attributes
                0x0000000000000000       0x39 build/stm32f4xx_hal_flash_ex.o
 .text          0x0000000000000000        0x0 build/stm32f4xx_hal_msp.o
 .data          0x0000000000000000        0x0 build/stm32f4xx_hal_msp.o
 .bss           0x0000000000000000        0x0 build/stm32f4xx_hal_msp.o
 .text.HAL_I2C_MspDeInit
                0x0000000000000000       0x60 build/stm32f4xx_hal_msp.o
 .text.HAL_TIM_PWM_MspDeInit
                0x0000000000000000       0x4c build/stm32f4xx_hal_msp.o
 .text.HAL_TIM_Base_MspDeInit
                0x0000000000000000       0x34 build/stm32f4xx_hal_msp.o
 .text          0x0000000000000000        0x0 build/system_stm32f4xx.o
 .data          0x0000000000000000        0x0 build/system_stm32f4xx.o
 .bss           0x0000000000000000        0x0 build/system_stm32f4xx.o
 .text.SystemCoreClockUpdate
                0x0000000000000000       0x9c build/system_stm32f4xx.o
 .text          0x0000000000000000        0x0 build/heap_4.o
 .data          0x0000000000000000        0x0 build/heap_4.o
 .bss           0x0000000000000000        0x0 build/heap_4.o
 .text.xPortGetFreeHeapSize
                0x0000000000000000        0xc build/heap_4.o
 .text.xPortGetMinimumEverFreeHeapSize
                0x0000000000000000        0xc build/heap_4.o
 .text.vPortInitialiseBlocks
                0x0000000000000000        0x2 build/heap_4.o
 .text          0x0000000000000000        0x0 build/usbd_desc.o
 .data          0x0000000000000000        0x0 build/usbd_desc.o
 .bss           0x0000000000000000        0x0 build/usbd_desc.o
 .text          0x0000000000000000        0x0 build/stm32f4xx_hal_pcd_ex.o
 .data          0x0000000000000000        0x0 build/stm32f4xx_hal_pcd_ex.o
 .bss           0x0000000000000000        0x0 build/stm32f4xx_hal_pcd_ex.o
 .text          0x0000000000000000        0x0 build/stm32f4xx_hal_rcc.o
 .data          0x0000000000000000        0x0 build/stm32f4xx_hal_rcc.o
 .bss           0x0000000000000000        0x0 build/stm32f4xx_hal_rcc.o
 .text.HAL_RCC_DeInit
                0x0000000000000000        0x2 build/stm32f4xx_hal_rcc.o
 .text.HAL_RCC_MCOConfig
                0x0000000000000000       0x9c build/stm32f4xx_hal_rcc.o
 .text.HAL_RCC_EnableCSS
                0x0000000000000000        0xc build/stm32f4xx_hal_rcc.o
 .text.HAL_RCC_DisableCSS
                0x0000000000000000        0xc build/stm32f4xx_hal_rcc.o
 .text.HAL_RCC_GetOscConfig
                0x0000000000000000      0x100 build/stm32f4xx_hal_rcc.o
 .text.HAL_RCC_CSSCallback
                0x0000000000000000        0x2 build/stm32f4xx_hal_rcc.o
 .text.HAL_RCC_NMI_IRQHandler
                0x0000000000000000       0x24 build/stm32f4xx_hal_rcc.o
 .text          0x0000000000000000        0x0 build/cmsis_os.o
 .data          0x0000000000000000        0x0 build/cmsis_os.o
 .bss           0x0000000000000000        0x0 build/cmsis_os.o
 .text.makeCmsisPriority
                0x0000000000000000        0xe build/cmsis_os.o
 .text.inHandlerMode
                0x0000000000000000        0xc build/cmsis_os.o
 .text.osKernelRunning
                0x0000000000000000       0x12 build/cmsis_os.o
 .text.osKernelSysTick
                0x0000000000000000       0x14 build/cmsis_os.o
 .text.osThreadGetId
                0x0000000000000000        0x8 build/cmsis_os.o
 .text.osThreadTerminate
                0x0000000000000000        0xa build/cmsis_os.o
 .text.osThreadYield
                0x0000000000000000       0x18 build/cmsis_os.o
 .text.osThreadSetPriority
                0x0000000000000000       0x16 build/cmsis_os.o
 .text.osThreadGetPriority
                0x0000000000000000       0x22 build/cmsis_os.o
 .text.osTimerCreate
                0x0000000000000000        0x4 build/cmsis_os.o
 .text.osTimerStart
                0x0000000000000000        0x4 build/cmsis_os.o
 .text.osTimerStop
                0x0000000000000000        0x4 build/cmsis_os.o
 .text.osTimerDelete
                0x0000000000000000        0x4 build/cmsis_os.o
 .text.osSignalSet
                0x0000000000000000       0x64 build/cmsis_os.o
 .text.osSignalWait
                0x0000000000000000       0x68 build/cmsis_os.o
 .text.osMutexCreate
                0x0000000000000000        0xa build/cmsis_os.o
 .text.osMutexWait
                0x0000000000000000       0x74 build/cmsis_os.o
 .text.osMutexRelease
                0x0000000000000000       0x5c build/cmsis_os.o
 .text.osMutexDelete
                0x0000000000000000       0x18 build/cmsis_os.o
 .text.osSemaphoreCreate
                0x0000000000000000       0x26 build/cmsis_os.o
 .text.osSemaphoreWait
                0x0000000000000000       0x74 build/cmsis_os.o
 .text.osSemaphoreRelease
                0x0000000000000000       0x5c build/cmsis_os.o
 .text.osSemaphoreDelete
                0x0000000000000000       0x18 build/cmsis_os.o
 .text.osPoolCreate
                0x0000000000000000       0x68 build/cmsis_os.o
 .text.osPoolAlloc
                0x0000000000000000       0x6c build/cmsis_os.o
 .text.osPoolCAlloc
                0x0000000000000000       0x12 build/cmsis_os.o
 .text.osPoolFree
                0x0000000000000000       0x40 build/cmsis_os.o
 .text.osMessageCreate
                0x0000000000000000        0xe build/cmsis_os.o
 .text.osMessagePut
                0x0000000000000000       0x68 build/cmsis_os.o
 .text.osMessageGet
                0x0000000000000000       0xa0 build/cmsis_os.o
 .text.osMailCreate
                0x0000000000000000       0x66 build/cmsis_os.o
 .text.osMailAlloc
                0x0000000000000000       0x10 build/cmsis_os.o
 .text.osMailCAlloc
                0x0000000000000000       0x22 build/cmsis_os.o
 .text.osMailPut
                0x0000000000000000       0x68 build/cmsis_os.o
 .text.osMailGet
                0x0000000000000000       0x9c build/cmsis_os.o
 .text.osMailFree
                0x0000000000000000       0x10 build/cmsis_os.o
 .text.osThreadSuspend
                0x0000000000000000        0xa build/cmsis_os.o
 .text.osThreadResume
                0x0000000000000000       0x34 build/cmsis_os.o
 .text.osThreadSuspendAll
                0x0000000000000000        0xa build/cmsis_os.o
 .text.osThreadResumeAll
                0x0000000000000000       0x12 build/cmsis_os.o
 .text.osDelayUntil
                0x0000000000000000        0x4 build/cmsis_os.o
 .text.osAbortDelay
                0x0000000000000000        0x4 build/cmsis_os.o
 .text.osThreadList
                0x0000000000000000        0x4 build/cmsis_os.o
 .text.osMessagePeek
                0x0000000000000000       0x5a build/cmsis_os.o
 .text.osMessageWaiting
                0x0000000000000000       0x1a build/cmsis_os.o
 .text.osMessageAvailableSpace
                0x0000000000000000        0x8 build/cmsis_os.o
 .text.osMessageDelete
                0x0000000000000000       0x18 build/cmsis_os.o
 .text.osRecursiveMutexCreate
                0x0000000000000000        0x4 build/cmsis_os.o
 .text.osRecursiveMutexRelease
                0x0000000000000000        0x4 build/cmsis_os.o
 .text.osRecursiveMutexWait
                0x0000000000000000        0x4 build/cmsis_os.o
 .text.osSemaphoreGetCount
                0x0000000000000000        0x8 build/cmsis_os.o
 .text          0x0000000000000000        0x0 build/stm32f4xx_hal_flash.o
 .data          0x0000000000000000        0x0 build/stm32f4xx_hal_flash.o
 .bss           0x0000000000000000        0x0 build/stm32f4xx_hal_flash.o
 .text.FLASH_Program_DoubleWord
                0x0000000000000000       0x2c build/stm32f4xx_hal_flash.o
 .text.FLASH_Program_Word
                0x0000000000000000       0x24 build/stm32f4xx_hal_flash.o
 .text.FLASH_Program_HalfWord
                0x0000000000000000       0x24 build/stm32f4xx_hal_flash.o
 .text.FLASH_Program_Byte
                0x0000000000000000       0x20 build/stm32f4xx_hal_flash.o
 .text.FLASH_SetErrorCode
                0x0000000000000000       0x8c build/stm32f4xx_hal_flash.o
 .text.HAL_FLASH_Program_IT
                0x0000000000000000       0x70 build/stm32f4xx_hal_flash.o
 .text.HAL_FLASH_EndOfOperationCallback
                0x0000000000000000        0x2 build/stm32f4xx_hal_flash.o
 .text.HAL_FLASH_OperationErrorCallback
                0x0000000000000000        0x2 build/stm32f4xx_hal_flash.o
 .text.HAL_FLASH_IRQHandler
                0x0000000000000000       0xf4 build/stm32f4xx_hal_flash.o
 .text.HAL_FLASH_Unlock
                0x0000000000000000       0x24 build/stm32f4xx_hal_flash.o
 .text.HAL_FLASH_Lock
                0x0000000000000000       0x14 build/stm32f4xx_hal_flash.o
 .text.HAL_FLASH_OB_Unlock
                0x0000000000000000       0x28 build/stm32f4xx_hal_flash.o
 .text.HAL_FLASH_OB_Lock
                0x0000000000000000       0x14 build/stm32f4xx_hal_flash.o
 .text.HAL_FLASH_GetError
                0x0000000000000000        0xc build/stm32f4xx_hal_flash.o
 .text.FLASH_WaitForLastOperation
                0x0000000000000000       0x64 build/stm32f4xx_hal_flash.o
 .text.HAL_FLASH_Program
                0x0000000000000000       0x84 build/stm32f4xx_hal_flash.o
 .text.HAL_FLASH_OB_Launch
                0x0000000000000000       0x1c build/stm32f4xx_hal_flash.o
 .debug_info    0x0000000000000000     0x10ba build/stm32f4xx_hal_flash.o
 .debug_abbrev  0x0000000000000000      0x334 build/stm32f4xx_hal_flash.o
 .debug_loc     0x0000000000000000      0x38c build/stm32f4xx_hal_flash.o
 .debug_aranges
                0x0000000000000000       0xa0 build/stm32f4xx_hal_flash.o
 .debug_ranges  0x0000000000000000       0x90 build/stm32f4xx_hal_flash.o
 .debug_line    0x0000000000000000      0x50f build/stm32f4xx_hal_flash.o
 .debug_str     0x0000000000000000      0x98e build/stm32f4xx_hal_flash.o
 .comment       0x0000000000000000       0x80 build/stm32f4xx_hal_flash.o
 .debug_frame   0x0000000000000000      0x17c build/stm32f4xx_hal_flash.o
 .ARM.attributes
                0x0000000000000000       0x39 build/stm32f4xx_hal_flash.o
 COMMON         0x0000000000000000       0x20 build/stm32f4xx_hal_flash.o
 .text          0x0000000000000000        0x0 build/stm32f4xx_it.o
 .data          0x0000000000000000        0x0 build/stm32f4xx_it.o
 .bss           0x0000000000000000        0x0 build/stm32f4xx_it.o
 .text          0x0000000000000000        0x0 build/stm32f4xx_hal_pcd.o
 .data          0x0000000000000000        0x0 build/stm32f4xx_hal_pcd.o
 .bss           0x0000000000000000        0x0 build/stm32f4xx_hal_pcd.o
 .text.HAL_PCD_MspInit
                0x0000000000000000        0x2 build/stm32f4xx_hal_pcd.o
 .text.HAL_PCD_MspDeInit
                0x0000000000000000        0x2 build/stm32f4xx_hal_pcd.o
 .text.HAL_PCD_Stop
                0x0000000000000000       0x30 build/stm32f4xx_hal_pcd.o
 .text.HAL_PCD_DeInit
                0x0000000000000000       0x22 build/stm32f4xx_hal_pcd.o
 .text.HAL_PCD_DataOutStageCallback
                0x0000000000000000        0x2 build/stm32f4xx_hal_pcd.o
 .text.HAL_PCD_DataInStageCallback
                0x0000000000000000        0x2 build/stm32f4xx_hal_pcd.o
 .text.HAL_PCD_SetupStageCallback
                0x0000000000000000        0x2 build/stm32f4xx_hal_pcd.o
 .text.HAL_PCD_SOFCallback
                0x0000000000000000        0x2 build/stm32f4xx_hal_pcd.o
 .text.HAL_PCD_ResetCallback
                0x0000000000000000        0x2 build/stm32f4xx_hal_pcd.o
 .text.HAL_PCD_SuspendCallback
                0x0000000000000000        0x2 build/stm32f4xx_hal_pcd.o
 .text.HAL_PCD_ResumeCallback
                0x0000000000000000        0x2 build/stm32f4xx_hal_pcd.o
 .text.HAL_PCD_ISOOUTIncompleteCallback
                0x0000000000000000        0x2 build/stm32f4xx_hal_pcd.o
 .text.HAL_PCD_ISOINIncompleteCallback
                0x0000000000000000        0x2 build/stm32f4xx_hal_pcd.o
 .text.HAL_PCD_ConnectCallback
                0x0000000000000000        0x2 build/stm32f4xx_hal_pcd.o
 .text.HAL_PCD_DisconnectCallback
                0x0000000000000000        0x2 build/stm32f4xx_hal_pcd.o
 .text.HAL_PCD_DevConnect
                0x0000000000000000       0x24 build/stm32f4xx_hal_pcd.o
 .text.HAL_PCD_DevDisconnect
                0x0000000000000000       0x24 build/stm32f4xx_hal_pcd.o
 .text.HAL_PCD_EP_Flush
                0x0000000000000000       0x36 build/stm32f4xx_hal_pcd.o
 .text.HAL_PCD_ActivateRemoteWakeup
                0x0000000000000000       0x1c build/stm32f4xx_hal_pcd.o
 .text.HAL_PCD_DeActivateRemoteWakeup
                0x0000000000000000       0x12 build/stm32f4xx_hal_pcd.o
 .text.HAL_PCD_GetState
                0x0000000000000000        0x6 build/stm32f4xx_hal_pcd.o
 .text          0x0000000000000000        0x0 build/croutine.o
 .data          0x0000000000000000        0x0 build/croutine.o
 .bss           0x0000000000000000        0x0 build/croutine.o
 .debug_info    0x0000000000000000       0x9c build/croutine.o
 .debug_abbrev  0x0000000000000000       0x44 build/croutine.o
 .debug_aranges
                0x0000000000000000       0x18 build/croutine.o
 .debug_line    0x0000000000000000      0x14a build/croutine.o
 .debug_str     0x0000000000000000      0x1f5 build/croutine.o
 .comment       0x0000000000000000       0x80 build/croutine.o
 .ARM.attributes
                0x0000000000000000       0x39 build/croutine.o
 .text          0x0000000000000000        0x0 build/stm32f4xx_hal_i2c_ex.o
 .data          0x0000000000000000        0x0 build/stm32f4xx_hal_i2c_ex.o
 .bss           0x0000000000000000        0x0 build/stm32f4xx_hal_i2c_ex.o
 .debug_info    0x0000000000000000      0xa1f build/stm32f4xx_hal_i2c_ex.o
 .debug_abbrev  0x0000000000000000      0x174 build/stm32f4xx_hal_i2c_ex.o
 .debug_aranges
                0x0000000000000000       0x18 build/stm32f4xx_hal_i2c_ex.o
 .debug_line    0x0000000000000000      0x245 build/stm32f4xx_hal_i2c_ex.o
 .debug_str     0x0000000000000000      0x623 build/stm32f4xx_hal_i2c_ex.o
 .comment       0x0000000000000000       0x80 build/stm32f4xx_hal_i2c_ex.o
 .ARM.attributes
                0x0000000000000000       0x39 build/stm32f4xx_hal_i2c_ex.o
 .text          0x0000000000000000        0x0 build/usbd_ctlreq.o
 .data          0x0000000000000000        0x0 build/usbd_ctlreq.o
 .bss           0x0000000000000000        0x0 build/usbd_ctlreq.o
 .text          0x0000000000000000        0x0 build/stm32f4xx_hal_tim_ex.o
 .data          0x0000000000000000        0x0 build/stm32f4xx_hal_tim_ex.o
 .bss           0x0000000000000000        0x0 build/stm32f4xx_hal_tim_ex.o
 .text.TIM_CCxNChannelCmd
                0x0000000000000000       0x1e build/stm32f4xx_hal_tim_ex.o
 .text.HAL_TIMEx_HallSensor_MspInit
                0x0000000000000000        0x2 build/stm32f4xx_hal_tim_ex.o
 .text.HAL_TIMEx_HallSensor_Init
                0x0000000000000000       0xb0 build/stm32f4xx_hal_tim_ex.o
 .text.HAL_TIMEx_HallSensor_MspDeInit
                0x0000000000000000        0x2 build/stm32f4xx_hal_tim_ex.o
 .text.HAL_TIMEx_HallSensor_DeInit
                0x0000000000000000       0x3a build/stm32f4xx_hal_tim_ex.o
 .text.HAL_TIMEx_HallSensor_Start
                0x0000000000000000       0x1c build/stm32f4xx_hal_tim_ex.o
 .text.HAL_TIMEx_HallSensor_Stop
                0x0000000000000000       0x30 build/stm32f4xx_hal_tim_ex.o
 .text.HAL_TIMEx_HallSensor_Start_IT
                0x0000000000000000       0x26 build/stm32f4xx_hal_tim_ex.o
 .text.HAL_TIMEx_HallSensor_Stop_IT
                0x0000000000000000       0x3a build/stm32f4xx_hal_tim_ex.o
 .text.HAL_TIMEx_HallSensor_Start_DMA
                0x0000000000000000       0x74 build/stm32f4xx_hal_tim_ex.o
 .text.HAL_TIMEx_HallSensor_Stop_DMA
                0x0000000000000000       0x3a build/stm32f4xx_hal_tim_ex.o
 .text.HAL_TIMEx_OCN_Start
                0x0000000000000000       0x24 build/stm32f4xx_hal_tim_ex.o
 .text.HAL_TIMEx_OCN_Stop
                0x0000000000000000       0x4c build/stm32f4xx_hal_tim_ex.o
 .text.HAL_TIMEx_OCN_Start_IT
                0x0000000000000000       0x72 build/stm32f4xx_hal_tim_ex.o
 .text.HAL_TIMEx_OCN_Stop_IT
                0x0000000000000000       0xa4 build/stm32f4xx_hal_tim_ex.o
 .text.HAL_TIMEx_OCN_Start_DMA
                0x0000000000000000      0x100 build/stm32f4xx_hal_tim_ex.o
 .text.HAL_TIMEx_OCN_Stop_DMA
                0x0000000000000000       0x96 build/stm32f4xx_hal_tim_ex.o
 .text.HAL_TIMEx_PWMN_Start
                0x0000000000000000       0x24 build/stm32f4xx_hal_tim_ex.o
 .text.HAL_TIMEx_PWMN_Stop
                0x0000000000000000       0x4c build/stm32f4xx_hal_tim_ex.o
 .text.HAL_TIMEx_PWMN_Start_IT
                0x0000000000000000       0x72 build/stm32f4xx_hal_tim_ex.o
 .text.HAL_TIMEx_PWMN_Stop_IT
                0x0000000000000000       0xa4 build/stm32f4xx_hal_tim_ex.o
 .text.HAL_TIMEx_PWMN_Start_DMA
                0x0000000000000000      0x100 build/stm32f4xx_hal_tim_ex.o
 .text.HAL_TIMEx_PWMN_Stop_DMA
                0x0000000000000000       0x96 build/stm32f4xx_hal_tim_ex.o
 .text.HAL_TIMEx_OnePulseN_Start
                0x0000000000000000       0x1a build/stm32f4xx_hal_tim_ex.o
 .text.HAL_TIMEx_OnePulseN_Stop
                0x0000000000000000       0x4c build/stm32f4xx_hal_tim_ex.o
 .text.HAL_TIMEx_OnePulseN_Start_IT
                0x0000000000000000       0x2e build/stm32f4xx_hal_tim_ex.o
 .text.HAL_TIMEx_OnePulseN_Stop_IT
                0x0000000000000000       0x60 build/stm32f4xx_hal_tim_ex.o
 .text.HAL_TIMEx_ConfigCommutationEvent
                0x0000000000000000       0x5e build/stm32f4xx_hal_tim_ex.o
 .text.HAL_TIMEx_ConfigCommutationEvent_IT
                0x0000000000000000       0x68 build/stm32f4xx_hal_tim_ex.o
 .text.HAL_TIMEx_ConfigCommutationEvent_DMA
                0x0000000000000000       0x7c build/stm32f4xx_hal_tim_ex.o
 .text.HAL_TIMEx_ConfigBreakDeadTime
                0x0000000000000000       0x58 build/stm32f4xx_hal_tim_ex.o
 .text.HAL_TIMEx_RemapConfig
                0x0000000000000000       0x20 build/stm32f4xx_hal_tim_ex.o
 .text.TIMEx_DMACommutationCplt
                0x0000000000000000       0x10 build/stm32f4xx_hal_tim_ex.o
 .text.HAL_TIMEx_HallSensor_GetState
                0x0000000000000000        0x6 build/stm32f4xx_hal_tim_ex.o
 .text          0x0000000000000000        0x0 build/stm32f4xx_hal_flash_ramfunc.o
 .data          0x0000000000000000        0x0 build/stm32f4xx_hal_flash_ramfunc.o
 .bss           0x0000000000000000        0x0 build/stm32f4xx_hal_flash_ramfunc.o
 .debug_info    0x0000000000000000      0xa1f build/stm32f4xx_hal_flash_ramfunc.o
 .debug_abbrev  0x0000000000000000      0x174 build/stm32f4xx_hal_flash_ramfunc.o
 .debug_aranges
                0x0000000000000000       0x18 build/stm32f4xx_hal_flash_ramfunc.o
 .debug_line    0x0000000000000000      0x245 build/stm32f4xx_hal_flash_ramfunc.o
 .debug_str     0x0000000000000000      0x62a build/stm32f4xx_hal_flash_ramfunc.o
 .comment       0x0000000000000000       0x80 build/stm32f4xx_hal_flash_ramfunc.o
 .ARM.attributes
                0x0000000000000000       0x39 build/stm32f4xx_hal_flash_ramfunc.o
 .text          0x0000000000000000        0x0 build/tasks.o
 .data          0x0000000000000000        0x0 build/tasks.o
 .bss           0x0000000000000000        0x0 build/tasks.o
 .text.prvTaskIsTaskSuspended
                0x0000000000000000       0x4c build/tasks.o
 .text.vTaskDelete
                0x0000000000000000       0xe0 build/tasks.o
 .text.uxTaskPriorityGet
                0x0000000000000000       0x20 build/tasks.o
 .text.uxTaskPriorityGetFromISR
                0x0000000000000000       0x30 build/tasks.o
 .text.vTaskPrioritySet
                0x0000000000000000       0xe8 build/tasks.o
 .text.vTaskResume
                0x0000000000000000       0x88 build/tasks.o
 .text.xTaskResumeFromISR
                0x0000000000000000       0xa8 build/tasks.o
 .text.vTaskEndScheduler
                0x0000000000000000       0x24 build/tasks.o
 .text.xTaskGetTickCount
                0x0000000000000000        0xc build/tasks.o
 .text.xTaskGetTickCountFromISR
                0x0000000000000000       0x10 build/tasks.o
 .text.uxTaskGetNumberOfTasks
                0x0000000000000000        0xc build/tasks.o
 .text.pcTaskGetName
                0x0000000000000000       0x24 build/tasks.o
 .text.vTaskSuspend
                0x0000000000000000       0xd8 build/tasks.o
 .text.vTaskPlaceOnEventList
                0x0000000000000000       0x30 build/tasks.o
 .text.vTaskPlaceOnUnorderedEventList
                0x0000000000000000       0x5c build/tasks.o
 .text.xTaskRemoveFromEventList
                0x0000000000000000       0x8c build/tasks.o
 .text.xTaskRemoveFromUnorderedEventList
                0x0000000000000000       0x8c build/tasks.o
 .text.vTaskSetTimeOutState
                0x0000000000000000       0x2c build/tasks.o
 .text.xTaskCheckForTimeOut
                0x0000000000000000       0x80 build/tasks.o
 .text.vTaskMissedYield
                0x0000000000000000        0xc build/tasks.o
 .text.xTaskGetCurrentTaskHandle
                0x0000000000000000        0xc build/tasks.o
 .text.vTaskPriorityInherit
                0x0000000000000000       0xa4 build/tasks.o
 .text.xTaskPriorityDisinherit
                0x0000000000000000       0xb4 build/tasks.o
 .text.uxTaskResetEventItemValue
                0x0000000000000000       0x18 build/tasks.o
 .text.pvTaskIncrementMutexHeldCount
                0x0000000000000000       0x1c build/tasks.o
 .text.ulTaskNotifyTake
                0x0000000000000000       0x78 build/tasks.o
 .text.xTaskNotifyWait
                0x0000000000000000       0x98 build/tasks.o
 .text.xTaskGenericNotify
                0x0000000000000000       0xe0 build/tasks.o
 .text.xTaskGenericNotifyFromISR
                0x0000000000000000      0x118 build/tasks.o
 .text.vTaskNotifyGiveFromISR
                0x0000000000000000       0xd0 build/tasks.o
 .text.xTaskNotifyStateClear
                0x0000000000000000       0x34 build/tasks.o
 .text          0x0000000000000000        0x0 build/port.o
 .data          0x0000000000000000        0x0 build/port.o
 .bss           0x0000000000000000        0x0 build/port.o
 .text.vPortEndScheduler
                0x0000000000000000       0x24 build/port.o
 .text.vPortValidateInterruptPriority
                0x0000000000000000       0x5c build/port.o
 .text          0x0000000000000000        0x0 build/stm32f4xx_hal_dma.o
 .data          0x0000000000000000        0x0 build/stm32f4xx_hal_dma.o
 .bss           0x0000000000000000        0x0 build/stm32f4xx_hal_dma.o
 .text.DMA_SetConfig
                0x0000000000000000       0x2c build/stm32f4xx_hal_dma.o
 .text.DMA_CalcBaseAndBitshift
                0x0000000000000000       0x3c build/stm32f4xx_hal_dma.o
 .text.DMA_CheckFifoParam
                0x0000000000000000       0x8e build/stm32f4xx_hal_dma.o
 .text.HAL_DMA_Init
                0x0000000000000000       0xd0 build/stm32f4xx_hal_dma.o
 .text.HAL_DMA_DeInit
                0x0000000000000000       0x58 build/stm32f4xx_hal_dma.o
 .text.HAL_DMA_Start
                0x0000000000000000       0x48 build/stm32f4xx_hal_dma.o
 .text.HAL_DMA_Start_IT
                0x0000000000000000       0x74 build/stm32f4xx_hal_dma.o
 .text.HAL_DMA_Abort
                0x0000000000000000       0x94 build/stm32f4xx_hal_dma.o
 .text.HAL_DMA_Abort_IT
                0x0000000000000000       0x26 build/stm32f4xx_hal_dma.o
 .text.HAL_DMA_PollForTransfer
                0x0000000000000000      0x130 build/stm32f4xx_hal_dma.o
 .text.HAL_DMA_IRQHandler
                0x0000000000000000      0x1e4 build/stm32f4xx_hal_dma.o
 .text.HAL_DMA_RegisterCallback
                0x0000000000000000       0x5e build/stm32f4xx_hal_dma.o
 .text.HAL_DMA_UnRegisterCallback
                0x0000000000000000       0x70 build/stm32f4xx_hal_dma.o
 .text.HAL_DMA_GetState
                0x0000000000000000        0x6 build/stm32f4xx_hal_dma.o
 .text.HAL_DMA_GetError
                0x0000000000000000        0x4 build/stm32f4xx_hal_dma.o
 .rodata.flagBitshiftOffset.9145
                0x0000000000000000        0x8 build/stm32f4xx_hal_dma.o
 .debug_info    0x0000000000000000     0x13ef build/stm32f4xx_hal_dma.o
 .debug_abbrev  0x0000000000000000      0x326 build/stm32f4xx_hal_dma.o
 .debug_loc     0x0000000000000000      0xc39 build/stm32f4xx_hal_dma.o
 .debug_aranges
                0x0000000000000000       0x90 build/stm32f4xx_hal_dma.o
 .debug_ranges  0x0000000000000000       0x80 build/stm32f4xx_hal_dma.o
 .debug_line    0x0000000000000000      0x619 build/stm32f4xx_hal_dma.o
 .debug_str     0x0000000000000000      0xbb0 build/stm32f4xx_hal_dma.o
 .comment       0x0000000000000000       0x80 build/stm32f4xx_hal_dma.o
 .debug_frame   0x0000000000000000      0x1a8 build/stm32f4xx_hal_dma.o
 .ARM.attributes
                0x0000000000000000       0x39 build/stm32f4xx_hal_dma.o
 .text          0x0000000000000000        0x0 build/stm32f4xx_hal_tim.o
 .data          0x0000000000000000        0x0 build/stm32f4xx_hal_tim.o
 .bss           0x0000000000000000        0x0 build/stm32f4xx_hal_tim.o
 .text.TIM_TI1_ConfigInputStage
                0x0000000000000000       0x26 build/stm32f4xx_hal_tim.o
 .text.TIM_TI2_SetConfig
                0x0000000000000000       0x34 build/stm32f4xx_hal_tim.o
 .text.TIM_TI2_ConfigInputStage
                0x0000000000000000       0x28 build/stm32f4xx_hal_tim.o
 .text.TIM_TI3_SetConfig
                0x0000000000000000       0x32 build/stm32f4xx_hal_tim.o
 .text.TIM_TI4_SetConfig
                0x0000000000000000       0x34 build/stm32f4xx_hal_tim.o
 .text.TIM_ITRx_SetConfig
                0x0000000000000000       0x10 build/stm32f4xx_hal_tim.o
 .text.TIM_ETR_SetConfig
                0x0000000000000000       0x18 build/stm32f4xx_hal_tim.o
 .text.TIM_SlaveTimer_SetConfig
                0x0000000000000000       0x76 build/stm32f4xx_hal_tim.o
 .text.HAL_TIM_Base_MspInit
                0x0000000000000000        0x2 build/stm32f4xx_hal_tim.o
 .text.HAL_TIM_Base_MspDeInit
                0x0000000000000000        0x2 build/stm32f4xx_hal_tim.o
 .text.HAL_TIM_Base_DeInit
                0x0000000000000000       0x3a build/stm32f4xx_hal_tim.o
 .text.HAL_TIM_Base_Start
                0x0000000000000000       0x1a build/stm32f4xx_hal_tim.o
 .text.HAL_TIM_Base_Stop
                0x0000000000000000       0x2e build/stm32f4xx_hal_tim.o
 .text.HAL_TIM_Base_Stop_IT
                0x0000000000000000       0x2c build/stm32f4xx_hal_tim.o
 .text.HAL_TIM_Base_Start_DMA
                0x0000000000000000       0x68 build/stm32f4xx_hal_tim.o
 .text.HAL_TIM_Base_Stop_DMA
                0x0000000000000000       0x32 build/stm32f4xx_hal_tim.o
 .text.HAL_TIM_OC_MspInit
                0x0000000000000000        0x2 build/stm32f4xx_hal_tim.o
 .text.HAL_TIM_OC_MspDeInit
                0x0000000000000000        0x2 build/stm32f4xx_hal_tim.o
 .text.HAL_TIM_OC_DeInit
                0x0000000000000000       0x3a build/stm32f4xx_hal_tim.o
 .text.HAL_TIM_PWM_MspInit
                0x0000000000000000        0x2 build/stm32f4xx_hal_tim.o
 .text.HAL_TIM_PWM_MspDeInit
                0x0000000000000000        0x2 build/stm32f4xx_hal_tim.o
 .text.HAL_TIM_PWM_DeInit
                0x0000000000000000       0x3a build/stm32f4xx_hal_tim.o
 .text.HAL_TIM_IC_MspInit
                0x0000000000000000        0x2 build/stm32f4xx_hal_tim.o
 .text.HAL_TIM_IC_MspDeInit
                0x0000000000000000        0x2 build/stm32f4xx_hal_tim.o
 .text.HAL_TIM_IC_DeInit
                0x0000000000000000       0x3a build/stm32f4xx_hal_tim.o
 .text.HAL_TIM_OnePulse_MspInit
                0x0000000000000000        0x2 build/stm32f4xx_hal_tim.o
 .text.HAL_TIM_OnePulse_MspDeInit
                0x0000000000000000        0x2 build/stm32f4xx_hal_tim.o
 .text.HAL_TIM_OnePulse_DeInit
                0x0000000000000000       0x3a build/stm32f4xx_hal_tim.o
 .text.HAL_TIM_Encoder_MspInit
                0x0000000000000000        0x2 build/stm32f4xx_hal_tim.o
 .text.HAL_TIM_Encoder_MspDeInit
                0x0000000000000000        0x2 build/stm32f4xx_hal_tim.o
 .text.HAL_TIM_Encoder_DeInit
                0x0000000000000000       0x3a build/stm32f4xx_hal_tim.o
 .text.HAL_TIM_DMABurst_WriteStart
                0x0000000000000000      0x16c build/stm32f4xx_hal_tim.o
 .text.HAL_TIM_DMABurst_WriteStop
                0x0000000000000000       0x76 build/stm32f4xx_hal_tim.o
 .text.HAL_TIM_DMABurst_ReadStart
                0x0000000000000000      0x16c build/stm32f4xx_hal_tim.o
 .text.HAL_TIM_DMABurst_ReadStop
                0x0000000000000000       0x76 build/stm32f4xx_hal_tim.o
 .text.HAL_TIM_GenerateEvent
                0x0000000000000000       0x26 build/stm32f4xx_hal_tim.o
 .text.HAL_TIM_ConfigOCrefClear
                0x0000000000000000       0xc6 build/stm32f4xx_hal_tim.o
 .text.HAL_TIM_ConfigClockSource
                0x0000000000000000      0x108 build/stm32f4xx_hal_tim.o
 .text.HAL_TIM_ConfigTI1Input
                0x0000000000000000       0x10 build/stm32f4xx_hal_tim.o
 .text.HAL_TIM_SlaveConfigSynchronization
                0x0000000000000000       0x40 build/stm32f4xx_hal_tim.o
 .text.HAL_TIM_SlaveConfigSynchronization_IT
                0x0000000000000000       0x40 build/stm32f4xx_hal_tim.o
 .text.HAL_TIM_ReadCapturedValue
                0x0000000000000000       0x4c build/stm32f4xx_hal_tim.o
 .text.HAL_TIM_PeriodElapsedCallback
                0x0000000000000000        0x2 build/stm32f4xx_hal_tim.o
 .text.TIM_DMAPeriodElapsedCplt
                0x0000000000000000       0x10 build/stm32f4xx_hal_tim.o
 .text.TIM_DMACaptureCplt
                0x0000000000000000       0x46 build/stm32f4xx_hal_tim.o
 .text.TIM_DMADelayPulseCplt
                0x0000000000000000       0x46 build/stm32f4xx_hal_tim.o
 .text.TIM_DMATriggerCplt
                0x0000000000000000       0x10 build/stm32f4xx_hal_tim.o
 .text.HAL_TIM_ErrorCallback
                0x0000000000000000        0x2 build/stm32f4xx_hal_tim.o
 .text.TIM_DMAError
                0x0000000000000000       0x10 build/stm32f4xx_hal_tim.o
 .text.HAL_TIM_Base_GetState
                0x0000000000000000        0x6 build/stm32f4xx_hal_tim.o
 .text.HAL_TIM_OC_GetState
                0x0000000000000000        0x6 build/stm32f4xx_hal_tim.o
 .text.HAL_TIM_PWM_GetState
                0x0000000000000000        0x6 build/stm32f4xx_hal_tim.o
 .text.HAL_TIM_IC_GetState
                0x0000000000000000        0x6 build/stm32f4xx_hal_tim.o
 .text.HAL_TIM_OnePulse_GetState
                0x0000000000000000        0x6 build/stm32f4xx_hal_tim.o
 .text.HAL_TIM_Encoder_GetState
                0x0000000000000000        0x6 build/stm32f4xx_hal_tim.o
 .text.HAL_TIM_OC_Init
                0x0000000000000000       0x32 build/stm32f4xx_hal_tim.o
 .text.HAL_TIM_IC_Init
                0x0000000000000000       0x32 build/stm32f4xx_hal_tim.o
 .text.HAL_TIM_OnePulse_Init
                0x0000000000000000       0x46 build/stm32f4xx_hal_tim.o
 .text.HAL_TIM_Encoder_Init
                0x0000000000000000       0x98 build/stm32f4xx_hal_tim.o
 .text.TIM_TI1_SetConfig
                0x0000000000000000       0xa0 build/stm32f4xx_hal_tim.o
 .text.HAL_TIM_IC_ConfigChannel
                0x0000000000000000       0xc0 build/stm32f4xx_hal_tim.o
 .text.HAL_TIM_OC_ConfigChannel
                0x0000000000000000       0x5e build/stm32f4xx_hal_tim.o
 .text.HAL_TIM_OnePulse_ConfigChannel
                0x0000000000000000       0xf2 build/stm32f4xx_hal_tim.o
 .text.HAL_TIM_OC_Start
                0x0000000000000000       0x44 build/stm32f4xx_hal_tim.o
 .text.HAL_TIM_OC_Stop
                0x0000000000000000       0x6c build/stm32f4xx_hal_tim.o
 .text.HAL_TIM_OC_Start_IT
                0x0000000000000000       0x88 build/stm32f4xx_hal_tim.o
 .text.HAL_TIM_OC_Stop_IT
                0x0000000000000000       0xb0 build/stm32f4xx_hal_tim.o
 .text.HAL_TIM_OC_Start_DMA
                0x0000000000000000      0x120 build/stm32f4xx_hal_tim.o
 .text.HAL_TIM_OC_Stop_DMA
                0x0000000000000000       0xb4 build/stm32f4xx_hal_tim.o
 .text.HAL_TIM_PWM_Stop
                0x0000000000000000       0x70 build/stm32f4xx_hal_tim.o
 .text.HAL_TIM_PWM_Start_IT
                0x0000000000000000       0x88 build/stm32f4xx_hal_tim.o
 .text.HAL_TIM_PWM_Stop_IT
                0x0000000000000000       0xb0 build/stm32f4xx_hal_tim.o
 .text.HAL_TIM_PWM_Start_DMA
                0x0000000000000000      0x120 build/stm32f4xx_hal_tim.o
 .text.HAL_TIM_PWM_Stop_DMA
                0x0000000000000000       0xb4 build/stm32f4xx_hal_tim.o
 .text.HAL_TIM_IC_Start
                0x0000000000000000       0x1a build/stm32f4xx_hal_tim.o
 .text.HAL_TIM_IC_Stop
                0x0000000000000000       0x2e build/stm32f4xx_hal_tim.o
 .text.HAL_TIM_IC_Start_IT
                0x0000000000000000       0x5e build/stm32f4xx_hal_tim.o
 .text.HAL_TIM_IC_Stop_IT
                0x0000000000000000       0x72 build/stm32f4xx_hal_tim.o
 .text.HAL_TIM_IC_Start_DMA
                0x0000000000000000       0xec build/stm32f4xx_hal_tim.o
 .text.HAL_TIM_IC_Stop_DMA
                0x0000000000000000       0x78 build/stm32f4xx_hal_tim.o
 .text.HAL_TIM_OnePulse_Start
                0x0000000000000000       0x44 build/stm32f4xx_hal_tim.o
 .text.HAL_TIM_OnePulse_Stop
                0x0000000000000000       0x78 build/stm32f4xx_hal_tim.o
 .text.HAL_TIM_OnePulse_Start_IT
                0x0000000000000000       0x58 build/stm32f4xx_hal_tim.o
 .text.HAL_TIM_OnePulse_Stop_IT
                0x0000000000000000       0x8c build/stm32f4xx_hal_tim.o
 .text.HAL_TIM_Encoder_Start
                0x0000000000000000       0x44 build/stm32f4xx_hal_tim.o
 .text.HAL_TIM_Encoder_Stop
                0x0000000000000000       0x58 build/stm32f4xx_hal_tim.o
 .text.HAL_TIM_Encoder_Start_IT
                0x0000000000000000       0x6c build/stm32f4xx_hal_tim.o
 .text.HAL_TIM_Encoder_Stop_IT
                0x0000000000000000       0x86 build/stm32f4xx_hal_tim.o
 .text.HAL_TIM_Encoder_Start_DMA
                0x0000000000000000      0x13c build/stm32f4xx_hal_tim.o
 .text.HAL_TIM_Encoder_Stop_DMA
                0x0000000000000000       0x86 build/stm32f4xx_hal_tim.o
 .text          0x0000000000000000        0x0 build/stm32f4xx_hal_gpio.o
 .data          0x0000000000000000        0x0 build/stm32f4xx_hal_gpio.o
 .bss           0x0000000000000000        0x0 build/stm32f4xx_hal_gpio.o
 .text.HAL_GPIO_DeInit
                0x0000000000000000      0x120 build/stm32f4xx_hal_gpio.o
 .text.HAL_GPIO_LockPin
                0x0000000000000000       0x2e build/stm32f4xx_hal_gpio.o
 .text.HAL_GPIO_EXTI_Callback
                0x0000000000000000        0x2 build/stm32f4xx_hal_gpio.o
 .text.HAL_GPIO_EXTI_IRQHandler
                0x0000000000000000       0x1c build/stm32f4xx_hal_gpio.o
 .text          0x0000000000000000        0x0 build/queue.o
 .data          0x0000000000000000        0x0 build/queue.o
 .bss           0x0000000000000000        0x0 build/queue.o
 .text.prvIsQueueFull
                0x0000000000000000       0x1e build/queue.o
 .text.prvIsQueueEmpty
                0x0000000000000000       0x1a build/queue.o
 .text.prvCopyDataToQueue
                0x0000000000000000       0x76 build/queue.o
 .text.prvCopyDataFromQueue
                0x0000000000000000       0x24 build/queue.o
 .text.prvUnlockQueue
                0x0000000000000000       0x6e build/queue.o
 .text.xQueueGenericReset
                0x0000000000000000       0x80 build/queue.o
 .text.prvInitialiseNewQueue
                0x0000000000000000       0x1c build/queue.o
 .text.xQueueGenericCreate
                0x0000000000000000       0x48 build/queue.o
 .text.xQueueGenericSend
                0x0000000000000000      0x188 build/queue.o
 .text.prvInitialiseMutex
                0x0000000000000000       0x18 build/queue.o
 .text.xQueueCreateMutex
                0x0000000000000000       0x16 build/queue.o
 .text.xQueueGenericSendFromISR
                0x0000000000000000       0xde build/queue.o
 .text.xQueueGiveFromISR
                0x0000000000000000       0xbc build/queue.o
 .text.xQueueGenericReceive
                0x0000000000000000      0x1b0 build/queue.o
 .text.xQueueReceiveFromISR
                0x0000000000000000       0xb6 build/queue.o
 .text.xQueuePeekFromISR
                0x0000000000000000       0x88 build/queue.o
 .text.uxQueueMessagesWaiting
                0x0000000000000000       0x26 build/queue.o
 .text.uxQueueSpacesAvailable
                0x0000000000000000       0x2a build/queue.o
 .text.uxQueueMessagesWaitingFromISR
                0x0000000000000000       0x18 build/queue.o
 .text.xQueueIsQueueEmptyFromISR
                0x0000000000000000       0x20 build/queue.o
 .text.xQueueIsQueueFullFromISR
                0x0000000000000000       0x24 build/queue.o
 .text.vQueueAddToRegistry
                0x0000000000000000       0x28 build/queue.o
 .text.pcQueueGetName
                0x0000000000000000       0x28 build/queue.o
 .text.vQueueUnregisterQueue
                0x0000000000000000       0x2c build/queue.o
 .text.vQueueDelete
                0x0000000000000000       0x24 build/queue.o
 .debug_info    0x0000000000000000     0x2146 build/queue.o
 .debug_abbrev  0x0000000000000000      0x399 build/queue.o
 .debug_loc     0x0000000000000000     0x113e build/queue.o
 .debug_aranges
                0x0000000000000000       0xe0 build/queue.o
 .debug_ranges  0x0000000000000000      0x180 build/queue.o
 .debug_line    0x0000000000000000      0x8ba build/queue.o
 .debug_str     0x0000000000000000      0xd0f build/queue.o
 .comment       0x0000000000000000       0x80 build/queue.o
 .debug_frame   0x0000000000000000      0x318 build/queue.o
 .ARM.attributes
                0x0000000000000000       0x39 build/queue.o
 COMMON         0x0000000000000000       0x40 build/queue.o
 .text          0x0000000000000000        0x0 build/freertos.o
 .data          0x0000000000000000        0x0 build/freertos.o
 .bss           0x0000000000000000        0x0 build/freertos.o
 .debug_info    0x0000000000000000       0x9c build/freertos.o
 .debug_abbrev  0x0000000000000000       0x44 build/freertos.o
 .debug_aranges
                0x0000000000000000       0x18 build/freertos.o
 .debug_line    0x0000000000000000      0x14a build/freertos.o
 .debug_str     0x0000000000000000      0x1d1 build/freertos.o
 .comment       0x0000000000000000       0x80 build/freertos.o
 .ARM.attributes
                0x0000000000000000       0x39 build/freertos.o
 .text          0x0000000000000000        0x0 build/usbd_conf.o
 .data          0x0000000000000000        0x0 build/usbd_conf.o
 .bss           0x0000000000000000        0x0 build/usbd_conf.o
 .text.HAL_PCD_MspDeInit
                0x0000000000000000       0x34 build/usbd_conf.o
 .text.USBD_LL_DeInit
                0x0000000000000000       0x1c build/usbd_conf.o
 .text.USBD_LL_Stop
                0x0000000000000000       0x1c build/usbd_conf.o
 .text.USBD_LL_FlushEP
                0x0000000000000000       0x1c build/usbd_conf.o
 .text.USBD_LL_Delay
                0x0000000000000000        0x8 build/usbd_conf.o
 .text          0x0000000000000000        0x0 build/stm32f4xx_hal_timebase_TIM.o
 .data          0x0000000000000000        0x0 build/stm32f4xx_hal_timebase_TIM.o
 .bss           0x0000000000000000        0x0 build/stm32f4xx_hal_timebase_TIM.o
 .text.HAL_SuspendTick
                0x0000000000000000       0x14 build/stm32f4xx_hal_timebase_TIM.o
 .text.HAL_ResumeTick
                0x0000000000000000       0x14 build/stm32f4xx_hal_timebase_TIM.o
 .bss.uwIncrementState
                0x0000000000000000        0x4 build/stm32f4xx_hal_timebase_TIM.o
 .text          0x0000000000000000        0x0 build/event_groups.o
 .data          0x0000000000000000        0x0 build/event_groups.o
 .bss           0x0000000000000000        0x0 build/event_groups.o
 .text.prvTestWaitCondition
                0x0000000000000000       0x1c build/event_groups.o
 .text.xEventGroupCreate
                0x0000000000000000       0x1a build/event_groups.o
 .text.xEventGroupWaitBits
                0x0000000000000000      0x118 build/event_groups.o
 .text.xEventGroupClearBits
                0x0000000000000000       0x46 build/event_groups.o
 .text.xEventGroupGetBitsFromISR
                0x0000000000000000       0x1c build/event_groups.o
 .text.xEventGroupSetBits
                0x0000000000000000       0x9e build/event_groups.o
 .text.xEventGroupSync
                0x0000000000000000       0xe0 build/event_groups.o
 .text.vEventGroupDelete
                0x0000000000000000       0x3e build/event_groups.o
 .text.vEventGroupSetBitsCallback
                0x0000000000000000        0x8 build/event_groups.o
 .text.vEventGroupClearBitsCallback
                0x0000000000000000        0x8 build/event_groups.o
 .debug_info    0x0000000000000000     0x142d build/event_groups.o
 .debug_abbrev  0x0000000000000000      0x364 build/event_groups.o
 .debug_loc     0x0000000000000000      0x812 build/event_groups.o
 .debug_aranges
                0x0000000000000000       0x68 build/event_groups.o
 .debug_ranges  0x0000000000000000       0x78 build/event_groups.o
 .debug_line    0x0000000000000000      0x551 build/event_groups.o
 .debug_str     0x0000000000000000      0xa77 build/event_groups.o
 .comment       0x0000000000000000       0x80 build/event_groups.o
 .debug_frame   0x0000000000000000      0x158 build/event_groups.o
 .ARM.attributes
                0x0000000000000000       0x39 build/event_groups.o
 .text          0x0000000000000000        0x0 build/stm32f4xx_ll_usb.o
 .data          0x0000000000000000        0x0 build/stm32f4xx_ll_usb.o
 .bss           0x0000000000000000        0x0 build/stm32f4xx_ll_usb.o
 .text.USB_ActivateDedicatedEndpoint
                0x0000000000000000       0xe8 build/stm32f4xx_ll_usb.o
 .text.USB_DeactivateDedicatedEndpoint
                0x0000000000000000       0xf0 build/stm32f4xx_ll_usb.o
 .text.USB_StopDevice
                0x0000000000000000       0x44 build/stm32f4xx_ll_usb.o
 .text.USB_ClearInterrupts
                0x0000000000000000        0x8 build/stm32f4xx_ll_usb.o
 .text.USB_HostInit
                0x0000000000000000       0xec build/stm32f4xx_ll_usb.o
 .text.USB_InitFSLSPClkSel
                0x0000000000000000       0x40 build/stm32f4xx_ll_usb.o
 .text.USB_ResetPort
                0x0000000000000000       0x34 build/stm32f4xx_ll_usb.o
 .text.USB_DriveVbus
                0x0000000000000000       0x42 build/stm32f4xx_ll_usb.o
 .text.USB_GetHostSpeed
                0x0000000000000000       0x12 build/stm32f4xx_ll_usb.o
 .text.USB_GetCurrentFrame
                0x0000000000000000        0xa build/stm32f4xx_ll_usb.o
 .text.USB_HC_Init
                0x0000000000000000       0xea build/stm32f4xx_ll_usb.o
 .text.USB_HC_StartXfer
                0x0000000000000000      0x27c build/stm32f4xx_ll_usb.o
 .text.USB_HC_ReadInterrupt
                0x0000000000000000       0x1e build/stm32f4xx_ll_usb.o
 .text.USB_HC_Halt
                0x0000000000000000      0x1d2 build/stm32f4xx_ll_usb.o
 .text.USB_DoPing
                0x0000000000000000       0x78 build/stm32f4xx_ll_usb.o
 .text.USB_StopHost
                0x0000000000000000      0x108 build/stm32f4xx_ll_usb.o
 .bss.debug.9081
                0x0000000000000000        0x4 build/stm32f4xx_ll_usb.o
 .text          0x0000000000000000        0x0 build/stm32f4xx_hal_dma_ex.o
 .data          0x0000000000000000        0x0 build/stm32f4xx_hal_dma_ex.o
 .bss           0x0000000000000000        0x0 build/stm32f4xx_hal_dma_ex.o
 .text.DMA_MultiBufferSetConfig
                0x0000000000000000       0x24 build/stm32f4xx_hal_dma_ex.o
 .text.HAL_DMAEx_MultiBufferStart
                0x0000000000000000       0x5e build/stm32f4xx_hal_dma_ex.o
 .text.HAL_DMAEx_MultiBufferStart_IT
                0x0000000000000000      0xf00 build/stm32f4xx_hal_dma_ex.o
 .text.HAL_DMAEx_ChangeMemory
                0x0000000000000000       0x10 build/stm32f4xx_hal_dma_ex.o
 .debug_info    0x0000000000000000      0xf22 build/stm32f4xx_hal_dma_ex.o
 .debug_abbrev  0x0000000000000000      0x25e build/stm32f4xx_hal_dma_ex.o
 .debug_loc     0x0000000000000000      0x453 build/stm32f4xx_hal_dma_ex.o
 .debug_aranges
                0x0000000000000000       0x38 build/stm32f4xx_hal_dma_ex.o
 .debug_ranges  0x0000000000000000       0x28 build/stm32f4xx_hal_dma_ex.o
 .debug_line    0x0000000000000000      0x99a build/stm32f4xx_hal_dma_ex.o
 .debug_str     0x0000000000000000      0x9a5 build/stm32f4xx_hal_dma_ex.o
 .comment       0x0000000000000000       0x80 build/stm32f4xx_hal_dma_ex.o
 .debug_frame   0x0000000000000000       0x80 build/stm32f4xx_hal_dma_ex.o
 .ARM.attributes
                0x0000000000000000       0x39 build/stm32f4xx_hal_dma_ex.o
 .text          0x0000000000000000        0x0 build/usbd_core.o
 .data          0x0000000000000000        0x0 build/usbd_core.o
 .bss           0x0000000000000000        0x0 build/usbd_core.o
 .text.USBD_DeInit
                0x0000000000000000       0x24 build/usbd_core.o
 .text.USBD_Stop
                0x0000000000000000       0x18 build/usbd_core.o
 .text.USBD_RunTestMode
                0x0000000000000000        0x4 build/usbd_core.o
 .text          0x0000000000000000        0x0 build/stm32f4xx_hal_rcc_ex.o
 .data          0x0000000000000000        0x0 build/stm32f4xx_hal_rcc_ex.o
 .bss           0x0000000000000000        0x0 build/stm32f4xx_hal_rcc_ex.o
 .text.HAL_RCCEx_PeriphCLKConfig
                0x0000000000000000      0x170 build/stm32f4xx_hal_rcc_ex.o
 .text.HAL_RCCEx_GetPeriphCLKConfig
                0x0000000000000000       0x4c build/stm32f4xx_hal_rcc_ex.o
 .text.HAL_RCCEx_GetPeriphCLKFreq
                0x0000000000000000       0x70 build/stm32f4xx_hal_rcc_ex.o
 .text.HAL_RCC_DeInit
                0x0000000000000000       0x54 build/stm32f4xx_hal_rcc_ex.o
 .debug_info    0x0000000000000000      0xf86 build/stm32f4xx_hal_rcc_ex.o
 .debug_abbrev  0x0000000000000000      0x2de build/stm32f4xx_hal_rcc_ex.o
 .debug_loc     0x0000000000000000      0x2cf build/stm32f4xx_hal_rcc_ex.o
 .debug_aranges
                0x0000000000000000       0x38 build/stm32f4xx_hal_rcc_ex.o
 .debug_ranges  0x0000000000000000       0x28 build/stm32f4xx_hal_rcc_ex.o
 .debug_line    0x0000000000000000      0x3fa build/stm32f4xx_hal_rcc_ex.o
 .debug_str     0x0000000000000000      0x8c3 build/stm32f4xx_hal_rcc_ex.o
 .comment       0x0000000000000000       0x80 build/stm32f4xx_hal_rcc_ex.o
 .debug_frame   0x0000000000000000       0x68 build/stm32f4xx_hal_rcc_ex.o
 .ARM.attributes
                0x0000000000000000       0x39 build/stm32f4xx_hal_rcc_ex.o
 .text          0x0000000000000000        0x0 build/stm32f4xx_hal_pwr_ex.o
 .data          0x0000000000000000        0x0 build/stm32f4xx_hal_pwr_ex.o
 .bss           0x0000000000000000        0x0 build/stm32f4xx_hal_pwr_ex.o
 .text.HAL_PWREx_EnableBkUpReg
                0x0000000000000000       0x44 build/stm32f4xx_hal_pwr_ex.o
 .text.HAL_PWREx_DisableBkUpReg
                0x0000000000000000       0x44 build/stm32f4xx_hal_pwr_ex.o
 .text.HAL_PWREx_EnableFlashPowerDown
                0x0000000000000000       0x1c build/stm32f4xx_hal_pwr_ex.o
 .text.HAL_PWREx_DisableFlashPowerDown
                0x0000000000000000       0x1c build/stm32f4xx_hal_pwr_ex.o
 .text.HAL_PWREx_GetVoltageRange
                0x0000000000000000       0x10 build/stm32f4xx_hal_pwr_ex.o
 .text.HAL_PWREx_ControlVoltageScaling
                0x0000000000000000       0x64 build/stm32f4xx_hal_pwr_ex.o
 .debug_info    0x0000000000000000      0xee4 build/stm32f4xx_hal_pwr_ex.o
 .debug_abbrev  0x0000000000000000      0x2b5 build/stm32f4xx_hal_pwr_ex.o
 .debug_loc     0x0000000000000000      0x14e build/stm32f4xx_hal_pwr_ex.o
 .debug_aranges
                0x0000000000000000       0x48 build/stm32f4xx_hal_pwr_ex.o
 .debug_ranges  0x0000000000000000       0x38 build/stm32f4xx_hal_pwr_ex.o
 .debug_line    0x0000000000000000      0x3a0 build/stm32f4xx_hal_pwr_ex.o
 .debug_str     0x0000000000000000      0x862 build/stm32f4xx_hal_pwr_ex.o
 .comment       0x0000000000000000       0x80 build/stm32f4xx_hal_pwr_ex.o
 .debug_frame   0x0000000000000000       0x98 build/stm32f4xx_hal_pwr_ex.o
 .ARM.attributes
                0x0000000000000000       0x39 build/stm32f4xx_hal_pwr_ex.o
 .text          0x0000000000000000        0x0 build/stm32f4xx_hal_i2c.o
 .data          0x0000000000000000        0x0 build/stm32f4xx_hal_i2c.o
 .bss           0x0000000000000000        0x0 build/stm32f4xx_hal_i2c.o
 .text.I2C_Master_SB
                0x0000000000000000       0x8a build/stm32f4xx_hal_i2c.o
 .text.I2C_Master_ADD10
                0x0000000000000000        0xc build/stm32f4xx_hal_i2c.o
 .text.I2C_Master_ADDR
                0x0000000000000000      0x1cc build/stm32f4xx_hal_i2c.o
 .text.I2C_SlaveTransmit_BTF
                0x0000000000000000       0x20 build/stm32f4xx_hal_i2c.o
 .text.I2C_SlaveReceive_BTF
                0x0000000000000000       0x20 build/stm32f4xx_hal_i2c.o
 .text.I2C_RequestMemoryWrite
                0x0000000000000000       0xd4 build/stm32f4xx_hal_i2c.o
 .text.I2C_RequestMemoryRead
                0x0000000000000000      0x148 build/stm32f4xx_hal_i2c.o
 .text.I2C_WaitOnSTOPFlagUntilTimeout
                0x0000000000000000       0x48 build/stm32f4xx_hal_i2c.o
 .text.HAL_I2C_MspInit
                0x0000000000000000        0x2 build/stm32f4xx_hal_i2c.o
 .text.HAL_I2C_MspDeInit
                0x0000000000000000        0x2 build/stm32f4xx_hal_i2c.o
 .text.HAL_I2C_DeInit
                0x0000000000000000       0x32 build/stm32f4xx_hal_i2c.o
 .text.HAL_I2C_Slave_Transmit
                0x0000000000000000      0x1a0 build/stm32f4xx_hal_i2c.o
 .text.HAL_I2C_Slave_Receive
                0x0000000000000000      0x180 build/stm32f4xx_hal_i2c.o
 .text.HAL_I2C_Master_Transmit_IT
                0x0000000000000000       0xcc build/stm32f4xx_hal_i2c.o
 .text.HAL_I2C_Master_Receive_IT
                0x0000000000000000       0xd4 build/stm32f4xx_hal_i2c.o
 .text.HAL_I2C_Master_Sequential_Transmit_IT
                0x0000000000000000       0xfc build/stm32f4xx_hal_i2c.o
 .text.HAL_I2C_Master_Sequential_Receive_IT
                0x0000000000000000      0x118 build/stm32f4xx_hal_i2c.o
 .text.HAL_I2C_Slave_Transmit_IT
                0x0000000000000000       0xd8 build/stm32f4xx_hal_i2c.o
 .text.HAL_I2C_Slave_Receive_IT
                0x0000000000000000       0xd8 build/stm32f4xx_hal_i2c.o
 .text.HAL_I2C_Slave_Sequential_Transmit_IT
                0x0000000000000000       0x8c build/stm32f4xx_hal_i2c.o
 .text.HAL_I2C_Slave_Sequential_Receive_IT
                0x0000000000000000       0x8c build/stm32f4xx_hal_i2c.o
 .text.HAL_I2C_EnableListen_IT
                0x0000000000000000       0x3e build/stm32f4xx_hal_i2c.o
 .text.HAL_I2C_DisableListen_IT
                0x0000000000000000       0x42 build/stm32f4xx_hal_i2c.o
 .text.HAL_I2C_Master_Transmit_DMA
                0x0000000000000000      0x13c build/stm32f4xx_hal_i2c.o
 .text.HAL_I2C_Master_Receive_DMA
                0x0000000000000000      0x13c build/stm32f4xx_hal_i2c.o
 .text.HAL_I2C_Slave_Transmit_DMA
                0x0000000000000000      0x114 build/stm32f4xx_hal_i2c.o
 .text.HAL_I2C_Slave_Receive_DMA
                0x0000000000000000      0x114 build/stm32f4xx_hal_i2c.o
 .text.HAL_I2C_Mem_Write
                0x0000000000000000      0x17c build/stm32f4xx_hal_i2c.o
 .text.HAL_I2C_Mem_Read
                0x0000000000000000      0x2f4 build/stm32f4xx_hal_i2c.o
 .text.HAL_I2C_Mem_Write_IT
                0x0000000000000000       0xd4 build/stm32f4xx_hal_i2c.o
 .text.HAL_I2C_Mem_Read_IT
                0x0000000000000000       0xe8 build/stm32f4xx_hal_i2c.o
 .text.HAL_I2C_Mem_Write_DMA
                0x0000000000000000      0x154 build/stm32f4xx_hal_i2c.o
 .text.HAL_I2C_Mem_Read_DMA
                0x0000000000000000      0x1c8 build/stm32f4xx_hal_i2c.o
 .text.HAL_I2C_IsDeviceReady
                0x0000000000000000      0x18c build/stm32f4xx_hal_i2c.o
 .text.HAL_I2C_MasterTxCpltCallback
                0x0000000000000000        0x2 build/stm32f4xx_hal_i2c.o
 .text.HAL_I2C_MasterRxCpltCallback
                0x0000000000000000        0x2 build/stm32f4xx_hal_i2c.o
 .text.HAL_I2C_SlaveTxCpltCallback
                0x0000000000000000        0x2 build/stm32f4xx_hal_i2c.o
 .text.I2C_SlaveTransmit_TXE
                0x0000000000000000       0x50 build/stm32f4xx_hal_i2c.o
 .text.HAL_I2C_SlaveRxCpltCallback
                0x0000000000000000        0x2 build/stm32f4xx_hal_i2c.o
 .text.I2C_SlaveReceive_RXNE
                0x0000000000000000       0x4c build/stm32f4xx_hal_i2c.o
 .text.HAL_I2C_AddrCallback
                0x0000000000000000        0x2 build/stm32f4xx_hal_i2c.o
 .text.I2C_Slave_ADDR
                0x0000000000000000       0x28 build/stm32f4xx_hal_i2c.o
 .text.HAL_I2C_ListenCpltCallback
                0x0000000000000000        0x2 build/stm32f4xx_hal_i2c.o
 .text.I2C_Slave_AF
                0x0000000000000000       0x94 build/stm32f4xx_hal_i2c.o
 .text.HAL_I2C_MemTxCpltCallback
                0x0000000000000000        0x2 build/stm32f4xx_hal_i2c.o
 .text.I2C_MasterTransmit_TXE
                0x0000000000000000      0x14a build/stm32f4xx_hal_i2c.o
 .text.I2C_MasterTransmit_BTF
                0x0000000000000000       0x9e build/stm32f4xx_hal_i2c.o
 .text.HAL_I2C_MemRxCpltCallback
                0x0000000000000000        0x2 build/stm32f4xx_hal_i2c.o
 .text.I2C_MasterReceive_RXNE
                0x0000000000000000       0xbe build/stm32f4xx_hal_i2c.o
 .text.I2C_MasterReceive_BTF
                0x0000000000000000       0xf4 build/stm32f4xx_hal_i2c.o
 .text.HAL_I2C_ErrorCallback
                0x0000000000000000        0x2 build/stm32f4xx_hal_i2c.o
 .text.I2C_DMAError
                0x0000000000000000       0x34 build/stm32f4xx_hal_i2c.o
 .text.I2C_DMAXferCplt
                0x0000000000000000       0x94 build/stm32f4xx_hal_i2c.o
 .text.HAL_I2C_AbortCpltCallback
                0x0000000000000000        0x2 build/stm32f4xx_hal_i2c.o
 .text.I2C_ITError
                0x0000000000000000      0x14c build/stm32f4xx_hal_i2c.o
 .text.HAL_I2C_Master_Abort_IT
                0x0000000000000000       0x58 build/stm32f4xx_hal_i2c.o
 .text.I2C_Slave_STOPF
                0x0000000000000000      0x104 build/stm32f4xx_hal_i2c.o
 .text.HAL_I2C_EV_IRQHandler
                0x0000000000000000      0x168 build/stm32f4xx_hal_i2c.o
 .text.HAL_I2C_ER_IRQHandler
                0x0000000000000000       0xd4 build/stm32f4xx_hal_i2c.o
 .text.I2C_DMAAbort
                0x0000000000000000       0x5e build/stm32f4xx_hal_i2c.o
 .text.HAL_I2C_GetState
                0x0000000000000000        0x6 build/stm32f4xx_hal_i2c.o
 .text.HAL_I2C_GetMode
                0x0000000000000000        0x6 build/stm32f4xx_hal_i2c.o
 .text.HAL_I2C_GetError
                0x0000000000000000        0x4 build/stm32f4xx_hal_i2c.o
 .text          0x0000000000000000        0x0 build/usb_device.o
 .data          0x0000000000000000        0x0 build/usb_device.o
 .bss           0x0000000000000000        0x0 build/usb_device.o
 .text          0x0000000000000000        0x0 build/usbd_cdc_if.o
 .data          0x0000000000000000        0x0 build/usbd_cdc_if.o
 .bss           0x0000000000000000        0x0 build/usbd_cdc_if.o
 .text          0x0000000000000000        0x0 build/timers.o
 .data          0x0000000000000000        0x0 build/timers.o
 .bss           0x0000000000000000        0x0 build/timers.o
 .debug_info    0x0000000000000000      0x9a4 build/timers.o
 .debug_abbrev  0x0000000000000000      0x16d build/timers.o
 .debug_aranges
                0x0000000000000000       0x18 build/timers.o
 .debug_line    0x0000000000000000      0x279 build/timers.o
 .debug_str     0x0000000000000000      0x5d9 build/timers.o
 .comment       0x0000000000000000       0x80 build/timers.o
 .ARM.attributes
                0x0000000000000000       0x39 build/timers.o
 .text          0x0000000000000000        0x0 build/stm32f4xx_hal_pwr.o
 .data          0x0000000000000000        0x0 build/stm32f4xx_hal_pwr.o
 .bss           0x0000000000000000        0x0 build/stm32f4xx_hal_pwr.o
 .text.HAL_PWR_DeInit
                0x0000000000000000       0x18 build/stm32f4xx_hal_pwr.o
 .text.HAL_PWR_EnableBkUpAccess
                0x0000000000000000       0x1c build/stm32f4xx_hal_pwr.o
 .text.HAL_PWR_DisableBkUpAccess
                0x0000000000000000       0x1c build/stm32f4xx_hal_pwr.o
 .text.HAL_PWR_ConfigPVD
                0x0000000000000000       0x84 build/stm32f4xx_hal_pwr.o
 .text.HAL_PWR_EnablePVD
                0x0000000000000000       0x1a build/stm32f4xx_hal_pwr.o
 .text.HAL_PWR_DisablePVD
                0x0000000000000000       0x1a build/stm32f4xx_hal_pwr.o
 .text.HAL_PWR_EnableWakeUpPin
                0x0000000000000000       0x10 build/stm32f4xx_hal_pwr.o
 .text.HAL_PWR_DisableWakeUpPin
                0x0000000000000000       0x10 build/stm32f4xx_hal_pwr.o
 .text.HAL_PWR_EnterSLEEPMode
                0x0000000000000000       0x20 build/stm32f4xx_hal_pwr.o
 .text.HAL_PWR_EnterSTOPMode
                0x0000000000000000       0x38 build/stm32f4xx_hal_pwr.o
 .text.HAL_PWR_EnterSTANDBYMode
                0x0000000000000000       0x20 build/stm32f4xx_hal_pwr.o
 .text.HAL_PWR_PVDCallback
                0x0000000000000000        0x2 build/stm32f4xx_hal_pwr.o
 .text.HAL_PWR_PVD_IRQHandler
                0x0000000000000000       0x20 build/stm32f4xx_hal_pwr.o
 .text.HAL_PWR_EnableSleepOnExit
                0x0000000000000000       0x10 build/stm32f4xx_hal_pwr.o
 .text.HAL_PWR_DisableSleepOnExit
                0x0000000000000000       0x10 build/stm32f4xx_hal_pwr.o
 .text.HAL_PWR_EnableSEVOnPend
                0x0000000000000000       0x10 build/stm32f4xx_hal_pwr.o
 .text.HAL_PWR_DisableSEVOnPend
                0x0000000000000000       0x10 build/stm32f4xx_hal_pwr.o
 .debug_info    0x0000000000000000     0x1289 build/stm32f4xx_hal_pwr.o
 .debug_abbrev  0x0000000000000000      0x2d3 build/stm32f4xx_hal_pwr.o
 .debug_loc     0x0000000000000000       0xd7 build/stm32f4xx_hal_pwr.o
 .debug_aranges
                0x0000000000000000       0xa0 build/stm32f4xx_hal_pwr.o
 .debug_ranges  0x0000000000000000       0x90 build/stm32f4xx_hal_pwr.o
 .debug_line    0x0000000000000000      0x469 build/stm32f4xx_hal_pwr.o
 .debug_str     0x0000000000000000      0x9a7 build/stm32f4xx_hal_pwr.o
 .comment       0x0000000000000000       0x80 build/stm32f4xx_hal_pwr.o
 .debug_frame   0x0000000000000000      0x12c build/stm32f4xx_hal_pwr.o
 .ARM.attributes
                0x0000000000000000       0x39 build/stm32f4xx_hal_pwr.o
 .text          0x0000000000000000        0x0 build/usbd_ioreq.o
 .data          0x0000000000000000        0x0 build/usbd_ioreq.o
 .bss           0x0000000000000000        0x0 build/usbd_ioreq.o
 .text.USBD_GetRxCount
                0x0000000000000000        0xa build/usbd_ioreq.o
 .text          0x0000000000000000        0x0 build/riptideFunctions.o
 .data          0x0000000000000000        0x0 build/riptideFunctions.o
 .bss           0x0000000000000000        0x0 build/riptideFunctions.o
 .text          0x0000000000000000        0x0 build/riptideMain.o
 .data          0x0000000000000000        0x0 build/riptideMain.o
 .bss           0x0000000000000000        0x0 build/riptideMain.o
 .text          0x0000000000000000        0x0 build/riptideThreads.o
 .data          0x0000000000000000        0x0 build/riptideThreads.o
 .bss           0x0000000000000000        0x0 build/riptideThreads.o
 .text          0x0000000000000000       0x14 build/startup_stm32f405xx.o
 .data          0x0000000000000000        0x0 build/startup_stm32f405xx.o
 .bss           0x0000000000000000        0x0 build/startup_stm32f405xx.o
 .text          0x0000000000000000        0x0 /Users/augustmason/Documents/gitHub/riptide_firmware/STM32/gcc-arm-none-eabi-6-2017-q2-update/bin/../lib/gcc/arm-none-eabi/6.3.1/../../../../arm-none-eabi/lib/thumb/v7e-m/fpv4-sp/hard/libc_nano.a(lib_a-atoi.o)
 .data          0x0000000000000000        0x0 /Users/augustmason/Documents/gitHub/riptide_firmware/STM32/gcc-arm-none-eabi-6-2017-q2-update/bin/../lib/gcc/arm-none-eabi/6.3.1/../../../../arm-none-eabi/lib/thumb/v7e-m/fpv4-sp/hard/libc_nano.a(lib_a-atoi.o)
 .bss           0x0000000000000000        0x0 /Users/augustmason/Documents/gitHub/riptide_firmware/STM32/gcc-arm-none-eabi-6-2017-q2-update/bin/../lib/gcc/arm-none-eabi/6.3.1/../../../../arm-none-eabi/lib/thumb/v7e-m/fpv4-sp/hard/libc_nano.a(lib_a-atoi.o)
 .text._atoi_r  0x0000000000000000        0x8 /Users/augustmason/Documents/gitHub/riptide_firmware/STM32/gcc-arm-none-eabi-6-2017-q2-update/bin/../lib/gcc/arm-none-eabi/6.3.1/../../../../arm-none-eabi/lib/thumb/v7e-m/fpv4-sp/hard/libc_nano.a(lib_a-atoi.o)
 .text          0x0000000000000000        0x0 /Users/augustmason/Documents/gitHub/riptide_firmware/STM32/gcc-arm-none-eabi-6-2017-q2-update/bin/../lib/gcc/arm-none-eabi/6.3.1/../../../../arm-none-eabi/lib/thumb/v7e-m/fpv4-sp/hard/libc_nano.a(lib_a-efgcvt.o)
 .data          0x0000000000000000        0x0 /Users/augustmason/Documents/gitHub/riptide_firmware/STM32/gcc-arm-none-eabi-6-2017-q2-update/bin/../lib/gcc/arm-none-eabi/6.3.1/../../../../arm-none-eabi/lib/thumb/v7e-m/fpv4-sp/hard/libc_nano.a(lib_a-efgcvt.o)
 .bss           0x0000000000000000        0x0 /Users/augustmason/Documents/gitHub/riptide_firmware/STM32/gcc-arm-none-eabi-6-2017-q2-update/bin/../lib/gcc/arm-none-eabi/6.3.1/../../../../arm-none-eabi/lib/thumb/v7e-m/fpv4-sp/hard/libc_nano.a(lib_a-efgcvt.o)
 .text.fcvt     0x0000000000000000        0x6 /Users/augustmason/Documents/gitHub/riptide_firmware/STM32/gcc-arm-none-eabi-6-2017-q2-update/bin/../lib/gcc/arm-none-eabi/6.3.1/../../../../arm-none-eabi/lib/thumb/v7e-m/fpv4-sp/hard/libc_nano.a(lib_a-efgcvt.o)
 .text.fcvtf    0x0000000000000000       0x22 /Users/augustmason/Documents/gitHub/riptide_firmware/STM32/gcc-arm-none-eabi-6-2017-q2-update/bin/../lib/gcc/arm-none-eabi/6.3.1/../../../../arm-none-eabi/lib/thumb/v7e-m/fpv4-sp/hard/libc_nano.a(lib_a-efgcvt.o)
 .text.ecvt     0x0000000000000000        0x6 /Users/augustmason/Documents/gitHub/riptide_firmware/STM32/gcc-arm-none-eabi-6-2017-q2-update/bin/../lib/gcc/arm-none-eabi/6.3.1/../../../../arm-none-eabi/lib/thumb/v7e-m/fpv4-sp/hard/libc_nano.a(lib_a-efgcvt.o)
 .text.ecvtf    0x0000000000000000       0x22 /Users/augustmason/Documents/gitHub/riptide_firmware/STM32/gcc-arm-none-eabi-6-2017-q2-update/bin/../lib/gcc/arm-none-eabi/6.3.1/../../../../arm-none-eabi/lib/thumb/v7e-m/fpv4-sp/hard/libc_nano.a(lib_a-efgcvt.o)
 .text.gcvtf    0x0000000000000000       0x1e /Users/augustmason/Documents/gitHub/riptide_firmware/STM32/gcc-arm-none-eabi-6-2017-q2-update/bin/../lib/gcc/arm-none-eabi/6.3.1/../../../../arm-none-eabi/lib/thumb/v7e-m/fpv4-sp/hard/libc_nano.a(lib_a-efgcvt.o)
 .text          0x0000000000000000        0x0 /Users/augustmason/Documents/gitHub/riptide_firmware/STM32/gcc-arm-none-eabi-6-2017-q2-update/bin/../lib/gcc/arm-none-eabi/6.3.1/../../../../arm-none-eabi/lib/thumb/v7e-m/fpv4-sp/hard/libc_nano.a(lib_a-exit.o)
 .data          0x0000000000000000        0x0 /Users/augustmason/Documents/gitHub/riptide_firmware/STM32/gcc-arm-none-eabi-6-2017-q2-update/bin/../lib/gcc/arm-none-eabi/6.3.1/../../../../arm-none-eabi/lib/thumb/v7e-m/fpv4-sp/hard/libc_nano.a(lib_a-exit.o)
 .bss           0x0000000000000000        0x0 /Users/augustmason/Documents/gitHub/riptide_firmware/STM32/gcc-arm-none-eabi-6-2017-q2-update/bin/../lib/gcc/arm-none-eabi/6.3.1/../../../../arm-none-eabi/lib/thumb/v7e-m/fpv4-sp/hard/libc_nano.a(lib_a-exit.o)
 .text.exit     0x0000000000000000       0x28 /Users/augustmason/Documents/gitHub/riptide_firmware/STM32/gcc-arm-none-eabi-6-2017-q2-update/bin/../lib/gcc/arm-none-eabi/6.3.1/../../../../arm-none-eabi/lib/thumb/v7e-m/fpv4-sp/hard/libc_nano.a(lib_a-exit.o)
 .debug_frame   0x0000000000000000       0x28 /Users/augustmason/Documents/gitHub/riptide_firmware/STM32/gcc-arm-none-eabi-6-2017-q2-update/bin/../lib/gcc/arm-none-eabi/6.3.1/../../../../arm-none-eabi/lib/thumb/v7e-m/fpv4-sp/hard/libc_nano.a(lib_a-exit.o)
 .ARM.attributes
                0x0000000000000000       0x34 /Users/augustmason/Documents/gitHub/riptide_firmware/STM32/gcc-arm-none-eabi-6-2017-q2-update/bin/../lib/gcc/arm-none-eabi/6.3.1/../../../../arm-none-eabi/lib/thumb/v7e-m/fpv4-sp/hard/libc_nano.a(lib_a-exit.o)
 .text          0x0000000000000000        0x0 /Users/augustmason/Documents/gitHub/riptide_firmware/STM32/gcc-arm-none-eabi-6-2017-q2-update/bin/../lib/gcc/arm-none-eabi/6.3.1/../../../../arm-none-eabi/lib/thumb/v7e-m/fpv4-sp/hard/libc_nano.a(lib_a-impure.o)
 .data          0x0000000000000000        0x0 /Users/augustmason/Documents/gitHub/riptide_firmware/STM32/gcc-arm-none-eabi-6-2017-q2-update/bin/../lib/gcc/arm-none-eabi/6.3.1/../../../../arm-none-eabi/lib/thumb/v7e-m/fpv4-sp/hard/libc_nano.a(lib_a-impure.o)
 .bss           0x0000000000000000        0x0 /Users/augustmason/Documents/gitHub/riptide_firmware/STM32/gcc-arm-none-eabi-6-2017-q2-update/bin/../lib/gcc/arm-none-eabi/6.3.1/../../../../arm-none-eabi/lib/thumb/v7e-m/fpv4-sp/hard/libc_nano.a(lib_a-impure.o)
 .rodata._global_impure_ptr
                0x0000000000000000        0x4 /Users/augustmason/Documents/gitHub/riptide_firmware/STM32/gcc-arm-none-eabi-6-2017-q2-update/bin/../lib/gcc/arm-none-eabi/6.3.1/../../../../arm-none-eabi/lib/thumb/v7e-m/fpv4-sp/hard/libc_nano.a(lib_a-impure.o)
 .text          0x0000000000000000        0x0 /Users/augustmason/Documents/gitHub/riptide_firmware/STM32/gcc-arm-none-eabi-6-2017-q2-update/bin/../lib/gcc/arm-none-eabi/6.3.1/../../../../arm-none-eabi/lib/thumb/v7e-m/fpv4-sp/hard/libc_nano.a(lib_a-init.o)
 .data          0x0000000000000000        0x0 /Users/augustmason/Documents/gitHub/riptide_firmware/STM32/gcc-arm-none-eabi-6-2017-q2-update/bin/../lib/gcc/arm-none-eabi/6.3.1/../../../../arm-none-eabi/lib/thumb/v7e-m/fpv4-sp/hard/libc_nano.a(lib_a-init.o)
 .bss           0x0000000000000000        0x0 /Users/augustmason/Documents/gitHub/riptide_firmware/STM32/gcc-arm-none-eabi-6-2017-q2-update/bin/../lib/gcc/arm-none-eabi/6.3.1/../../../../arm-none-eabi/lib/thumb/v7e-m/fpv4-sp/hard/libc_nano.a(lib_a-init.o)
 .text          0x0000000000000000        0x0 /Users/augustmason/Documents/gitHub/riptide_firmware/STM32/gcc-arm-none-eabi-6-2017-q2-update/bin/../lib/gcc/arm-none-eabi/6.3.1/../../../../arm-none-eabi/lib/thumb/v7e-m/fpv4-sp/hard/libc_nano.a(lib_a-malloc.o)
 .data          0x0000000000000000        0x0 /Users/augustmason/Documents/gitHub/riptide_firmware/STM32/gcc-arm-none-eabi-6-2017-q2-update/bin/../lib/gcc/arm-none-eabi/6.3.1/../../../../arm-none-eabi/lib/thumb/v7e-m/fpv4-sp/hard/libc_nano.a(lib_a-malloc.o)
 .bss           0x0000000000000000        0x0 /Users/augustmason/Documents/gitHub/riptide_firmware/STM32/gcc-arm-none-eabi-6-2017-q2-update/bin/../lib/gcc/arm-none-eabi/6.3.1/../../../../arm-none-eabi/lib/thumb/v7e-m/fpv4-sp/hard/libc_nano.a(lib_a-malloc.o)
 .text          0x0000000000000000        0x0 /Users/augustmason/Documents/gitHub/riptide_firmware/STM32/gcc-arm-none-eabi-6-2017-q2-update/bin/../lib/gcc/arm-none-eabi/6.3.1/../../../../arm-none-eabi/lib/thumb/v7e-m/fpv4-sp/hard/libc_nano.a(lib_a-memcpy-stub.o)
 .data          0x0000000000000000        0x0 /Users/augustmason/Documents/gitHub/riptide_firmware/STM32/gcc-arm-none-eabi-6-2017-q2-update/bin/../lib/gcc/arm-none-eabi/6.3.1/../../../../arm-none-eabi/lib/thumb/v7e-m/fpv4-sp/hard/libc_nano.a(lib_a-memcpy-stub.o)
 .bss           0x0000000000000000        0x0 /Users/augustmason/Documents/gitHub/riptide_firmware/STM32/gcc-arm-none-eabi-6-2017-q2-update/bin/../lib/gcc/arm-none-eabi/6.3.1/../../../../arm-none-eabi/lib/thumb/v7e-m/fpv4-sp/hard/libc_nano.a(lib_a-memcpy-stub.o)
 .text          0x0000000000000000        0x0 /Users/augustmason/Documents/gitHub/riptide_firmware/STM32/gcc-arm-none-eabi-6-2017-q2-update/bin/../lib/gcc/arm-none-eabi/6.3.1/../../../../arm-none-eabi/lib/thumb/v7e-m/fpv4-sp/hard/libc_nano.a(lib_a-memset.o)
 .data          0x0000000000000000        0x0 /Users/augustmason/Documents/gitHub/riptide_firmware/STM32/gcc-arm-none-eabi-6-2017-q2-update/bin/../lib/gcc/arm-none-eabi/6.3.1/../../../../arm-none-eabi/lib/thumb/v7e-m/fpv4-sp/hard/libc_nano.a(lib_a-memset.o)
 .bss           0x0000000000000000        0x0 /Users/augustmason/Documents/gitHub/riptide_firmware/STM32/gcc-arm-none-eabi-6-2017-q2-update/bin/../lib/gcc/arm-none-eabi/6.3.1/../../../../arm-none-eabi/lib/thumb/v7e-m/fpv4-sp/hard/libc_nano.a(lib_a-memset.o)
 .text          0x0000000000000000        0x0 /Users/augustmason/Documents/gitHub/riptide_firmware/STM32/gcc-arm-none-eabi-6-2017-q2-update/bin/../lib/gcc/arm-none-eabi/6.3.1/../../../../arm-none-eabi/lib/thumb/v7e-m/fpv4-sp/hard/libc_nano.a(lib_a-nano-freer.o)
 .data          0x0000000000000000        0x0 /Users/augustmason/Documents/gitHub/riptide_firmware/STM32/gcc-arm-none-eabi-6-2017-q2-update/bin/../lib/gcc/arm-none-eabi/6.3.1/../../../../arm-none-eabi/lib/thumb/v7e-m/fpv4-sp/hard/libc_nano.a(lib_a-nano-freer.o)
 .bss           0x0000000000000000        0x0 /Users/augustmason/Documents/gitHub/riptide_firmware/STM32/gcc-arm-none-eabi-6-2017-q2-update/bin/../lib/gcc/arm-none-eabi/6.3.1/../../../../arm-none-eabi/lib/thumb/v7e-m/fpv4-sp/hard/libc_nano.a(lib_a-nano-freer.o)
 .text          0x0000000000000000        0x0 /Users/augustmason/Documents/gitHub/riptide_firmware/STM32/gcc-arm-none-eabi-6-2017-q2-update/bin/../lib/gcc/arm-none-eabi/6.3.1/../../../../arm-none-eabi/lib/thumb/v7e-m/fpv4-sp/hard/libc_nano.a(lib_a-nano-mallocr.o)
 .data          0x0000000000000000        0x0 /Users/augustmason/Documents/gitHub/riptide_firmware/STM32/gcc-arm-none-eabi-6-2017-q2-update/bin/../lib/gcc/arm-none-eabi/6.3.1/../../../../arm-none-eabi/lib/thumb/v7e-m/fpv4-sp/hard/libc_nano.a(lib_a-nano-mallocr.o)
 .bss           0x0000000000000000        0x0 /Users/augustmason/Documents/gitHub/riptide_firmware/STM32/gcc-arm-none-eabi-6-2017-q2-update/bin/../lib/gcc/arm-none-eabi/6.3.1/../../../../arm-none-eabi/lib/thumb/v7e-m/fpv4-sp/hard/libc_nano.a(lib_a-nano-mallocr.o)
 .text          0x0000000000000000        0x0 /Users/augustmason/Documents/gitHub/riptide_firmware/STM32/gcc-arm-none-eabi-6-2017-q2-update/bin/../lib/gcc/arm-none-eabi/6.3.1/../../../../arm-none-eabi/lib/thumb/v7e-m/fpv4-sp/hard/libc_nano.a(lib_a-sbrkr.o)
 .data          0x0000000000000000        0x0 /Users/augustmason/Documents/gitHub/riptide_firmware/STM32/gcc-arm-none-eabi-6-2017-q2-update/bin/../lib/gcc/arm-none-eabi/6.3.1/../../../../arm-none-eabi/lib/thumb/v7e-m/fpv4-sp/hard/libc_nano.a(lib_a-sbrkr.o)
 .bss           0x0000000000000000        0x0 /Users/augustmason/Documents/gitHub/riptide_firmware/STM32/gcc-arm-none-eabi-6-2017-q2-update/bin/../lib/gcc/arm-none-eabi/6.3.1/../../../../arm-none-eabi/lib/thumb/v7e-m/fpv4-sp/hard/libc_nano.a(lib_a-sbrkr.o)
 .data          0x0000000000000000        0x0 /Users/augustmason/Documents/gitHub/riptide_firmware/STM32/gcc-arm-none-eabi-6-2017-q2-update/bin/../lib/gcc/arm-none-eabi/6.3.1/../../../../arm-none-eabi/lib/thumb/v7e-m/fpv4-sp/hard/libc_nano.a(lib_a-strlen.o)
 .bss           0x0000000000000000        0x0 /Users/augustmason/Documents/gitHub/riptide_firmware/STM32/gcc-arm-none-eabi-6-2017-q2-update/bin/../lib/gcc/arm-none-eabi/6.3.1/../../../../arm-none-eabi/lib/thumb/v7e-m/fpv4-sp/hard/libc_nano.a(lib_a-strlen.o)
 .text          0x0000000000000000        0x0 /Users/augustmason/Documents/gitHub/riptide_firmware/STM32/gcc-arm-none-eabi-6-2017-q2-update/bin/../lib/gcc/arm-none-eabi/6.3.1/../../../../arm-none-eabi/lib/thumb/v7e-m/fpv4-sp/hard/libc_nano.a(lib_a-strtol.o)
 .data          0x0000000000000000        0x0 /Users/augustmason/Documents/gitHub/riptide_firmware/STM32/gcc-arm-none-eabi-6-2017-q2-update/bin/../lib/gcc/arm-none-eabi/6.3.1/../../../../arm-none-eabi/lib/thumb/v7e-m/fpv4-sp/hard/libc_nano.a(lib_a-strtol.o)
 .bss           0x0000000000000000        0x0 /Users/augustmason/Documents/gitHub/riptide_firmware/STM32/gcc-arm-none-eabi-6-2017-q2-update/bin/../lib/gcc/arm-none-eabi/6.3.1/../../../../arm-none-eabi/lib/thumb/v7e-m/fpv4-sp/hard/libc_nano.a(lib_a-strtol.o)
 .text._strtol_r
                0x0000000000000000       0x24 /Users/augustmason/Documents/gitHub/riptide_firmware/STM32/gcc-arm-none-eabi-6-2017-q2-update/bin/../lib/gcc/arm-none-eabi/6.3.1/../../../../arm-none-eabi/lib/thumb/v7e-m/fpv4-sp/hard/libc_nano.a(lib_a-strtol.o)
 .text.strtol_l
                0x0000000000000000       0x1c /Users/augustmason/Documents/gitHub/riptide_firmware/STM32/gcc-arm-none-eabi-6-2017-q2-update/bin/../lib/gcc/arm-none-eabi/6.3.1/../../../../arm-none-eabi/lib/thumb/v7e-m/fpv4-sp/hard/libc_nano.a(lib_a-strtol.o)
 .text          0x0000000000000000        0x0 /Users/augustmason/Documents/gitHub/riptide_firmware/STM32/gcc-arm-none-eabi-6-2017-q2-update/bin/../lib/gcc/arm-none-eabi/6.3.1/../../../../arm-none-eabi/lib/thumb/v7e-m/fpv4-sp/hard/libc_nano.a(lib_a-ecvtbuf.o)
 .data          0x0000000000000000        0x0 /Users/augustmason/Documents/gitHub/riptide_firmware/STM32/gcc-arm-none-eabi-6-2017-q2-update/bin/../lib/gcc/arm-none-eabi/6.3.1/../../../../arm-none-eabi/lib/thumb/v7e-m/fpv4-sp/hard/libc_nano.a(lib_a-ecvtbuf.o)
 .bss           0x0000000000000000        0x0 /Users/augustmason/Documents/gitHub/riptide_firmware/STM32/gcc-arm-none-eabi-6-2017-q2-update/bin/../lib/gcc/arm-none-eabi/6.3.1/../../../../arm-none-eabi/lib/thumb/v7e-m/fpv4-sp/hard/libc_nano.a(lib_a-ecvtbuf.o)
 .text.fcvtbuf  0x0000000000000000       0xd0 /Users/augustmason/Documents/gitHub/riptide_firmware/STM32/gcc-arm-none-eabi-6-2017-q2-update/bin/../lib/gcc/arm-none-eabi/6.3.1/../../../../arm-none-eabi/lib/thumb/v7e-m/fpv4-sp/hard/libc_nano.a(lib_a-ecvtbuf.o)
 .text.ecvtbuf  0x0000000000000000       0x98 /Users/augustmason/Documents/gitHub/riptide_firmware/STM32/gcc-arm-none-eabi-6-2017-q2-update/bin/../lib/gcc/arm-none-eabi/6.3.1/../../../../arm-none-eabi/lib/thumb/v7e-m/fpv4-sp/hard/libc_nano.a(lib_a-ecvtbuf.o)
 .text._dcvt    0x0000000000000000      0x14a /Users/augustmason/Documents/gitHub/riptide_firmware/STM32/gcc-arm-none-eabi-6-2017-q2-update/bin/../lib/gcc/arm-none-eabi/6.3.1/../../../../arm-none-eabi/lib/thumb/v7e-m/fpv4-sp/hard/libc_nano.a(lib_a-ecvtbuf.o)
 .text          0x0000000000000000        0x0 /Users/augustmason/Documents/gitHub/riptide_firmware/STM32/gcc-arm-none-eabi-6-2017-q2-update/bin/../lib/gcc/arm-none-eabi/6.3.1/../../../../arm-none-eabi/lib/thumb/v7e-m/fpv4-sp/hard/libc_nano.a(lib_a-locale.o)
 .data          0x0000000000000000        0x0 /Users/augustmason/Documents/gitHub/riptide_firmware/STM32/gcc-arm-none-eabi-6-2017-q2-update/bin/../lib/gcc/arm-none-eabi/6.3.1/../../../../arm-none-eabi/lib/thumb/v7e-m/fpv4-sp/hard/libc_nano.a(lib_a-locale.o)
 .bss           0x0000000000000000        0x0 /Users/augustmason/Documents/gitHub/riptide_firmware/STM32/gcc-arm-none-eabi-6-2017-q2-update/bin/../lib/gcc/arm-none-eabi/6.3.1/../../../../arm-none-eabi/lib/thumb/v7e-m/fpv4-sp/hard/libc_nano.a(lib_a-locale.o)
 .text._setlocale_r
                0x0000000000000000       0x38 /Users/augustmason/Documents/gitHub/riptide_firmware/STM32/gcc-arm-none-eabi-6-2017-q2-update/bin/../lib/gcc/arm-none-eabi/6.3.1/../../../../arm-none-eabi/lib/thumb/v7e-m/fpv4-sp/hard/libc_nano.a(lib_a-locale.o)
 .text.__locale_mb_cur_max
                0x0000000000000000       0x1c /Users/augustmason/Documents/gitHub/riptide_firmware/STM32/gcc-arm-none-eabi-6-2017-q2-update/bin/../lib/gcc/arm-none-eabi/6.3.1/../../../../arm-none-eabi/lib/thumb/v7e-m/fpv4-sp/hard/libc_nano.a(lib_a-locale.o)
 .text.__locale_ctype_ptr
                0x0000000000000000       0x1c /Users/augustmason/Documents/gitHub/riptide_firmware/STM32/gcc-arm-none-eabi-6-2017-q2-update/bin/../lib/gcc/arm-none-eabi/6.3.1/../../../../arm-none-eabi/lib/thumb/v7e-m/fpv4-sp/hard/libc_nano.a(lib_a-locale.o)
 .text.setlocale
                0x0000000000000000       0x10 /Users/augustmason/Documents/gitHub/riptide_firmware/STM32/gcc-arm-none-eabi-6-2017-q2-update/bin/../lib/gcc/arm-none-eabi/6.3.1/../../../../arm-none-eabi/lib/thumb/v7e-m/fpv4-sp/hard/libc_nano.a(lib_a-locale.o)
 .bss._PathLocale
                0x0000000000000000        0x4 /Users/augustmason/Documents/gitHub/riptide_firmware/STM32/gcc-arm-none-eabi-6-2017-q2-update/bin/../lib/gcc/arm-none-eabi/6.3.1/../../../../arm-none-eabi/lib/thumb/v7e-m/fpv4-sp/hard/libc_nano.a(lib_a-locale.o)
 .text          0x0000000000000000        0x0 /Users/augustmason/Documents/gitHub/riptide_firmware/STM32/gcc-arm-none-eabi-6-2017-q2-update/bin/../lib/gcc/arm-none-eabi/6.3.1/../../../../arm-none-eabi/lib/thumb/v7e-m/fpv4-sp/hard/libc_nano.a(lib_a-mbtowc_r.o)
 .data          0x0000000000000000        0x0 /Users/augustmason/Documents/gitHub/riptide_firmware/STM32/gcc-arm-none-eabi-6-2017-q2-update/bin/../lib/gcc/arm-none-eabi/6.3.1/../../../../arm-none-eabi/lib/thumb/v7e-m/fpv4-sp/hard/libc_nano.a(lib_a-mbtowc_r.o)
 .bss           0x0000000000000000        0x0 /Users/augustmason/Documents/gitHub/riptide_firmware/STM32/gcc-arm-none-eabi-6-2017-q2-update/bin/../lib/gcc/arm-none-eabi/6.3.1/../../../../arm-none-eabi/lib/thumb/v7e-m/fpv4-sp/hard/libc_nano.a(lib_a-mbtowc_r.o)
 .text._mbtowc_r
                0x0000000000000000       0x24 /Users/augustmason/Documents/gitHub/riptide_firmware/STM32/gcc-arm-none-eabi-6-2017-q2-update/bin/../lib/gcc/arm-none-eabi/6.3.1/../../../../arm-none-eabi/lib/thumb/v7e-m/fpv4-sp/hard/libc_nano.a(lib_a-mbtowc_r.o)
 .text          0x0000000000000000        0x0 /Users/augustmason/Documents/gitHub/riptide_firmware/STM32/gcc-arm-none-eabi-6-2017-q2-update/bin/../lib/gcc/arm-none-eabi/6.3.1/../../../../arm-none-eabi/lib/thumb/v7e-m/fpv4-sp/hard/libc_nano.a(lib_a-mlock.o)
 .data          0x0000000000000000        0x0 /Users/augustmason/Documents/gitHub/riptide_firmware/STM32/gcc-arm-none-eabi-6-2017-q2-update/bin/../lib/gcc/arm-none-eabi/6.3.1/../../../../arm-none-eabi/lib/thumb/v7e-m/fpv4-sp/hard/libc_nano.a(lib_a-mlock.o)
 .bss           0x0000000000000000        0x0 /Users/augustmason/Documents/gitHub/riptide_firmware/STM32/gcc-arm-none-eabi-6-2017-q2-update/bin/../lib/gcc/arm-none-eabi/6.3.1/../../../../arm-none-eabi/lib/thumb/v7e-m/fpv4-sp/hard/libc_nano.a(lib_a-mlock.o)
 .text          0x0000000000000000        0x0 /Users/augustmason/Documents/gitHub/riptide_firmware/STM32/gcc-arm-none-eabi-6-2017-q2-update/bin/../lib/gcc/arm-none-eabi/6.3.1/../../../../arm-none-eabi/lib/thumb/v7e-m/fpv4-sp/hard/libc_nano.a(lib_a-mprec.o)
 .data          0x0000000000000000        0x0 /Users/augustmason/Documents/gitHub/riptide_firmware/STM32/gcc-arm-none-eabi-6-2017-q2-update/bin/../lib/gcc/arm-none-eabi/6.3.1/../../../../arm-none-eabi/lib/thumb/v7e-m/fpv4-sp/hard/libc_nano.a(lib_a-mprec.o)
 .bss           0x0000000000000000        0x0 /Users/augustmason/Documents/gitHub/riptide_firmware/STM32/gcc-arm-none-eabi-6-2017-q2-update/bin/../lib/gcc/arm-none-eabi/6.3.1/../../../../arm-none-eabi/lib/thumb/v7e-m/fpv4-sp/hard/libc_nano.a(lib_a-mprec.o)
 .text.__s2b    0x0000000000000000       0x7c /Users/augustmason/Documents/gitHub/riptide_firmware/STM32/gcc-arm-none-eabi-6-2017-q2-update/bin/../lib/gcc/arm-none-eabi/6.3.1/../../../../arm-none-eabi/lib/thumb/v7e-m/fpv4-sp/hard/libc_nano.a(lib_a-mprec.o)
 .text.__ulp    0x0000000000000000       0x50 /Users/augustmason/Documents/gitHub/riptide_firmware/STM32/gcc-arm-none-eabi-6-2017-q2-update/bin/../lib/gcc/arm-none-eabi/6.3.1/../../../../arm-none-eabi/lib/thumb/v7e-m/fpv4-sp/hard/libc_nano.a(lib_a-mprec.o)
 .text.__b2d    0x0000000000000000       0x9c /Users/augustmason/Documents/gitHub/riptide_firmware/STM32/gcc-arm-none-eabi-6-2017-q2-update/bin/../lib/gcc/arm-none-eabi/6.3.1/../../../../arm-none-eabi/lib/thumb/v7e-m/fpv4-sp/hard/libc_nano.a(lib_a-mprec.o)
 .text.__ratio  0x0000000000000000       0x58 /Users/augustmason/Documents/gitHub/riptide_firmware/STM32/gcc-arm-none-eabi-6-2017-q2-update/bin/../lib/gcc/arm-none-eabi/6.3.1/../../../../arm-none-eabi/lib/thumb/v7e-m/fpv4-sp/hard/libc_nano.a(lib_a-mprec.o)
 .text.__copybits
                0x0000000000000000       0x34 /Users/augustmason/Documents/gitHub/riptide_firmware/STM32/gcc-arm-none-eabi-6-2017-q2-update/bin/../lib/gcc/arm-none-eabi/6.3.1/../../../../arm-none-eabi/lib/thumb/v7e-m/fpv4-sp/hard/libc_nano.a(lib_a-mprec.o)
 .text.__any_on
                0x0000000000000000       0x42 /Users/augustmason/Documents/gitHub/riptide_firmware/STM32/gcc-arm-none-eabi-6-2017-q2-update/bin/../lib/gcc/arm-none-eabi/6.3.1/../../../../arm-none-eabi/lib/thumb/v7e-m/fpv4-sp/hard/libc_nano.a(lib_a-mprec.o)
 .rodata.__mprec_tinytens
                0x0000000000000000       0x28 /Users/augustmason/Documents/gitHub/riptide_firmware/STM32/gcc-arm-none-eabi-6-2017-q2-update/bin/../lib/gcc/arm-none-eabi/6.3.1/../../../../arm-none-eabi/lib/thumb/v7e-m/fpv4-sp/hard/libc_nano.a(lib_a-mprec.o)
 .text          0x0000000000000000        0x0 /Users/augustmason/Documents/gitHub/riptide_firmware/STM32/gcc-arm-none-eabi-6-2017-q2-update/bin/../lib/gcc/arm-none-eabi/6.3.1/../../../../arm-none-eabi/lib/thumb/v7e-m/fpv4-sp/hard/libc_nano.a(lib_a-nano-callocr.o)
 .data          0x0000000000000000        0x0 /Users/augustmason/Documents/gitHub/riptide_firmware/STM32/gcc-arm-none-eabi-6-2017-q2-update/bin/../lib/gcc/arm-none-eabi/6.3.1/../../../../arm-none-eabi/lib/thumb/v7e-m/fpv4-sp/hard/libc_nano.a(lib_a-nano-callocr.o)
 .bss           0x0000000000000000        0x0 /Users/augustmason/Documents/gitHub/riptide_firmware/STM32/gcc-arm-none-eabi-6-2017-q2-update/bin/../lib/gcc/arm-none-eabi/6.3.1/../../../../arm-none-eabi/lib/thumb/v7e-m/fpv4-sp/hard/libc_nano.a(lib_a-nano-callocr.o)
 .text          0x0000000000000000        0x0 /Users/augustmason/Documents/gitHub/riptide_firmware/STM32/gcc-arm-none-eabi-6-2017-q2-update/bin/../lib/gcc/arm-none-eabi/6.3.1/../../../../arm-none-eabi/lib/thumb/v7e-m/fpv4-sp/hard/libc_nano.a(lib_a-nano-reallocr.o)
 .data          0x0000000000000000        0x0 /Users/augustmason/Documents/gitHub/riptide_firmware/STM32/gcc-arm-none-eabi-6-2017-q2-update/bin/../lib/gcc/arm-none-eabi/6.3.1/../../../../arm-none-eabi/lib/thumb/v7e-m/fpv4-sp/hard/libc_nano.a(lib_a-nano-reallocr.o)
 .bss           0x0000000000000000        0x0 /Users/augustmason/Documents/gitHub/riptide_firmware/STM32/gcc-arm-none-eabi-6-2017-q2-update/bin/../lib/gcc/arm-none-eabi/6.3.1/../../../../arm-none-eabi/lib/thumb/v7e-m/fpv4-sp/hard/libc_nano.a(lib_a-nano-reallocr.o)
 .text._realloc_r
                0x0000000000000000       0x4c /Users/augustmason/Documents/gitHub/riptide_firmware/STM32/gcc-arm-none-eabi-6-2017-q2-update/bin/../lib/gcc/arm-none-eabi/6.3.1/../../../../arm-none-eabi/lib/thumb/v7e-m/fpv4-sp/hard/libc_nano.a(lib_a-nano-reallocr.o)
 .debug_frame   0x0000000000000000       0x3c /Users/augustmason/Documents/gitHub/riptide_firmware/STM32/gcc-arm-none-eabi-6-2017-q2-update/bin/../lib/gcc/arm-none-eabi/6.3.1/../../../../arm-none-eabi/lib/thumb/v7e-m/fpv4-sp/hard/libc_nano.a(lib_a-nano-reallocr.o)
 .ARM.attributes
                0x0000000000000000       0x34 /Users/augustmason/Documents/gitHub/riptide_firmware/STM32/gcc-arm-none-eabi-6-2017-q2-update/bin/../lib/gcc/arm-none-eabi/6.3.1/../../../../arm-none-eabi/lib/thumb/v7e-m/fpv4-sp/hard/libc_nano.a(lib_a-nano-reallocr.o)
 .text          0x0000000000000000        0x0 /Users/augustmason/Documents/gitHub/riptide_firmware/STM32/gcc-arm-none-eabi-6-2017-q2-update/bin/../lib/gcc/arm-none-eabi/6.3.1/../../../../arm-none-eabi/lib/thumb/v7e-m/fpv4-sp/hard/libc_nano.a(lib_a-reent.o)
 .data          0x0000000000000000        0x0 /Users/augustmason/Documents/gitHub/riptide_firmware/STM32/gcc-arm-none-eabi-6-2017-q2-update/bin/../lib/gcc/arm-none-eabi/6.3.1/../../../../arm-none-eabi/lib/thumb/v7e-m/fpv4-sp/hard/libc_nano.a(lib_a-reent.o)
 .bss           0x0000000000000000        0x0 /Users/augustmason/Documents/gitHub/riptide_firmware/STM32/gcc-arm-none-eabi-6-2017-q2-update/bin/../lib/gcc/arm-none-eabi/6.3.1/../../../../arm-none-eabi/lib/thumb/v7e-m/fpv4-sp/hard/libc_nano.a(lib_a-reent.o)
 .text.cleanup_glue
                0x0000000000000000       0x1a /Users/augustmason/Documents/gitHub/riptide_firmware/STM32/gcc-arm-none-eabi-6-2017-q2-update/bin/../lib/gcc/arm-none-eabi/6.3.1/../../../../arm-none-eabi/lib/thumb/v7e-m/fpv4-sp/hard/libc_nano.a(lib_a-reent.o)
 .text._reclaim_reent
                0x0000000000000000       0xb8 /Users/augustmason/Documents/gitHub/riptide_firmware/STM32/gcc-arm-none-eabi-6-2017-q2-update/bin/../lib/gcc/arm-none-eabi/6.3.1/../../../../arm-none-eabi/lib/thumb/v7e-m/fpv4-sp/hard/libc_nano.a(lib_a-reent.o)
 .text          0x0000000000000000       0x14 /Users/augustmason/Documents/gitHub/riptide_firmware/STM32/gcc-arm-none-eabi-6-2017-q2-update/bin/../lib/gcc/arm-none-eabi/6.3.1/../../../../arm-none-eabi/lib/thumb/v7e-m/fpv4-sp/hard/libc_nano.a(lib_a-strcmp.o)
 .data          0x0000000000000000        0x0 /Users/augustmason/Documents/gitHub/riptide_firmware/STM32/gcc-arm-none-eabi-6-2017-q2-update/bin/../lib/gcc/arm-none-eabi/6.3.1/../../../../arm-none-eabi/lib/thumb/v7e-m/fpv4-sp/hard/libc_nano.a(lib_a-strcmp.o)
 .bss           0x0000000000000000        0x0 /Users/augustmason/Documents/gitHub/riptide_firmware/STM32/gcc-arm-none-eabi-6-2017-q2-update/bin/../lib/gcc/arm-none-eabi/6.3.1/../../../../arm-none-eabi/lib/thumb/v7e-m/fpv4-sp/hard/libc_nano.a(lib_a-strcmp.o)
 .debug_frame   0x0000000000000000       0x20 /Users/augustmason/Documents/gitHub/riptide_firmware/STM32/gcc-arm-none-eabi-6-2017-q2-update/bin/../lib/gcc/arm-none-eabi/6.3.1/../../../../arm-none-eabi/lib/thumb/v7e-m/fpv4-sp/hard/libc_nano.a(lib_a-strcmp.o)
 .ARM.attributes
                0x0000000000000000       0x20 /Users/augustmason/Documents/gitHub/riptide_firmware/STM32/gcc-arm-none-eabi-6-2017-q2-update/bin/../lib/gcc/arm-none-eabi/6.3.1/../../../../arm-none-eabi/lib/thumb/v7e-m/fpv4-sp/hard/libc_nano.a(lib_a-strcmp.o)
 .text          0x0000000000000000        0x0 /Users/augustmason/Documents/gitHub/riptide_firmware/STM32/gcc-arm-none-eabi-6-2017-q2-update/bin/../lib/gcc/arm-none-eabi/6.3.1/../../../../arm-none-eabi/lib/thumb/v7e-m/fpv4-sp/hard/libc_nano.a(lib_a-strcpy.o)
 .data          0x0000000000000000        0x0 /Users/augustmason/Documents/gitHub/riptide_firmware/STM32/gcc-arm-none-eabi-6-2017-q2-update/bin/../lib/gcc/arm-none-eabi/6.3.1/../../../../arm-none-eabi/lib/thumb/v7e-m/fpv4-sp/hard/libc_nano.a(lib_a-strcpy.o)
 .bss           0x0000000000000000        0x0 /Users/augustmason/Documents/gitHub/riptide_firmware/STM32/gcc-arm-none-eabi-6-2017-q2-update/bin/../lib/gcc/arm-none-eabi/6.3.1/../../../../arm-none-eabi/lib/thumb/v7e-m/fpv4-sp/hard/libc_nano.a(lib_a-strcpy.o)
 .text          0x0000000000000000        0x0 /Users/augustmason/Documents/gitHub/riptide_firmware/STM32/gcc-arm-none-eabi-6-2017-q2-update/bin/../lib/gcc/arm-none-eabi/6.3.1/../../../../arm-none-eabi/lib/thumb/v7e-m/fpv4-sp/hard/libc_nano.a(lib_a-wctomb_r.o)
 .data          0x0000000000000000        0x0 /Users/augustmason/Documents/gitHub/riptide_firmware/STM32/gcc-arm-none-eabi-6-2017-q2-update/bin/../lib/gcc/arm-none-eabi/6.3.1/../../../../arm-none-eabi/lib/thumb/v7e-m/fpv4-sp/hard/libc_nano.a(lib_a-wctomb_r.o)
 .bss           0x0000000000000000        0x0 /Users/augustmason/Documents/gitHub/riptide_firmware/STM32/gcc-arm-none-eabi-6-2017-q2-update/bin/../lib/gcc/arm-none-eabi/6.3.1/../../../../arm-none-eabi/lib/thumb/v7e-m/fpv4-sp/hard/libc_nano.a(lib_a-wctomb_r.o)
 .text._wctomb_r
                0x0000000000000000       0x24 /Users/augustmason/Documents/gitHub/riptide_firmware/STM32/gcc-arm-none-eabi-6-2017-q2-update/bin/../lib/gcc/arm-none-eabi/6.3.1/../../../../arm-none-eabi/lib/thumb/v7e-m/fpv4-sp/hard/libc_nano.a(lib_a-wctomb_r.o)
 .text          0x0000000000000000        0x0 /Users/augustmason/Documents/gitHub/riptide_firmware/STM32/gcc-arm-none-eabi-6-2017-q2-update/bin/../lib/gcc/arm-none-eabi/6.3.1/../../../../arm-none-eabi/lib/thumb/v7e-m/fpv4-sp/hard/libc_nano.a(lib_a-ctype_.o)
 .data          0x0000000000000000        0x0 /Users/augustmason/Documents/gitHub/riptide_firmware/STM32/gcc-arm-none-eabi-6-2017-q2-update/bin/../lib/gcc/arm-none-eabi/6.3.1/../../../../arm-none-eabi/lib/thumb/v7e-m/fpv4-sp/hard/libc_nano.a(lib_a-ctype_.o)
 .bss           0x0000000000000000        0x0 /Users/augustmason/Documents/gitHub/riptide_firmware/STM32/gcc-arm-none-eabi-6-2017-q2-update/bin/../lib/gcc/arm-none-eabi/6.3.1/../../../../arm-none-eabi/lib/thumb/v7e-m/fpv4-sp/hard/libc_nano.a(lib_a-ctype_.o)
 .text          0x0000000000000000        0x0 /Users/augustmason/Documents/gitHub/riptide_firmware/STM32/gcc-arm-none-eabi-6-2017-q2-update/bin/../lib/gcc/arm-none-eabi/6.3.1/../../../../arm-none-eabi/lib/thumb/v7e-m/fpv4-sp/hard/libc_nano.a(lib_a-dtoa.o)
 .data          0x0000000000000000        0x0 /Users/augustmason/Documents/gitHub/riptide_firmware/STM32/gcc-arm-none-eabi-6-2017-q2-update/bin/../lib/gcc/arm-none-eabi/6.3.1/../../../../arm-none-eabi/lib/thumb/v7e-m/fpv4-sp/hard/libc_nano.a(lib_a-dtoa.o)
 .bss           0x0000000000000000        0x0 /Users/augustmason/Documents/gitHub/riptide_firmware/STM32/gcc-arm-none-eabi-6-2017-q2-update/bin/../lib/gcc/arm-none-eabi/6.3.1/../../../../arm-none-eabi/lib/thumb/v7e-m/fpv4-sp/hard/libc_nano.a(lib_a-dtoa.o)
 .text          0x0000000000000000        0x0 /Users/augustmason/Documents/gitHub/riptide_firmware/STM32/gcc-arm-none-eabi-6-2017-q2-update/bin/../lib/gcc/arm-none-eabi/6.3.1/../../../../arm-none-eabi/lib/thumb/v7e-m/fpv4-sp/hard/libc_nano.a(lib_a-nano-msizer.o)
 .data          0x0000000000000000        0x0 /Users/augustmason/Documents/gitHub/riptide_firmware/STM32/gcc-arm-none-eabi-6-2017-q2-update/bin/../lib/gcc/arm-none-eabi/6.3.1/../../../../arm-none-eabi/lib/thumb/v7e-m/fpv4-sp/hard/libc_nano.a(lib_a-nano-msizer.o)
 .bss           0x0000000000000000        0x0 /Users/augustmason/Documents/gitHub/riptide_firmware/STM32/gcc-arm-none-eabi-6-2017-q2-update/bin/../lib/gcc/arm-none-eabi/6.3.1/../../../../arm-none-eabi/lib/thumb/v7e-m/fpv4-sp/hard/libc_nano.a(lib_a-nano-msizer.o)
 .text._malloc_usable_size_r
                0x0000000000000000       0x12 /Users/augustmason/Documents/gitHub/riptide_firmware/STM32/gcc-arm-none-eabi-6-2017-q2-update/bin/../lib/gcc/arm-none-eabi/6.3.1/../../../../arm-none-eabi/lib/thumb/v7e-m/fpv4-sp/hard/libc_nano.a(lib_a-nano-msizer.o)
 .debug_frame   0x0000000000000000       0x20 /Users/augustmason/Documents/gitHub/riptide_firmware/STM32/gcc-arm-none-eabi-6-2017-q2-update/bin/../lib/gcc/arm-none-eabi/6.3.1/../../../../arm-none-eabi/lib/thumb/v7e-m/fpv4-sp/hard/libc_nano.a(lib_a-nano-msizer.o)
 .ARM.attributes
                0x0000000000000000       0x34 /Users/augustmason/Documents/gitHub/riptide_firmware/STM32/gcc-arm-none-eabi-6-2017-q2-update/bin/../lib/gcc/arm-none-eabi/6.3.1/../../../../arm-none-eabi/lib/thumb/v7e-m/fpv4-sp/hard/libc_nano.a(lib_a-nano-msizer.o)
 .text          0x0000000000000000        0x0 /Users/augustmason/Documents/gitHub/riptide_firmware/STM32/gcc-arm-none-eabi-6-2017-q2-update/bin/../lib/gcc/arm-none-eabi/6.3.1/../../../../arm-none-eabi/lib/thumb/v7e-m/fpv4-sp/hard/libnosys.a(sbrk.o)
 .data          0x0000000000000000        0x0 /Users/augustmason/Documents/gitHub/riptide_firmware/STM32/gcc-arm-none-eabi-6-2017-q2-update/bin/../lib/gcc/arm-none-eabi/6.3.1/../../../../arm-none-eabi/lib/thumb/v7e-m/fpv4-sp/hard/libnosys.a(sbrk.o)
 .bss           0x0000000000000000        0x0 /Users/augustmason/Documents/gitHub/riptide_firmware/STM32/gcc-arm-none-eabi-6-2017-q2-update/bin/../lib/gcc/arm-none-eabi/6.3.1/../../../../arm-none-eabi/lib/thumb/v7e-m/fpv4-sp/hard/libnosys.a(sbrk.o)
 .text          0x0000000000000000        0x0 /Users/augustmason/Documents/gitHub/riptide_firmware/STM32/gcc-arm-none-eabi-6-2017-q2-update/bin/../lib/gcc/arm-none-eabi/6.3.1/../../../../arm-none-eabi/lib/thumb/v7e-m/fpv4-sp/hard/libnosys.a(_exit.o)
 .data          0x0000000000000000        0x0 /Users/augustmason/Documents/gitHub/riptide_firmware/STM32/gcc-arm-none-eabi-6-2017-q2-update/bin/../lib/gcc/arm-none-eabi/6.3.1/../../../../arm-none-eabi/lib/thumb/v7e-m/fpv4-sp/hard/libnosys.a(_exit.o)
 .bss           0x0000000000000000        0x0 /Users/augustmason/Documents/gitHub/riptide_firmware/STM32/gcc-arm-none-eabi-6-2017-q2-update/bin/../lib/gcc/arm-none-eabi/6.3.1/../../../../arm-none-eabi/lib/thumb/v7e-m/fpv4-sp/hard/libnosys.a(_exit.o)
 .text._exit    0x0000000000000000        0x4 /Users/augustmason/Documents/gitHub/riptide_firmware/STM32/gcc-arm-none-eabi-6-2017-q2-update/bin/../lib/gcc/arm-none-eabi/6.3.1/../../../../arm-none-eabi/lib/thumb/v7e-m/fpv4-sp/hard/libnosys.a(_exit.o)
 .debug_frame   0x0000000000000000       0x20 /Users/augustmason/Documents/gitHub/riptide_firmware/STM32/gcc-arm-none-eabi-6-2017-q2-update/bin/../lib/gcc/arm-none-eabi/6.3.1/../../../../arm-none-eabi/lib/thumb/v7e-m/fpv4-sp/hard/libnosys.a(_exit.o)
 .ARM.attributes
                0x0000000000000000       0x34 /Users/augustmason/Documents/gitHub/riptide_firmware/STM32/gcc-arm-none-eabi-6-2017-q2-update/bin/../lib/gcc/arm-none-eabi/6.3.1/../../../../arm-none-eabi/lib/thumb/v7e-m/fpv4-sp/hard/libnosys.a(_exit.o)
 .data          0x0000000000000000        0x0 /Users/augustmason/Documents/gitHub/riptide_firmware/STM32/gcc-arm-none-eabi-6-2017-q2-update/bin/../lib/gcc/arm-none-eabi/6.3.1/thumb/v7e-m/fpv4-sp/hard/libgcc.a(_arm_addsubdf3.o)
 .bss           0x0000000000000000        0x0 /Users/augustmason/Documents/gitHub/riptide_firmware/STM32/gcc-arm-none-eabi-6-2017-q2-update/bin/../lib/gcc/arm-none-eabi/6.3.1/thumb/v7e-m/fpv4-sp/hard/libgcc.a(_arm_addsubdf3.o)
 .data          0x0000000000000000        0x0 /Users/augustmason/Documents/gitHub/riptide_firmware/STM32/gcc-arm-none-eabi-6-2017-q2-update/bin/../lib/gcc/arm-none-eabi/6.3.1/thumb/v7e-m/fpv4-sp/hard/libgcc.a(_arm_muldivdf3.o)
 .bss           0x0000000000000000        0x0 /Users/augustmason/Documents/gitHub/riptide_firmware/STM32/gcc-arm-none-eabi-6-2017-q2-update/bin/../lib/gcc/arm-none-eabi/6.3.1/thumb/v7e-m/fpv4-sp/hard/libgcc.a(_arm_muldivdf3.o)
 .data          0x0000000000000000        0x0 /Users/augustmason/Documents/gitHub/riptide_firmware/STM32/gcc-arm-none-eabi-6-2017-q2-update/bin/../lib/gcc/arm-none-eabi/6.3.1/thumb/v7e-m/fpv4-sp/hard/libgcc.a(_arm_cmpdf2.o)
 .bss           0x0000000000000000        0x0 /Users/augustmason/Documents/gitHub/riptide_firmware/STM32/gcc-arm-none-eabi-6-2017-q2-update/bin/../lib/gcc/arm-none-eabi/6.3.1/thumb/v7e-m/fpv4-sp/hard/libgcc.a(_arm_cmpdf2.o)
 .data          0x0000000000000000        0x0 /Users/augustmason/Documents/gitHub/riptide_firmware/STM32/gcc-arm-none-eabi-6-2017-q2-update/bin/../lib/gcc/arm-none-eabi/6.3.1/thumb/v7e-m/fpv4-sp/hard/libgcc.a(_arm_fixdfsi.o)
 .bss           0x0000000000000000        0x0 /Users/augustmason/Documents/gitHub/riptide_firmware/STM32/gcc-arm-none-eabi-6-2017-q2-update/bin/../lib/gcc/arm-none-eabi/6.3.1/thumb/v7e-m/fpv4-sp/hard/libgcc.a(_arm_fixdfsi.o)
 .data          0x0000000000000000        0x0 /Users/augustmason/Documents/gitHub/riptide_firmware/STM32/gcc-arm-none-eabi-6-2017-q2-update/bin/../lib/gcc/arm-none-eabi/6.3.1/thumb/v7e-m/fpv4-sp/hard/libgcc.a(_arm_truncdfsf2.o)
 .bss           0x0000000000000000        0x0 /Users/augustmason/Documents/gitHub/riptide_firmware/STM32/gcc-arm-none-eabi-6-2017-q2-update/bin/../lib/gcc/arm-none-eabi/6.3.1/thumb/v7e-m/fpv4-sp/hard/libgcc.a(_arm_truncdfsf2.o)
 .data          0x0000000000000000        0x0 /Users/augustmason/Documents/gitHub/riptide_firmware/STM32/gcc-arm-none-eabi-6-2017-q2-update/bin/../lib/gcc/arm-none-eabi/6.3.1/thumb/v7e-m/fpv4-sp/hard/libgcc.a(_aeabi_ldivmod.o)
 .bss           0x0000000000000000        0x0 /Users/augustmason/Documents/gitHub/riptide_firmware/STM32/gcc-arm-none-eabi-6-2017-q2-update/bin/../lib/gcc/arm-none-eabi/6.3.1/thumb/v7e-m/fpv4-sp/hard/libgcc.a(_aeabi_ldivmod.o)
 .data          0x0000000000000000        0x0 /Users/augustmason/Documents/gitHub/riptide_firmware/STM32/gcc-arm-none-eabi-6-2017-q2-update/bin/../lib/gcc/arm-none-eabi/6.3.1/thumb/v7e-m/fpv4-sp/hard/libgcc.a(_udivmoddi4.o)
 .bss           0x0000000000000000        0x0 /Users/augustmason/Documents/gitHub/riptide_firmware/STM32/gcc-arm-none-eabi-6-2017-q2-update/bin/../lib/gcc/arm-none-eabi/6.3.1/thumb/v7e-m/fpv4-sp/hard/libgcc.a(_udivmoddi4.o)
 .ARM.extab     0x0000000000000000        0x0 /Users/augustmason/Documents/gitHub/riptide_firmware/STM32/gcc-arm-none-eabi-6-2017-q2-update/bin/../lib/gcc/arm-none-eabi/6.3.1/thumb/v7e-m/fpv4-sp/hard/libgcc.a(_udivmoddi4.o)
 .data          0x0000000000000000        0x0 /Users/augustmason/Documents/gitHub/riptide_firmware/STM32/gcc-arm-none-eabi-6-2017-q2-update/bin/../lib/gcc/arm-none-eabi/6.3.1/thumb/v7e-m/fpv4-sp/hard/libgcc.a(_dvmd_tls.o)
 .bss           0x0000000000000000        0x0 /Users/augustmason/Documents/gitHub/riptide_firmware/STM32/gcc-arm-none-eabi-6-2017-q2-update/bin/../lib/gcc/arm-none-eabi/6.3.1/thumb/v7e-m/fpv4-sp/hard/libgcc.a(_dvmd_tls.o)
 .text          0x0000000000000000        0x0 /Users/augustmason/Documents/gitHub/riptide_firmware/STM32/gcc-arm-none-eabi-6-2017-q2-update/bin/../lib/gcc/arm-none-eabi/6.3.1/thumb/v7e-m/fpv4-sp/hard/crtend.o
 .data          0x0000000000000000        0x0 /Users/augustmason/Documents/gitHub/riptide_firmware/STM32/gcc-arm-none-eabi-6-2017-q2-update/bin/../lib/gcc/arm-none-eabi/6.3.1/thumb/v7e-m/fpv4-sp/hard/crtend.o
 .bss           0x0000000000000000        0x0 /Users/augustmason/Documents/gitHub/riptide_firmware/STM32/gcc-arm-none-eabi-6-2017-q2-update/bin/../lib/gcc/arm-none-eabi/6.3.1/thumb/v7e-m/fpv4-sp/hard/crtend.o
 .eh_frame      0x0000000000000000        0x4 /Users/augustmason/Documents/gitHub/riptide_firmware/STM32/gcc-arm-none-eabi-6-2017-q2-update/bin/../lib/gcc/arm-none-eabi/6.3.1/thumb/v7e-m/fpv4-sp/hard/crtend.o
 .jcr           0x0000000000000000        0x4 /Users/augustmason/Documents/gitHub/riptide_firmware/STM32/gcc-arm-none-eabi-6-2017-q2-update/bin/../lib/gcc/arm-none-eabi/6.3.1/thumb/v7e-m/fpv4-sp/hard/crtend.o
 .ARM.attributes
                0x0000000000000000       0x34 /Users/augustmason/Documents/gitHub/riptide_firmware/STM32/gcc-arm-none-eabi-6-2017-q2-update/bin/../lib/gcc/arm-none-eabi/6.3.1/thumb/v7e-m/fpv4-sp/hard/crtend.o
 .text          0x0000000000000000        0x0 /Users/augustmason/Documents/gitHub/riptide_firmware/STM32/gcc-arm-none-eabi-6-2017-q2-update/bin/../lib/gcc/arm-none-eabi/6.3.1/thumb/v7e-m/fpv4-sp/hard/crtn.o
 .data          0x0000000000000000        0x0 /Users/augustmason/Documents/gitHub/riptide_firmware/STM32/gcc-arm-none-eabi-6-2017-q2-update/bin/../lib/gcc/arm-none-eabi/6.3.1/thumb/v7e-m/fpv4-sp/hard/crtn.o
 .bss           0x0000000000000000        0x0 /Users/augustmason/Documents/gitHub/riptide_firmware/STM32/gcc-arm-none-eabi-6-2017-q2-update/bin/../lib/gcc/arm-none-eabi/6.3.1/thumb/v7e-m/fpv4-sp/hard/crtn.o

Memory Configuration

Name             Origin             Length             Attributes
RAM              0x0000000020000000 0x0000000000020000 xrw
CCMRAM           0x0000000010000000 0x0000000000010000 rw
FLASH            0x0000000008000000 0x0000000000100000 xr
*default*        0x0000000000000000 0xffffffffffffffff

Linker script and memory map

LOAD /Users/augustmason/Documents/gitHub/riptide_firmware/STM32/gcc-arm-none-eabi-6-2017-q2-update/bin/../lib/gcc/arm-none-eabi/6.3.1/thumb/v7e-m/fpv4-sp/hard/crti.o
LOAD /Users/augustmason/Documents/gitHub/riptide_firmware/STM32/gcc-arm-none-eabi-6-2017-q2-update/bin/../lib/gcc/arm-none-eabi/6.3.1/thumb/v7e-m/fpv4-sp/hard/crtbegin.o
LOAD /Users/augustmason/Documents/gitHub/riptide_firmware/STM32/gcc-arm-none-eabi-6-2017-q2-update/bin/../lib/gcc/arm-none-eabi/6.3.1/../../../../arm-none-eabi/lib/thumb/v7e-m/fpv4-sp/hard/crt0.o
LOAD build/stm32f4xx_hal.o
LOAD build/main.o
LOAD build/usbd_cdc.o
LOAD build/stm32f4xx_hal_cortex.o
LOAD build/list.o
LOAD build/stm32f4xx_hal_flash_ex.o
LOAD build/stm32f4xx_hal_msp.o
LOAD build/system_stm32f4xx.o
LOAD build/heap_4.o
LOAD build/usbd_desc.o
LOAD build/stm32f4xx_hal_pcd_ex.o
LOAD build/stm32f4xx_hal_rcc.o
LOAD build/cmsis_os.o
LOAD build/stm32f4xx_hal_flash.o
LOAD build/stm32f4xx_it.o
LOAD build/stm32f4xx_hal_pcd.o
LOAD build/croutine.o
LOAD build/stm32f4xx_hal_i2c_ex.o
LOAD build/usbd_ctlreq.o
LOAD build/stm32f4xx_hal_tim_ex.o
LOAD build/stm32f4xx_hal_flash_ramfunc.o
LOAD build/tasks.o
LOAD build/port.o
LOAD build/stm32f4xx_hal_dma.o
LOAD build/stm32f4xx_hal_tim.o
LOAD build/stm32f4xx_hal_gpio.o
LOAD build/queue.o
LOAD build/freertos.o
LOAD build/usbd_conf.o
LOAD build/stm32f4xx_hal_timebase_TIM.o
LOAD build/event_groups.o
LOAD build/stm32f4xx_ll_usb.o
LOAD build/stm32f4xx_hal_dma_ex.o
LOAD build/usbd_core.o
LOAD build/stm32f4xx_hal_rcc_ex.o
LOAD build/stm32f4xx_hal_pwr_ex.o
LOAD build/stm32f4xx_hal_i2c.o
LOAD build/usb_device.o
LOAD build/usbd_cdc_if.o
LOAD build/timers.o
LOAD build/stm32f4xx_hal_pwr.o
LOAD build/usbd_ioreq.o
LOAD build/riptideFunctions.o
LOAD build/riptideMain.o
LOAD build/riptideThreads.o
LOAD build/startup_stm32f405xx.o
LOAD /Users/augustmason/Documents/gitHub/riptide_firmware/STM32/gcc-arm-none-eabi-6-2017-q2-update/bin/../lib/gcc/arm-none-eabi/6.3.1/../../../../arm-none-eabi/lib/thumb/v7e-m/fpv4-sp/hard/libc_nano.a
LOAD /Users/augustmason/Documents/gitHub/riptide_firmware/STM32/gcc-arm-none-eabi-6-2017-q2-update/bin/../lib/gcc/arm-none-eabi/6.3.1/../../../../arm-none-eabi/lib/thumb/v7e-m/fpv4-sp/hard/libm.a
LOAD /Users/augustmason/Documents/gitHub/riptide_firmware/STM32/gcc-arm-none-eabi-6-2017-q2-update/bin/../lib/gcc/arm-none-eabi/6.3.1/../../../../arm-none-eabi/lib/thumb/v7e-m/fpv4-sp/hard/libnosys.a
START GROUP
LOAD /Users/augustmason/Documents/gitHub/riptide_firmware/STM32/gcc-arm-none-eabi-6-2017-q2-update/bin/../lib/gcc/arm-none-eabi/6.3.1/thumb/v7e-m/fpv4-sp/hard/libgcc.a
LOAD /Users/augustmason/Documents/gitHub/riptide_firmware/STM32/gcc-arm-none-eabi-6-2017-q2-update/bin/../lib/gcc/arm-none-eabi/6.3.1/../../../../arm-none-eabi/lib/thumb/v7e-m/fpv4-sp/hard/libc_nano.a
END GROUP
START GROUP
LOAD /Users/augustmason/Documents/gitHub/riptide_firmware/STM32/gcc-arm-none-eabi-6-2017-q2-update/bin/../lib/gcc/arm-none-eabi/6.3.1/thumb/v7e-m/fpv4-sp/hard/libgcc.a
LOAD /Users/augustmason/Documents/gitHub/riptide_firmware/STM32/gcc-arm-none-eabi-6-2017-q2-update/bin/../lib/gcc/arm-none-eabi/6.3.1/../../../../arm-none-eabi/lib/thumb/v7e-m/fpv4-sp/hard/libc_nano.a
END GROUP
LOAD /Users/augustmason/Documents/gitHub/riptide_firmware/STM32/gcc-arm-none-eabi-6-2017-q2-update/bin/../lib/gcc/arm-none-eabi/6.3.1/thumb/v7e-m/fpv4-sp/hard/crtend.o
LOAD /Users/augustmason/Documents/gitHub/riptide_firmware/STM32/gcc-arm-none-eabi-6-2017-q2-update/bin/../lib/gcc/arm-none-eabi/6.3.1/thumb/v7e-m/fpv4-sp/hard/crtn.o
                0x0000000020020000                _estack = 0x20020000
                0x0000000000000200                _Min_Heap_Size = 0x200
                0x0000000000000400                _Min_Stack_Size = 0x400

.isr_vector     0x0000000008000000      0x188
                0x0000000008000000                . = ALIGN (0x4)
 *(.isr_vector)
 .isr_vector    0x0000000008000000      0x188 build/startup_stm32f405xx.o
                0x0000000008000000                g_pfnVectors
                0x0000000008000188                . = ALIGN (0x4)

.text           0x0000000008000190     0x8350
                0x0000000008000190                . = ALIGN (0x4)
 *(.text)
 .text          0x0000000008000190       0x6c /Users/augustmason/Documents/gitHub/riptide_firmware/STM32/gcc-arm-none-eabi-6-2017-q2-update/bin/../lib/gcc/arm-none-eabi/6.3.1/thumb/v7e-m/fpv4-sp/hard/crtbegin.o
 .text          0x00000000080001fc       0x10 /Users/augustmason/Documents/gitHub/riptide_firmware/STM32/gcc-arm-none-eabi-6-2017-q2-update/bin/../lib/gcc/arm-none-eabi/6.3.1/../../../../arm-none-eabi/lib/thumb/v7e-m/fpv4-sp/hard/libc_nano.a(lib_a-strlen.o)
                0x00000000080001fc                strlen
 .text          0x000000000800020c      0x370 /Users/augustmason/Documents/gitHub/riptide_firmware/STM32/gcc-arm-none-eabi-6-2017-q2-update/bin/../lib/gcc/arm-none-eabi/6.3.1/thumb/v7e-m/fpv4-sp/hard/libgcc.a(_arm_addsubdf3.o)
                0x000000000800020c                __aeabi_drsub
                0x0000000008000214                __subdf3
                0x0000000008000214                __aeabi_dsub
                0x0000000008000218                __aeabi_dadd
                0x0000000008000218                __adddf3
                0x0000000008000490                __aeabi_ui2d
                0x0000000008000490                __floatunsidf
                0x00000000080004b0                __floatsidf
                0x00000000080004b0                __aeabi_i2d
                0x00000000080004d4                __extendsfdf2
                0x00000000080004d4                __aeabi_f2d
                0x0000000008000510                __aeabi_ul2d
                0x0000000008000510                __floatundidf
                0x0000000008000520                __aeabi_l2d
                0x0000000008000520                __floatdidf
 .text          0x000000000800057c      0x424 /Users/augustmason/Documents/gitHub/riptide_firmware/STM32/gcc-arm-none-eabi-6-2017-q2-update/bin/../lib/gcc/arm-none-eabi/6.3.1/thumb/v7e-m/fpv4-sp/hard/libgcc.a(_arm_muldivdf3.o)
                0x000000000800057c                __aeabi_dmul
                0x000000000800057c                __muldf3
                0x00000000080007d0                __aeabi_ddiv
                0x00000000080007d0                __divdf3
 .text          0x00000000080009a0      0x110 /Users/augustmason/Documents/gitHub/riptide_firmware/STM32/gcc-arm-none-eabi-6-2017-q2-update/bin/../lib/gcc/arm-none-eabi/6.3.1/thumb/v7e-m/fpv4-sp/hard/libgcc.a(_arm_cmpdf2.o)
                0x00000000080009a0                __gedf2
                0x00000000080009a0                __gtdf2
                0x00000000080009a8                __ledf2
                0x00000000080009a8                __ltdf2
                0x00000000080009b0                __cmpdf2
                0x00000000080009b0                __eqdf2
                0x00000000080009b0                __nedf2
                0x0000000008000a2c                __aeabi_cdrcmple
                0x0000000008000a3c                __aeabi_cdcmple
                0x0000000008000a3c                __aeabi_cdcmpeq
                0x0000000008000a4c                __aeabi_dcmpeq
                0x0000000008000a60                __aeabi_dcmplt
                0x0000000008000a74                __aeabi_dcmple
                0x0000000008000a88                __aeabi_dcmpge
                0x0000000008000a9c                __aeabi_dcmpgt
 .text          0x0000000008000ab0       0x50 /Users/augustmason/Documents/gitHub/riptide_firmware/STM32/gcc-arm-none-eabi-6-2017-q2-update/bin/../lib/gcc/arm-none-eabi/6.3.1/thumb/v7e-m/fpv4-sp/hard/libgcc.a(_arm_fixdfsi.o)
                0x0000000008000ab0                __fixdfsi
                0x0000000008000ab0                __aeabi_d2iz
 .text          0x0000000008000b00       0xa0 /Users/augustmason/Documents/gitHub/riptide_firmware/STM32/gcc-arm-none-eabi-6-2017-q2-update/bin/../lib/gcc/arm-none-eabi/6.3.1/thumb/v7e-m/fpv4-sp/hard/libgcc.a(_arm_truncdfsf2.o)
                0x0000000008000b00                __aeabi_d2f
                0x0000000008000b00                __truncdfsf2
 .text          0x0000000008000ba0       0xa0 /Users/augustmason/Documents/gitHub/riptide_firmware/STM32/gcc-arm-none-eabi-6-2017-q2-update/bin/../lib/gcc/arm-none-eabi/6.3.1/thumb/v7e-m/fpv4-sp/hard/libgcc.a(_aeabi_ldivmod.o)
                0x0000000008000ba0                __aeabi_ldivmod
 .text          0x0000000008000c40      0x2dc /Users/augustmason/Documents/gitHub/riptide_firmware/STM32/gcc-arm-none-eabi-6-2017-q2-update/bin/../lib/gcc/arm-none-eabi/6.3.1/thumb/v7e-m/fpv4-sp/hard/libgcc.a(_udivmoddi4.o)
                0x0000000008000c40                __udivmoddi4
 .text          0x0000000008000f1c        0x4 /Users/augustmason/Documents/gitHub/riptide_firmware/STM32/gcc-arm-none-eabi-6-2017-q2-update/bin/../lib/gcc/arm-none-eabi/6.3.1/thumb/v7e-m/fpv4-sp/hard/libgcc.a(_dvmd_tls.o)
                0x0000000008000f1c                __aeabi_ldiv0
                0x0000000008000f1c                __aeabi_idiv0
 *(.text*)
 .text.HAL_Init
                0x0000000008000f20       0x34 build/stm32f4xx_hal.o
                0x0000000008000f20                HAL_Init
 .text.HAL_IncTick
                0x0000000008000f54       0x10 build/stm32f4xx_hal.o
                0x0000000008000f54                HAL_IncTick
 .text.HAL_GetTick
                0x0000000008000f64        0xc build/stm32f4xx_hal.o
                0x0000000008000f64                HAL_GetTick
 .text.HAL_Delay
                0x0000000008000f70       0x24 build/stm32f4xx_hal.o
                0x0000000008000f70                HAL_Delay
 .text.MX_GPIO_Init
                0x0000000008000f94       0xe0 build/main.o
 .text.StartDefaultTask
                0x0000000008001074        0xe build/main.o
                0x0000000008001074                StartDefaultTask
 *fill*         0x0000000008001082        0x2 
 .text.writePWM
                0x0000000008001084       0x4c build/main.o
                0x0000000008001084                writePWM
 .text.resetPWM
                0x00000000080010d0       0x40 build/main.o
                0x00000000080010d0                resetPWM
 .text.getI2CRef
                0x0000000008001110        0x8 build/main.o
                0x0000000008001110                getI2CRef
 .text.HAL_TIM_PeriodElapsedCallback
                0x0000000008001118       0x18 build/main.o
                0x0000000008001118                HAL_TIM_PeriodElapsedCallback
 .text._Error_Handler
                0x0000000008001130        0x2 build/main.o
                0x0000000008001130                _Error_Handler
 *fill*         0x0000000008001132        0x2 
 .text.MX_TIM2_Init
                0x0000000008001134       0xb0 build/main.o
 .text.MX_TIM13_Init
                0x00000000080011e4       0x78 build/main.o
 .text.MX_TIM14_Init
                0x000000000800125c       0x78 build/main.o
 .text.MX_I2C3_Init
                0x00000000080012d4       0x44 build/main.o
 .text.MX_I2C1_Init
                0x0000000008001318       0x44 build/main.o
 .text.MX_TIM3_Init
                0x000000000800135c       0x98 build/main.o
 .text.MX_TIM5_Init
                0x00000000080013f4       0x84 build/main.o
 .text.SystemClock_Config
                0x0000000008001478       0xc0 build/main.o
                0x0000000008001478                SystemClock_Config
 .text.main     0x0000000008001538       0xc0 build/main.o
                0x0000000008001538                main
 .text.USBD_CDC_DataIn
                0x00000000080015f8       0x12 build/usbd_cdc.o
 .text.USBD_CDC_EP0_RxReady
                0x000000000800160a       0x28 build/usbd_cdc.o
 *fill*         0x0000000008001632        0x2 
 .text.USBD_CDC_GetFSCfgDesc
                0x0000000008001634        0xc build/usbd_cdc.o
 .text.USBD_CDC_GetHSCfgDesc
                0x0000000008001640        0xc build/usbd_cdc.o
 .text.USBD_CDC_GetOtherSpeedCfgDesc
                0x000000000800164c        0xc build/usbd_cdc.o
 .text.USBD_CDC_GetDeviceQualifierDescriptor
                0x0000000008001658        0xc build/usbd_cdc.o
                0x0000000008001658                USBD_CDC_GetDeviceQualifierDescriptor
 .text.USBD_CDC_DataOut
                0x0000000008001664       0x2e build/usbd_cdc.o
 *fill*         0x0000000008001692        0x2 
 .text.USBD_CDC_Setup
                0x0000000008001694       0x74 build/usbd_cdc.o
 .text.USBD_CDC_DeInit
                0x0000000008001708       0x3a build/usbd_cdc.o
 .text.USBD_CDC_Init
                0x0000000008001742       0x96 build/usbd_cdc.o
 .text.USBD_CDC_RegisterInterface
                0x00000000080017d8        0xe build/usbd_cdc.o
                0x00000000080017d8                USBD_CDC_RegisterInterface
 .text.USBD_CDC_SetTxBuffer
                0x00000000080017e6       0x10 build/usbd_cdc.o
                0x00000000080017e6                USBD_CDC_SetTxBuffer
 .text.USBD_CDC_SetRxBuffer
                0x00000000080017f6        0xc build/usbd_cdc.o
                0x00000000080017f6                USBD_CDC_SetRxBuffer
 .text.USBD_CDC_TransmitPacket
                0x0000000008001802       0x2e build/usbd_cdc.o
                0x0000000008001802                USBD_CDC_TransmitPacket
 .text.USBD_CDC_ReceivePacket
                0x0000000008001830       0x32 build/usbd_cdc.o
                0x0000000008001830                USBD_CDC_ReceivePacket
 *fill*         0x0000000008001862        0x2 
 .text.HAL_NVIC_SetPriorityGrouping
                0x0000000008001864       0x24 build/stm32f4xx_hal_cortex.o
                0x0000000008001864                HAL_NVIC_SetPriorityGrouping
 .text.HAL_NVIC_SetPriority
                0x0000000008001888       0x64 build/stm32f4xx_hal_cortex.o
                0x0000000008001888                HAL_NVIC_SetPriority
 .text.HAL_NVIC_EnableIRQ
                0x00000000080018ec       0x18 build/stm32f4xx_hal_cortex.o
                0x00000000080018ec                HAL_NVIC_EnableIRQ
 .text.HAL_SYSTICK_Config
                0x0000000008001904       0x2c build/stm32f4xx_hal_cortex.o
                0x0000000008001904                HAL_SYSTICK_Config
 .text.HAL_SYSTICK_CLKSourceConfig
                0x0000000008001930       0x20 build/stm32f4xx_hal_cortex.o
                0x0000000008001930                HAL_SYSTICK_CLKSourceConfig
 .text.vListInitialise
                0x0000000008001950       0x16 build/list.o
                0x0000000008001950                vListInitialise
 .text.vListInitialiseItem
                0x0000000008001966        0x6 build/list.o
                0x0000000008001966                vListInitialiseItem
 .text.vListInsertEnd
                0x000000000800196c       0x18 build/list.o
                0x000000000800196c                vListInsertEnd
 .text.vListInsert
                0x0000000008001984       0x34 build/list.o
                0x0000000008001984                vListInsert
 .text.uxListRemove
                0x00000000080019b8       0x26 build/list.o
                0x00000000080019b8                uxListRemove
 .text.HAL_MspInit
                0x00000000080019de       0x5e build/stm32f4xx_hal_msp.o
                0x00000000080019de                HAL_MspInit
 .text.HAL_I2C_MspInit
                0x0000000008001a3c       0xb4 build/stm32f4xx_hal_msp.o
                0x0000000008001a3c                HAL_I2C_MspInit
 .text.HAL_TIM_PWM_MspInit
                0x0000000008001af0       0x74 build/stm32f4xx_hal_msp.o
                0x0000000008001af0                HAL_TIM_PWM_MspInit
 .text.HAL_TIM_Base_MspInit
                0x0000000008001b64       0x54 build/stm32f4xx_hal_msp.o
                0x0000000008001b64                HAL_TIM_Base_MspInit
 .text.HAL_TIM_MspPostInit
                0x0000000008001bb8       0xdc build/stm32f4xx_hal_msp.o
                0x0000000008001bb8                HAL_TIM_MspPostInit
 .text.SystemInit
                0x0000000008001c94       0x4c build/system_stm32f4xx.o
                0x0000000008001c94                SystemInit
 .text.prvHeapInit
                0x0000000008001ce0       0x64 build/heap_4.o
 .text.prvInsertBlockIntoFreeList
                0x0000000008001d44       0x58 build/heap_4.o
 .text.pvPortMalloc
                0x0000000008001d9c      0x108 build/heap_4.o
                0x0000000008001d9c                pvPortMalloc
 .text.vPortFree
                0x0000000008001ea4       0x70 build/heap_4.o
                0x0000000008001ea4                vPortFree
 .text.USBD_HS_DeviceDescriptor
                0x0000000008001f14        0xc build/usbd_desc.o
                0x0000000008001f14                USBD_HS_DeviceDescriptor
 .text.USBD_HS_LangIDStrDescriptor
                0x0000000008001f20        0xc build/usbd_desc.o
                0x0000000008001f20                USBD_HS_LangIDStrDescriptor
 .text.USBD_HS_ProductStrDescriptor
                0x0000000008001f2c       0x24 build/usbd_desc.o
                0x0000000008001f2c                USBD_HS_ProductStrDescriptor
 .text.USBD_HS_ManufacturerStrDescriptor
                0x0000000008001f50       0x1c build/usbd_desc.o
                0x0000000008001f50                USBD_HS_ManufacturerStrDescriptor
 .text.USBD_HS_SerialStrDescriptor
                0x0000000008001f6c       0x24 build/usbd_desc.o
                0x0000000008001f6c                USBD_HS_SerialStrDescriptor
 .text.USBD_HS_ConfigStrDescriptor
                0x0000000008001f90       0x24 build/usbd_desc.o
                0x0000000008001f90                USBD_HS_ConfigStrDescriptor
 .text.USBD_HS_InterfaceStrDescriptor
                0x0000000008001fb4       0x24 build/usbd_desc.o
                0x0000000008001fb4                USBD_HS_InterfaceStrDescriptor
 .text.HAL_PCDEx_SetTxFiFo
                0x0000000008001fd8       0x48 build/stm32f4xx_hal_pcd_ex.o
                0x0000000008001fd8                HAL_PCDEx_SetTxFiFo
 .text.HAL_PCDEx_SetRxFiFo
                0x0000000008002020        0x8 build/stm32f4xx_hal_pcd_ex.o
                0x0000000008002020                HAL_PCDEx_SetRxFiFo
 .text.HAL_RCC_OscConfig
                0x0000000008002028      0x3b0 build/stm32f4xx_hal_rcc.o
                0x0000000008002028                HAL_RCC_OscConfig
 .text.HAL_RCC_GetSysClockFreq
                0x00000000080023d8       0x88 build/stm32f4xx_hal_rcc.o
                0x00000000080023d8                HAL_RCC_GetSysClockFreq
 .text.HAL_RCC_ClockConfig
                0x0000000008002460      0x19c build/stm32f4xx_hal_rcc.o
                0x0000000008002460                HAL_RCC_ClockConfig
 .text.HAL_RCC_GetHCLKFreq
                0x00000000080025fc        0xc build/stm32f4xx_hal_rcc.o
                0x00000000080025fc                HAL_RCC_GetHCLKFreq
 .text.HAL_RCC_GetPCLK1Freq
                0x0000000008002608       0x2c build/stm32f4xx_hal_rcc.o
                0x0000000008002608                HAL_RCC_GetPCLK1Freq
 .text.HAL_RCC_GetPCLK2Freq
                0x0000000008002634       0x2c build/stm32f4xx_hal_rcc.o
                0x0000000008002634                HAL_RCC_GetPCLK2Freq
 .text.HAL_RCC_GetClockConfig
                0x0000000008002660       0x3c build/stm32f4xx_hal_rcc.o
                0x0000000008002660                HAL_RCC_GetClockConfig
 .text.makeFreeRtosPriority
                0x000000000800269c        0xc build/cmsis_os.o
 .text.osKernelStart
                0x00000000080026a8        0xa build/cmsis_os.o
                0x00000000080026a8                osKernelStart
 .text.osThreadCreate
                0x00000000080026b2       0x34 build/cmsis_os.o
                0x00000000080026b2                osThreadCreate
 .text.osDelay  0x00000000080026e6       0x12 build/cmsis_os.o
                0x00000000080026e6                osDelay
 .text.osSystickHandler
                0x00000000080026f8       0x10 build/cmsis_os.o
                0x00000000080026f8                osSystickHandler
 .text.NMI_Handler
                0x0000000008002708        0x2 build/stm32f4xx_it.o
                0x0000000008002708                NMI_Handler
 .text.HardFault_Handler
                0x000000000800270a        0x2 build/stm32f4xx_it.o
                0x000000000800270a                HardFault_Handler
 .text.MemManage_Handler
                0x000000000800270c        0x2 build/stm32f4xx_it.o
                0x000000000800270c                MemManage_Handler
 .text.BusFault_Handler
                0x000000000800270e        0x2 build/stm32f4xx_it.o
                0x000000000800270e                BusFault_Handler
 .text.UsageFault_Handler
                0x0000000008002710        0x2 build/stm32f4xx_it.o
                0x0000000008002710                UsageFault_Handler
 .text.DebugMon_Handler
                0x0000000008002712        0x2 build/stm32f4xx_it.o
                0x0000000008002712                DebugMon_Handler
 .text.SysTick_Handler
                0x0000000008002714        0x8 build/stm32f4xx_it.o
                0x0000000008002714                SysTick_Handler
 .text.TIM1_UP_TIM10_IRQHandler
                0x000000000800271c       0x10 build/stm32f4xx_it.o
                0x000000000800271c                TIM1_UP_TIM10_IRQHandler
 .text.OTG_HS_IRQHandler
                0x000000000800272c       0x10 build/stm32f4xx_it.o
                0x000000000800272c                OTG_HS_IRQHandler
 .text.PCD_WriteEmptyTxFifo
                0x000000000800273c       0xac build/stm32f4xx_hal_pcd.o
 .text.HAL_PCD_Init
                0x00000000080027e8       0xe0 build/stm32f4xx_hal_pcd.o
                0x00000000080027e8                HAL_PCD_Init
 .text.HAL_PCD_Start
                0x00000000080028c8       0x2a build/stm32f4xx_hal_pcd.o
                0x00000000080028c8                HAL_PCD_Start
 *fill*         0x00000000080028f2        0x2 
 .text.HAL_PCD_IRQHandler
                0x00000000080028f4      0x5c4 build/stm32f4xx_hal_pcd.o
                0x00000000080028f4                HAL_PCD_IRQHandler
 .text.HAL_PCD_SetAddress
                0x0000000008002eb8       0x24 build/stm32f4xx_hal_pcd.o
                0x0000000008002eb8                HAL_PCD_SetAddress
 .text.HAL_PCD_EP_Open
                0x0000000008002edc       0x68 build/stm32f4xx_hal_pcd.o
                0x0000000008002edc                HAL_PCD_EP_Open
 .text.HAL_PCD_EP_Close
                0x0000000008002f44       0x56 build/stm32f4xx_hal_pcd.o
                0x0000000008002f44                HAL_PCD_EP_Close
 .text.HAL_PCD_EP_Receive
                0x0000000008002f9a       0x5a build/stm32f4xx_hal_pcd.o
                0x0000000008002f9a                HAL_PCD_EP_Receive
 .text.HAL_PCD_EP_GetRxCount
                0x0000000008002ff4       0x12 build/stm32f4xx_hal_pcd.o
                0x0000000008002ff4                HAL_PCD_EP_GetRxCount
 .text.HAL_PCD_EP_Transmit
                0x0000000008003006       0x52 build/stm32f4xx_hal_pcd.o
                0x0000000008003006                HAL_PCD_EP_Transmit
 .text.HAL_PCD_EP_SetStall
                0x0000000008003058       0x66 build/stm32f4xx_hal_pcd.o
                0x0000000008003058                HAL_PCD_EP_SetStall
 .text.HAL_PCD_EP_ClrStall
                0x00000000080030be       0x56 build/stm32f4xx_hal_pcd.o
                0x00000000080030be                HAL_PCD_EP_ClrStall
 .text.USBD_GetLen
                0x0000000008003114       0x14 build/usbd_ctlreq.o
 .text.USBD_SetFeature
                0x0000000008003128       0x20 build/usbd_ctlreq.o
 .text.USBD_ParseSetupRequest
                0x0000000008003148       0x28 build/usbd_ctlreq.o
                0x0000000008003148                USBD_ParseSetupRequest
 .text.USBD_CtlError
                0x0000000008003170       0x14 build/usbd_ctlreq.o
                0x0000000008003170                USBD_CtlError
 .text.USBD_GetDescriptor
                0x0000000008003184      0x132 build/usbd_ctlreq.o
 .text.USBD_SetAddress
                0x00000000080032b6       0x4a build/usbd_ctlreq.o
 .text.USBD_SetConfig
                0x0000000008003300       0xa4 build/usbd_ctlreq.o
 .text.USBD_GetConfig
                0x00000000080033a4       0x3a build/usbd_ctlreq.o
 .text.USBD_GetStatus
                0x00000000080033de       0x2c build/usbd_ctlreq.o
 .text.USBD_ClrFeature
                0x000000000800340a       0x32 build/usbd_ctlreq.o
 .text.USBD_StdDevReq
                0x000000000800343c       0x48 build/usbd_ctlreq.o
                0x000000000800343c                USBD_StdDevReq
 .text.USBD_StdItfReq
                0x0000000008003484       0x38 build/usbd_ctlreq.o
                0x0000000008003484                USBD_StdItfReq
 .text.USBD_StdEPReq
                0x00000000080034bc      0x118 build/usbd_ctlreq.o
                0x00000000080034bc                USBD_StdEPReq
 .text.USBD_GetString
                0x00000000080035d4       0x3a build/usbd_ctlreq.o
                0x00000000080035d4                USBD_GetString
 .text.HAL_TIMEx_MasterConfigSynchronization
                0x000000000800360e       0x52 build/stm32f4xx_hal_tim_ex.o
                0x000000000800360e                HAL_TIMEx_MasterConfigSynchronization
 .text.HAL_TIMEx_CommutationCallback
                0x0000000008003660        0x2 build/stm32f4xx_hal_tim_ex.o
                0x0000000008003660                HAL_TIMEx_CommutationCallback
 .text.HAL_TIMEx_BreakCallback
                0x0000000008003662        0x2 build/stm32f4xx_hal_tim_ex.o
                0x0000000008003662                HAL_TIMEx_BreakCallback
 .text.prvResetNextTaskUnblockTime
                0x0000000008003664       0x34 build/tasks.o
 .text.prvDeleteTCB
                0x0000000008003698       0x12 build/tasks.o
 .text.prvInitialiseNewTask
                0x00000000080036aa       0x80 build/tasks.o
 *fill*         0x000000000800372a        0x2 
 .text.prvInitialiseTaskLists
                0x000000000800372c       0x68 build/tasks.o
 .text.prvAddNewTaskToReadyList
                0x0000000008003794       0xa8 build/tasks.o
 .text.prvAddCurrentTaskToDelayedList
                0x000000000800383c       0x98 build/tasks.o
 .text.xTaskCreate
                0x00000000080038d4       0x62 build/tasks.o
                0x00000000080038d4                xTaskCreate
 *fill*         0x0000000008003936        0x2 
 .text.vTaskStartScheduler
                0x0000000008003938       0x7c build/tasks.o
                0x0000000008003938                vTaskStartScheduler
 .text.vTaskSuspendAll
                0x00000000080039b4       0x10 build/tasks.o
                0x00000000080039b4                vTaskSuspendAll
 .text.xTaskIncrementTick
                0x00000000080039c4      0x120 build/tasks.o
                0x00000000080039c4                xTaskIncrementTick
 .text.xTaskResumeAll
                0x0000000008003ae4       0xfc build/tasks.o
                0x0000000008003ae4                xTaskResumeAll
 .text.vTaskDelay
                0x0000000008003be0       0x50 build/tasks.o
                0x0000000008003be0                vTaskDelay
 .text.prvCheckTasksWaitingTermination
                0x0000000008003c30       0x5c build/tasks.o
 .text.prvIdleTask
                0x0000000008003c8c       0x28 build/tasks.o
 .text.vTaskSwitchContext
                0x0000000008003cb4       0x9c build/tasks.o
                0x0000000008003cb4                vTaskSwitchContext
 .text.xTaskGetSchedulerState
                0x0000000008003d50       0x20 build/tasks.o
                0x0000000008003d50                xTaskGetSchedulerState
 .text.prvTaskExitError
                0x0000000008003d70       0x34 build/port.o
 .text.prvPortStartFirstTask
                0x0000000008003da4       0x20 build/port.o
 .text.vPortEnableVFP
                0x0000000008003dc4       0x14 build/port.o
 .text.pxPortInitialiseStack
                0x0000000008003dd8       0x2c build/port.o
                0x0000000008003dd8                pxPortInitialiseStack
 *fill*         0x0000000008003e04        0xc 
 .text.SVC_Handler
                0x0000000008003e10       0x24 build/port.o
                0x0000000008003e10                SVC_Handler
 .text.vPortEnterCritical
                0x0000000008003e34       0x44 build/port.o
                0x0000000008003e34                vPortEnterCritical
 .text.vPortExitCritical
                0x0000000008003e78       0x2c build/port.o
                0x0000000008003e78                vPortExitCritical
 *fill*         0x0000000008003ea4        0xc 
 .text.PendSV_Handler
                0x0000000008003eb0       0x64 build/port.o
                0x0000000008003eb0                PendSV_Handler
 .text.xPortSysTickHandler
                0x0000000008003f14       0x2c build/port.o
                0x0000000008003f14                xPortSysTickHandler
 .text.vPortSetupTimerInterrupt
                0x0000000008003f40       0x2c build/port.o
                0x0000000008003f40                vPortSetupTimerInterrupt
 .text.xPortStartScheduler
                0x0000000008003f6c       0xec build/port.o
                0x0000000008003f6c                xPortStartScheduler
 .text.TIM_OC1_SetConfig
                0x0000000008004058       0x64 build/stm32f4xx_hal_tim.o
 .text.TIM_OC3_SetConfig
                0x00000000080040bc       0x6c build/stm32f4xx_hal_tim.o
 .text.TIM_OC4_SetConfig
                0x0000000008004128       0x5c build/stm32f4xx_hal_tim.o
 .text.HAL_TIM_Base_Start_IT
                0x0000000008004184       0x18 build/stm32f4xx_hal_tim.o
                0x0000000008004184                HAL_TIM_Base_Start_IT
 .text.HAL_TIM_OC_DelayElapsedCallback
                0x000000000800419c        0x2 build/stm32f4xx_hal_tim.o
                0x000000000800419c                HAL_TIM_OC_DelayElapsedCallback
 .text.HAL_TIM_IC_CaptureCallback
                0x000000000800419e        0x2 build/stm32f4xx_hal_tim.o
                0x000000000800419e                HAL_TIM_IC_CaptureCallback
 .text.HAL_TIM_PWM_PulseFinishedCallback
                0x00000000080041a0        0x2 build/stm32f4xx_hal_tim.o
                0x00000000080041a0                HAL_TIM_PWM_PulseFinishedCallback
 .text.HAL_TIM_TriggerCallback
                0x00000000080041a2        0x2 build/stm32f4xx_hal_tim.o
                0x00000000080041a2                HAL_TIM_TriggerCallback
 .text.HAL_TIM_IRQHandler
                0x00000000080041a4      0x17a build/stm32f4xx_hal_tim.o
                0x00000000080041a4                HAL_TIM_IRQHandler
 *fill*         0x000000000800431e        0x2 
 .text.TIM_Base_SetConfig
                0x0000000008004320      0x11c build/stm32f4xx_hal_tim.o
                0x0000000008004320                TIM_Base_SetConfig
 .text.HAL_TIM_Base_Init
                0x000000000800443c       0x32 build/stm32f4xx_hal_tim.o
                0x000000000800443c                HAL_TIM_Base_Init
 .text.HAL_TIM_PWM_Init
                0x000000000800446e       0x32 build/stm32f4xx_hal_tim.o
                0x000000000800446e                HAL_TIM_PWM_Init
 .text.TIM_OC2_SetConfig
                0x00000000080044a0       0x70 build/stm32f4xx_hal_tim.o
                0x00000000080044a0                TIM_OC2_SetConfig
 .text.HAL_TIM_PWM_ConfigChannel
                0x0000000008004510       0xdc build/stm32f4xx_hal_tim.o
                0x0000000008004510                HAL_TIM_PWM_ConfigChannel
 .text.TIM_CCxChannelCmd
                0x00000000080045ec       0x1e build/stm32f4xx_hal_tim.o
                0x00000000080045ec                TIM_CCxChannelCmd
 *fill*         0x000000000800460a        0x2 
 .text.HAL_TIM_PWM_Start
                0x000000000800460c       0x44 build/stm32f4xx_hal_tim.o
                0x000000000800460c                HAL_TIM_PWM_Start
 .text.HAL_GPIO_Init
                0x0000000008004650      0x1cc build/stm32f4xx_hal_gpio.o
                0x0000000008004650                HAL_GPIO_Init
 .text.HAL_GPIO_ReadPin
                0x000000000800481c        0xe build/stm32f4xx_hal_gpio.o
                0x000000000800481c                HAL_GPIO_ReadPin
 .text.HAL_GPIO_WritePin
                0x000000000800482a        0xc build/stm32f4xx_hal_gpio.o
                0x000000000800482a                HAL_GPIO_WritePin
 .text.HAL_GPIO_TogglePin
                0x0000000008004836        0x8 build/stm32f4xx_hal_gpio.o
                0x0000000008004836                HAL_GPIO_TogglePin
 *fill*         0x000000000800483e        0x2 
 .text.HAL_PCD_MspInit
                0x0000000008004840       0x64 build/usbd_conf.o
                0x0000000008004840                HAL_PCD_MspInit
 .text.HAL_PCD_SetupStageCallback
                0x00000000080048a4       0x10 build/usbd_conf.o
                0x00000000080048a4                HAL_PCD_SetupStageCallback
 .text.HAL_PCD_DataOutStageCallback
                0x00000000080048b4       0x18 build/usbd_conf.o
                0x00000000080048b4                HAL_PCD_DataOutStageCallback
 .text.HAL_PCD_DataInStageCallback
                0x00000000080048cc       0x16 build/usbd_conf.o
                0x00000000080048cc                HAL_PCD_DataInStageCallback
 .text.HAL_PCD_SOFCallback
                0x00000000080048e2        0xc build/usbd_conf.o
                0x00000000080048e2                HAL_PCD_SOFCallback
 .text.HAL_PCD_ResetCallback
                0x00000000080048ee       0x20 build/usbd_conf.o
                0x00000000080048ee                HAL_PCD_ResetCallback
 *fill*         0x000000000800490e        0x2 
 .text.HAL_PCD_SuspendCallback
                0x0000000008004910       0x30 build/usbd_conf.o
                0x0000000008004910                HAL_PCD_SuspendCallback
 .text.HAL_PCD_ResumeCallback
                0x0000000008004940        0xc build/usbd_conf.o
                0x0000000008004940                HAL_PCD_ResumeCallback
 .text.HAL_PCD_ISOOUTIncompleteCallback
                0x000000000800494c        0xc build/usbd_conf.o
                0x000000000800494c                HAL_PCD_ISOOUTIncompleteCallback
 .text.HAL_PCD_ISOINIncompleteCallback
                0x0000000008004958        0xc build/usbd_conf.o
                0x0000000008004958                HAL_PCD_ISOINIncompleteCallback
 .text.HAL_PCD_ConnectCallback
                0x0000000008004964        0xc build/usbd_conf.o
                0x0000000008004964                HAL_PCD_ConnectCallback
 .text.HAL_PCD_DisconnectCallback
                0x0000000008004970        0xc build/usbd_conf.o
                0x0000000008004970                HAL_PCD_DisconnectCallback
 .text.USBD_LL_Init
                0x000000000800497c       0x7c build/usbd_conf.o
                0x000000000800497c                USBD_LL_Init
 .text.USBD_LL_Start
                0x00000000080049f8       0x1c build/usbd_conf.o
                0x00000000080049f8                USBD_LL_Start
 .text.USBD_LL_OpenEP
                0x0000000008004a14       0x22 build/usbd_conf.o
                0x0000000008004a14                USBD_LL_OpenEP
 .text.USBD_LL_CloseEP
                0x0000000008004a36       0x1c build/usbd_conf.o
                0x0000000008004a36                USBD_LL_CloseEP
 .text.USBD_LL_StallEP
                0x0000000008004a52       0x1c build/usbd_conf.o
                0x0000000008004a52                USBD_LL_StallEP
 .text.USBD_LL_ClearStallEP
                0x0000000008004a6e       0x1c build/usbd_conf.o
                0x0000000008004a6e                USBD_LL_ClearStallEP
 .text.USBD_LL_IsStallEP
                0x0000000008004a8a       0x2e build/usbd_conf.o
                0x0000000008004a8a                USBD_LL_IsStallEP
 .text.USBD_LL_SetUSBAddress
                0x0000000008004ab8       0x1c build/usbd_conf.o
                0x0000000008004ab8                USBD_LL_SetUSBAddress
 .text.USBD_LL_Transmit
                0x0000000008004ad4       0x1c build/usbd_conf.o
                0x0000000008004ad4                USBD_LL_Transmit
 .text.USBD_LL_PrepareReceive
                0x0000000008004af0       0x1c build/usbd_conf.o
                0x0000000008004af0                USBD_LL_PrepareReceive
 .text.USBD_LL_GetRxDataSize
                0x0000000008004b0c        0xc build/usbd_conf.o
                0x0000000008004b0c                USBD_LL_GetRxDataSize
 .text.HAL_InitTick
                0x0000000008004b18       0x78 build/stm32f4xx_hal_timebase_TIM.o
                0x0000000008004b18                HAL_InitTick
 .text.USB_CoreInit
                0x0000000008004b90       0x7c build/stm32f4xx_ll_usb.o
                0x0000000008004b90                USB_CoreInit
 .text.USB_EnableGlobalInt
                0x0000000008004c0c        0xc build/stm32f4xx_ll_usb.o
                0x0000000008004c0c                USB_EnableGlobalInt
 .text.USB_DisableGlobalInt
                0x0000000008004c18        0xc build/stm32f4xx_ll_usb.o
                0x0000000008004c18                USB_DisableGlobalInt
 .text.USB_SetCurrentMode
                0x0000000008004c24       0x2c build/stm32f4xx_ll_usb.o
                0x0000000008004c24                USB_SetCurrentMode
 .text.USB_DevInit
                0x0000000008004c50      0x150 build/stm32f4xx_ll_usb.o
                0x0000000008004c50                USB_DevInit
 .text.USB_FlushTxFifo
                0x0000000008004da0       0x28 build/stm32f4xx_ll_usb.o
                0x0000000008004da0                USB_FlushTxFifo
 .text.USB_FlushRxFifo
                0x0000000008004dc8       0x24 build/stm32f4xx_ll_usb.o
                0x0000000008004dc8                USB_FlushRxFifo
 .text.USB_SetDevSpeed
                0x0000000008004dec        0xe build/stm32f4xx_ll_usb.o
                0x0000000008004dec                USB_SetDevSpeed
 .text.USB_GetDevSpeed
                0x0000000008004dfa       0x40 build/stm32f4xx_ll_usb.o
                0x0000000008004dfa                USB_GetDevSpeed
 .text.USB_ActivateEndpoint
                0x0000000008004e3a       0x92 build/stm32f4xx_ll_usb.o
                0x0000000008004e3a                USB_ActivateEndpoint
 .text.USB_DeactivateEndpoint
                0x0000000008004ecc       0xf0 build/stm32f4xx_ll_usb.o
                0x0000000008004ecc                USB_DeactivateEndpoint
 .text.USB_EPStartXfer
                0x0000000008004fbc      0x264 build/stm32f4xx_ll_usb.o
                0x0000000008004fbc                USB_EPStartXfer
 .text.USB_EP0StartXfer
                0x0000000008005220      0x160 build/stm32f4xx_ll_usb.o
                0x0000000008005220                USB_EP0StartXfer
 .text.USB_WritePacket
                0x0000000008005380       0x28 build/stm32f4xx_ll_usb.o
                0x0000000008005380                USB_WritePacket
 .text.USB_ReadPacket
                0x00000000080053a8       0x28 build/stm32f4xx_ll_usb.o
                0x00000000080053a8                USB_ReadPacket
 .text.USB_EPSetStall
                0x00000000080053d0       0x64 build/stm32f4xx_ll_usb.o
                0x00000000080053d0                USB_EPSetStall
 .text.USB_EPClearStall
                0x0000000008005434       0x6a build/stm32f4xx_ll_usb.o
                0x0000000008005434                USB_EPClearStall
 .text.USB_SetDevAddress
                0x000000000800549e       0x20 build/stm32f4xx_ll_usb.o
                0x000000000800549e                USB_SetDevAddress
 .text.USB_DevConnect
                0x00000000080054be       0x18 build/stm32f4xx_ll_usb.o
                0x00000000080054be                USB_DevConnect
 .text.USB_DevDisconnect
                0x00000000080054d6       0x18 build/stm32f4xx_ll_usb.o
                0x00000000080054d6                USB_DevDisconnect
 .text.USB_ReadInterrupts
                0x00000000080054ee        0x8 build/stm32f4xx_ll_usb.o
                0x00000000080054ee                USB_ReadInterrupts
 .text.USB_ReadDevAllOutEpInterrupt
                0x00000000080054f6       0x10 build/stm32f4xx_ll_usb.o
                0x00000000080054f6                USB_ReadDevAllOutEpInterrupt
 .text.USB_ReadDevAllInEpInterrupt
                0x0000000008005506       0x10 build/stm32f4xx_ll_usb.o
                0x0000000008005506                USB_ReadDevAllInEpInterrupt
 .text.USB_ReadDevOutEPInterrupt
                0x0000000008005516       0x12 build/stm32f4xx_ll_usb.o
                0x0000000008005516                USB_ReadDevOutEPInterrupt
 .text.USB_ReadDevInEPInterrupt
                0x0000000008005528       0x1c build/stm32f4xx_ll_usb.o
                0x0000000008005528                USB_ReadDevInEPInterrupt
 .text.USB_GetMode
                0x0000000008005544        0x8 build/stm32f4xx_ll_usb.o
                0x0000000008005544                USB_GetMode
 .text.USB_ActivateSetup
                0x000000000800554c       0x38 build/stm32f4xx_ll_usb.o
                0x000000000800554c                USB_ActivateSetup
 .text.USB_EP0_OutStart
                0x0000000008005584       0x46 build/stm32f4xx_ll_usb.o
                0x0000000008005584                USB_EP0_OutStart
 *fill*         0x00000000080055ca        0x2 
 .text.USB_CoreReset
                0x00000000080055cc       0x3c build/stm32f4xx_ll_usb.o
 .text.USBD_Init
                0x0000000008005608       0x2e build/usbd_core.o
                0x0000000008005608                USBD_Init
 .text.USBD_RegisterClass
                0x0000000008005636        0xe build/usbd_core.o
                0x0000000008005636                USBD_RegisterClass
 .text.USBD_Start
                0x0000000008005644        0xa build/usbd_core.o
                0x0000000008005644                USBD_Start
 .text.USBD_SetClassConfig
                0x000000000800564e       0x1a build/usbd_core.o
                0x000000000800564e                USBD_SetClassConfig
 .text.USBD_ClrClassConfig
                0x0000000008005668        0xe build/usbd_core.o
                0x0000000008005668                USBD_ClrClassConfig
 .text.USBD_LL_SetupStage
                0x0000000008005676       0x5a build/usbd_core.o
                0x0000000008005676                USBD_LL_SetupStage
 .text.USBD_LL_DataOutStage
                0x00000000080056d0       0x6a build/usbd_core.o
                0x00000000080056d0                USBD_LL_DataOutStage
 .text.USBD_LL_DataInStage
                0x000000000800573a       0xb2 build/usbd_core.o
                0x000000000800573a                USBD_LL_DataInStage
 .text.USBD_LL_Reset
                0x00000000080057ec       0x3e build/usbd_core.o
                0x00000000080057ec                USBD_LL_Reset
 .text.USBD_LL_SetSpeed
                0x000000000800582a        0x6 build/usbd_core.o
                0x000000000800582a                USBD_LL_SetSpeed
 .text.USBD_LL_Suspend
                0x0000000008005830       0x12 build/usbd_core.o
                0x0000000008005830                USBD_LL_Suspend
 .text.USBD_LL_Resume
                0x0000000008005842        0xc build/usbd_core.o
                0x0000000008005842                USBD_LL_Resume
 .text.USBD_LL_SOF
                0x000000000800584e       0x1c build/usbd_core.o
                0x000000000800584e                USBD_LL_SOF
 .text.USBD_LL_IsoINIncomplete
                0x000000000800586a        0x4 build/usbd_core.o
                0x000000000800586a                USBD_LL_IsoINIncomplete
 .text.USBD_LL_IsoOUTIncomplete
                0x000000000800586e        0x4 build/usbd_core.o
                0x000000000800586e                USBD_LL_IsoOUTIncomplete
 .text.USBD_LL_DevConnected
                0x0000000008005872        0x4 build/usbd_core.o
                0x0000000008005872                USBD_LL_DevConnected
 .text.USBD_LL_DevDisconnected
                0x0000000008005876       0x16 build/usbd_core.o
                0x0000000008005876                USBD_LL_DevDisconnected
 .text.I2C_IsAcknowledgeFailed
                0x000000000800588c       0x2a build/stm32f4xx_hal_i2c.o
 .text.I2C_WaitOnFlagUntilTimeout
                0x00000000080058b6       0x68 build/stm32f4xx_hal_i2c.o
 .text.I2C_WaitOnMasterAddressFlagUntilTimeout
                0x000000000800591e       0x90 build/stm32f4xx_hal_i2c.o
 *fill*         0x00000000080059ae        0x2 
 .text.I2C_MasterRequestWrite
                0x00000000080059b0       0xbc build/stm32f4xx_hal_i2c.o
 .text.I2C_MasterRequestRead
                0x0000000008005a6c      0x120 build/stm32f4xx_hal_i2c.o
 .text.I2C_WaitOnTXEFlagUntilTimeout
                0x0000000008005b8c       0x4e build/stm32f4xx_hal_i2c.o
 .text.I2C_WaitOnBTFFlagUntilTimeout
                0x0000000008005bda       0x4e build/stm32f4xx_hal_i2c.o
 .text.I2C_WaitOnRXNEFlagUntilTimeout
                0x0000000008005c28       0x5c build/stm32f4xx_hal_i2c.o
 .text.HAL_I2C_Init
                0x0000000008005c84      0x11c build/stm32f4xx_hal_i2c.o
                0x0000000008005c84                HAL_I2C_Init
 .text.HAL_I2C_Master_Transmit
                0x0000000008005da0      0x184 build/stm32f4xx_hal_i2c.o
                0x0000000008005da0                HAL_I2C_Master_Transmit
 .text.HAL_I2C_Master_Receive
                0x0000000008005f24      0x2f4 build/stm32f4xx_hal_i2c.o
                0x0000000008005f24                HAL_I2C_Master_Receive
 .text.MX_USB_DEVICE_Init
                0x0000000008006218       0x38 build/usb_device.o
                0x0000000008006218                MX_USB_DEVICE_Init
 .text.CDC_DeInit_HS
                0x0000000008006250        0x4 build/usbd_cdc_if.o
 .text.CDC_Control_HS
                0x0000000008006254        0x4 build/usbd_cdc_if.o
 .text.CDC_Receive_HS
                0x0000000008006258       0x28 build/usbd_cdc_if.o
 .text.CDC_Init_HS
                0x0000000008006280       0x28 build/usbd_cdc_if.o
 .text.CDC_Transmit_HS
                0x00000000080062a8       0x2c build/usbd_cdc_if.o
                0x00000000080062a8                CDC_Transmit_HS
 .text.USBD_CtlSendData
                0x00000000080062d4       0x1a build/usbd_ioreq.o
                0x00000000080062d4                USBD_CtlSendData
 .text.USBD_CtlContinueSendData
                0x00000000080062ee       0x10 build/usbd_ioreq.o
                0x00000000080062ee                USBD_CtlContinueSendData
 .text.USBD_CtlPrepareRx
                0x00000000080062fe       0x1e build/usbd_ioreq.o
                0x00000000080062fe                USBD_CtlPrepareRx
 .text.USBD_CtlContinueRx
                0x000000000800631c       0x10 build/usbd_ioreq.o
                0x000000000800631c                USBD_CtlContinueRx
 .text.USBD_CtlSendStatus
                0x000000000800632c       0x16 build/usbd_ioreq.o
                0x000000000800632c                USBD_CtlSendStatus
 .text.USBD_CtlReceiveStatus
                0x0000000008006342       0x16 build/usbd_ioreq.o
                0x0000000008006342                USBD_CtlReceiveStatus
 .text.MessageCheck
                0x0000000008006358       0x32 build/riptideFunctions.o
                0x0000000008006358                MessageCheck
 .text.parse    0x000000000800638a       0x44 build/riptideFunctions.o
                0x000000000800638a                parse
 *fill*         0x00000000080063ce        0x2 
 .text.Riptide_CDC_Receive
                0x00000000080063d0       0x80 build/riptideFunctions.o
                0x00000000080063d0                Riptide_CDC_Receive
 .text.crc4     0x0000000008006450       0x56 build/riptideFunctions.o
                0x0000000008006450                crc4
 *fill*         0x00000000080064a6        0x2 
 .text.calculate
                0x00000000080064a8      0x208 build/riptideFunctions.o
                0x00000000080064a8                calculate
 .text.convert  0x00000000080066b0       0x84 build/riptideFunctions.o
                0x00000000080066b0                convert
 .text.riptideMain
                0x0000000008006734       0x74 build/riptideMain.o
                0x0000000008006734                riptideMain
 .text.vHeartbeat
                0x00000000080067a8       0x3c build/riptideThreads.o
                0x00000000080067a8                vHeartbeat
 .text.vSwitchMonitor
                0x00000000080067e4       0xb0 build/riptideThreads.o
                0x00000000080067e4                vSwitchMonitor
 .text.vKillSwitch
                0x0000000008006894       0x38 build/riptideThreads.o
                0x0000000008006894                vKillSwitch
 .text.vDepthSensor
                0x00000000080068cc      0x27c build/riptideThreads.o
                0x00000000080068cc                vDepthSensor
 .text.Reset_Handler
                0x0000000008006b48       0x50 build/startup_stm32f405xx.o
                0x0000000008006b48                Reset_Handler
 .text.Default_Handler
                0x0000000008006b98        0x2 build/startup_stm32f405xx.o
                0x0000000008006b98                DMA1_Stream3_IRQHandler
                0x0000000008006b98                HASH_RNG_IRQHandler
                0x0000000008006b98                EXTI2_IRQHandler
                0x0000000008006b98                TIM8_CC_IRQHandler
                0x0000000008006b98                TIM1_CC_IRQHandler
                0x0000000008006b98                DMA2_Stream5_IRQHandler
                0x0000000008006b98                DMA1_Stream5_IRQHandler
                0x0000000008006b98                PVD_IRQHandler
                0x0000000008006b98                SDIO_IRQHandler
                0x0000000008006b98                TAMP_STAMP_IRQHandler
                0x0000000008006b98                CAN2_RX1_IRQHandler
                0x0000000008006b98                EXTI3_IRQHandler
                0x0000000008006b98                TIM8_TRG_COM_TIM14_IRQHandler
                0x0000000008006b98                TIM8_UP_TIM13_IRQHandler
                0x0000000008006b98                I2C3_ER_IRQHandler
                0x0000000008006b98                EXTI0_IRQHandler
                0x0000000008006b98                I2C2_EV_IRQHandler
                0x0000000008006b98                DMA1_Stream2_IRQHandler
                0x0000000008006b98                CAN1_RX0_IRQHandler
                0x0000000008006b98                FPU_IRQHandler
                0x0000000008006b98                OTG_HS_WKUP_IRQHandler
                0x0000000008006b98                CAN2_SCE_IRQHandler
                0x0000000008006b98                DMA2_Stream2_IRQHandler
                0x0000000008006b98                SPI1_IRQHandler
                0x0000000008006b98                TIM6_DAC_IRQHandler
                0x0000000008006b98                TIM1_BRK_TIM9_IRQHandler
                0x0000000008006b98                CAN2_RX0_IRQHandler
                0x0000000008006b98                DMA2_Stream3_IRQHandler
                0x0000000008006b98                USART6_IRQHandler
                0x0000000008006b98                USART3_IRQHandler
                0x0000000008006b98                CAN1_RX1_IRQHandler
                0x0000000008006b98                UART5_IRQHandler
                0x0000000008006b98                DMA2_Stream0_IRQHandler
                0x0000000008006b98                TIM4_IRQHandler
                0x0000000008006b98                I2C1_EV_IRQHandler
                0x0000000008006b98                DMA1_Stream6_IRQHandler
                0x0000000008006b98                DMA1_Stream1_IRQHandler
                0x0000000008006b98                UART4_IRQHandler
                0x0000000008006b98                TIM3_IRQHandler
                0x0000000008006b98                RCC_IRQHandler
                0x0000000008006b98                TIM8_BRK_TIM12_IRQHandler
                0x0000000008006b98                Default_Handler
                0x0000000008006b98                EXTI15_10_IRQHandler
                0x0000000008006b98                ADC_IRQHandler
                0x0000000008006b98                DMA1_Stream7_IRQHandler
                0x0000000008006b98                TIM7_IRQHandler
                0x0000000008006b98                CAN2_TX_IRQHandler
                0x0000000008006b98                TIM5_IRQHandler
                0x0000000008006b98                DMA2_Stream7_IRQHandler
                0x0000000008006b98                I2C3_EV_IRQHandler
                0x0000000008006b98                EXTI9_5_IRQHandler
                0x0000000008006b98                RTC_WKUP_IRQHandler
                0x0000000008006b98                SPI2_IRQHandler
                0x0000000008006b98                OTG_HS_EP1_IN_IRQHandler
                0x0000000008006b98                DMA1_Stream0_IRQHandler
                0x0000000008006b98                CAN1_TX_IRQHandler
                0x0000000008006b98                EXTI4_IRQHandler
                0x0000000008006b98                FSMC_IRQHandler
                0x0000000008006b98                OTG_HS_EP1_OUT_IRQHandler
                0x0000000008006b98                WWDG_IRQHandler
                0x0000000008006b98                TIM2_IRQHandler
                0x0000000008006b98                OTG_FS_WKUP_IRQHandler
                0x0000000008006b98                TIM1_TRG_COM_TIM11_IRQHandler
                0x0000000008006b98                EXTI1_IRQHandler
                0x0000000008006b98                USART2_IRQHandler
                0x0000000008006b98                I2C2_ER_IRQHandler
                0x0000000008006b98                DMA2_Stream1_IRQHandler
                0x0000000008006b98                CAN1_SCE_IRQHandler
                0x0000000008006b98                FLASH_IRQHandler
                0x0000000008006b98                DMA2_Stream4_IRQHandler
                0x0000000008006b98                USART1_IRQHandler
                0x0000000008006b98                OTG_FS_IRQHandler
                0x0000000008006b98                SPI3_IRQHandler
                0x0000000008006b98                DMA1_Stream4_IRQHandler
                0x0000000008006b98                I2C1_ER_IRQHandler
                0x0000000008006b98                DMA2_Stream6_IRQHandler
                0x0000000008006b98                RTC_Alarm_IRQHandler
 .text.atoi     0x0000000008006b9a        0x8 /Users/augustmason/Documents/gitHub/riptide_firmware/STM32/gcc-arm-none-eabi-6-2017-q2-update/bin/../lib/gcc/arm-none-eabi/6.3.1/../../../../arm-none-eabi/lib/thumb/v7e-m/fpv4-sp/hard/libc_nano.a(lib_a-atoi.o)
                0x0000000008006b9a                atoi
 *fill*         0x0000000008006ba2        0x2 
 .text.gcvt     0x0000000008006ba4       0x58 /Users/augustmason/Documents/gitHub/riptide_firmware/STM32/gcc-arm-none-eabi-6-2017-q2-update/bin/../lib/gcc/arm-none-eabi/6.3.1/../../../../arm-none-eabi/lib/thumb/v7e-m/fpv4-sp/hard/libc_nano.a(lib_a-efgcvt.o)
                0x0000000008006ba4                gcvt
 .text.__libc_init_array
                0x0000000008006bfc       0x48 /Users/augustmason/Documents/gitHub/riptide_firmware/STM32/gcc-arm-none-eabi-6-2017-q2-update/bin/../lib/gcc/arm-none-eabi/6.3.1/../../../../arm-none-eabi/lib/thumb/v7e-m/fpv4-sp/hard/libc_nano.a(lib_a-init.o)
                0x0000000008006bfc                __libc_init_array
 .text.malloc   0x0000000008006c44       0x10 /Users/augustmason/Documents/gitHub/riptide_firmware/STM32/gcc-arm-none-eabi-6-2017-q2-update/bin/../lib/gcc/arm-none-eabi/6.3.1/../../../../arm-none-eabi/lib/thumb/v7e-m/fpv4-sp/hard/libc_nano.a(lib_a-malloc.o)
                0x0000000008006c44                malloc
 .text.free     0x0000000008006c54       0x10 /Users/augustmason/Documents/gitHub/riptide_firmware/STM32/gcc-arm-none-eabi-6-2017-q2-update/bin/../lib/gcc/arm-none-eabi/6.3.1/../../../../arm-none-eabi/lib/thumb/v7e-m/fpv4-sp/hard/libc_nano.a(lib_a-malloc.o)
                0x0000000008006c54                free
 .text.memcpy   0x0000000008006c64       0x16 /Users/augustmason/Documents/gitHub/riptide_firmware/STM32/gcc-arm-none-eabi-6-2017-q2-update/bin/../lib/gcc/arm-none-eabi/6.3.1/../../../../arm-none-eabi/lib/thumb/v7e-m/fpv4-sp/hard/libc_nano.a(lib_a-memcpy-stub.o)
                0x0000000008006c64                memcpy
 .text.memset   0x0000000008006c7a       0x10 /Users/augustmason/Documents/gitHub/riptide_firmware/STM32/gcc-arm-none-eabi-6-2017-q2-update/bin/../lib/gcc/arm-none-eabi/6.3.1/../../../../arm-none-eabi/lib/thumb/v7e-m/fpv4-sp/hard/libc_nano.a(lib_a-memset.o)
                0x0000000008006c7a                memset
 *fill*         0x0000000008006c8a        0x2 
 .text._free_r  0x0000000008006c8c       0x9c /Users/augustmason/Documents/gitHub/riptide_firmware/STM32/gcc-arm-none-eabi-6-2017-q2-update/bin/../lib/gcc/arm-none-eabi/6.3.1/../../../../arm-none-eabi/lib/thumb/v7e-m/fpv4-sp/hard/libc_nano.a(lib_a-nano-freer.o)
                0x0000000008006c8c                _free_r
 .text._malloc_r
                0x0000000008006d28       0xbc /Users/augustmason/Documents/gitHub/riptide_firmware/STM32/gcc-arm-none-eabi-6-2017-q2-update/bin/../lib/gcc/arm-none-eabi/6.3.1/../../../../arm-none-eabi/lib/thumb/v7e-m/fpv4-sp/hard/libc_nano.a(lib_a-nano-mallocr.o)
                0x0000000008006d28                _malloc_r
 .text._sbrk_r  0x0000000008006de4       0x20 /Users/augustmason/Documents/gitHub/riptide_firmware/STM32/gcc-arm-none-eabi-6-2017-q2-update/bin/../lib/gcc/arm-none-eabi/6.3.1/../../../../arm-none-eabi/lib/thumb/v7e-m/fpv4-sp/hard/libc_nano.a(lib_a-sbrkr.o)
                0x0000000008006de4                _sbrk_r
 .text._strtol_l.isra.0
                0x0000000008006e04      0x100 /Users/augustmason/Documents/gitHub/riptide_firmware/STM32/gcc-arm-none-eabi-6-2017-q2-update/bin/../lib/gcc/arm-none-eabi/6.3.1/../../../../arm-none-eabi/lib/thumb/v7e-m/fpv4-sp/hard/libc_nano.a(lib_a-strtol.o)
 .text.strtol   0x0000000008006f04       0x2c /Users/augustmason/Documents/gitHub/riptide_firmware/STM32/gcc-arm-none-eabi-6-2017-q2-update/bin/../lib/gcc/arm-none-eabi/6.3.1/../../../../arm-none-eabi/lib/thumb/v7e-m/fpv4-sp/hard/libc_nano.a(lib_a-strtol.o)
                0x0000000008006f04                strtol
 .text.print_e  0x0000000008006f30       0xe8 /Users/augustmason/Documents/gitHub/riptide_firmware/STM32/gcc-arm-none-eabi-6-2017-q2-update/bin/../lib/gcc/arm-none-eabi/6.3.1/../../../../arm-none-eabi/lib/thumb/v7e-m/fpv4-sp/hard/libc_nano.a(lib_a-ecvtbuf.o)
 .text._gcvt    0x0000000008007018      0x18c /Users/augustmason/Documents/gitHub/riptide_firmware/STM32/gcc-arm-none-eabi-6-2017-q2-update/bin/../lib/gcc/arm-none-eabi/6.3.1/../../../../arm-none-eabi/lib/thumb/v7e-m/fpv4-sp/hard/libc_nano.a(lib_a-ecvtbuf.o)
                0x0000000008007018                _gcvt
 .text.__locale_ctype_ptr_l
                0x00000000080071a4        0x6 /Users/augustmason/Documents/gitHub/riptide_firmware/STM32/gcc-arm-none-eabi-6-2017-q2-update/bin/../lib/gcc/arm-none-eabi/6.3.1/../../../../arm-none-eabi/lib/thumb/v7e-m/fpv4-sp/hard/libc_nano.a(lib_a-locale.o)
                0x00000000080071a4                __locale_ctype_ptr_l
 .text.__ascii_mbtowc
                0x00000000080071aa       0x24 /Users/augustmason/Documents/gitHub/riptide_firmware/STM32/gcc-arm-none-eabi-6-2017-q2-update/bin/../lib/gcc/arm-none-eabi/6.3.1/../../../../arm-none-eabi/lib/thumb/v7e-m/fpv4-sp/hard/libc_nano.a(lib_a-mbtowc_r.o)
                0x00000000080071aa                __ascii_mbtowc
 .text.__malloc_lock
                0x00000000080071ce        0x2 /Users/augustmason/Documents/gitHub/riptide_firmware/STM32/gcc-arm-none-eabi-6-2017-q2-update/bin/../lib/gcc/arm-none-eabi/6.3.1/../../../../arm-none-eabi/lib/thumb/v7e-m/fpv4-sp/hard/libc_nano.a(lib_a-mlock.o)
                0x00000000080071ce                __malloc_lock
 .text.__malloc_unlock
                0x00000000080071d0        0x2 /Users/augustmason/Documents/gitHub/riptide_firmware/STM32/gcc-arm-none-eabi-6-2017-q2-update/bin/../lib/gcc/arm-none-eabi/6.3.1/../../../../arm-none-eabi/lib/thumb/v7e-m/fpv4-sp/hard/libc_nano.a(lib_a-mlock.o)
                0x00000000080071d0                __malloc_unlock
 .text._Balloc  0x00000000080071d2       0x68 /Users/augustmason/Documents/gitHub/riptide_firmware/STM32/gcc-arm-none-eabi-6-2017-q2-update/bin/../lib/gcc/arm-none-eabi/6.3.1/../../../../arm-none-eabi/lib/thumb/v7e-m/fpv4-sp/hard/libc_nano.a(lib_a-mprec.o)
                0x00000000080071d2                _Balloc
 .text._Bfree   0x000000000800723a       0x2e /Users/augustmason/Documents/gitHub/riptide_firmware/STM32/gcc-arm-none-eabi-6-2017-q2-update/bin/../lib/gcc/arm-none-eabi/6.3.1/../../../../arm-none-eabi/lib/thumb/v7e-m/fpv4-sp/hard/libc_nano.a(lib_a-mprec.o)
                0x000000000800723a                _Bfree
 .text.__multadd
                0x0000000008007268       0x76 /Users/augustmason/Documents/gitHub/riptide_firmware/STM32/gcc-arm-none-eabi-6-2017-q2-update/bin/../lib/gcc/arm-none-eabi/6.3.1/../../../../arm-none-eabi/lib/thumb/v7e-m/fpv4-sp/hard/libc_nano.a(lib_a-mprec.o)
                0x0000000008007268                __multadd
 .text.__hi0bits
                0x00000000080072de       0x3e /Users/augustmason/Documents/gitHub/riptide_firmware/STM32/gcc-arm-none-eabi-6-2017-q2-update/bin/../lib/gcc/arm-none-eabi/6.3.1/../../../../arm-none-eabi/lib/thumb/v7e-m/fpv4-sp/hard/libc_nano.a(lib_a-mprec.o)
                0x00000000080072de                __hi0bits
 .text.__lo0bits
                0x000000000800731c       0x5e /Users/augustmason/Documents/gitHub/riptide_firmware/STM32/gcc-arm-none-eabi-6-2017-q2-update/bin/../lib/gcc/arm-none-eabi/6.3.1/../../../../arm-none-eabi/lib/thumb/v7e-m/fpv4-sp/hard/libc_nano.a(lib_a-mprec.o)
                0x000000000800731c                __lo0bits
 .text.__i2b    0x000000000800737a       0x12 /Users/augustmason/Documents/gitHub/riptide_firmware/STM32/gcc-arm-none-eabi-6-2017-q2-update/bin/../lib/gcc/arm-none-eabi/6.3.1/../../../../arm-none-eabi/lib/thumb/v7e-m/fpv4-sp/hard/libc_nano.a(lib_a-mprec.o)
                0x000000000800737a                __i2b
 .text.__multiply
                0x000000000800738c      0x11a /Users/augustmason/Documents/gitHub/riptide_firmware/STM32/gcc-arm-none-eabi-6-2017-q2-update/bin/../lib/gcc/arm-none-eabi/6.3.1/../../../../arm-none-eabi/lib/thumb/v7e-m/fpv4-sp/hard/libc_nano.a(lib_a-mprec.o)
                0x000000000800738c                __multiply
 *fill*         0x00000000080074a6        0x2 
 .text.__pow5mult
                0x00000000080074a8       0x9c /Users/augustmason/Documents/gitHub/riptide_firmware/STM32/gcc-arm-none-eabi-6-2017-q2-update/bin/../lib/gcc/arm-none-eabi/6.3.1/../../../../arm-none-eabi/lib/thumb/v7e-m/fpv4-sp/hard/libc_nano.a(lib_a-mprec.o)
                0x00000000080074a8                __pow5mult
 .text.__lshift
                0x0000000008007544       0xa2 /Users/augustmason/Documents/gitHub/riptide_firmware/STM32/gcc-arm-none-eabi-6-2017-q2-update/bin/../lib/gcc/arm-none-eabi/6.3.1/../../../../arm-none-eabi/lib/thumb/v7e-m/fpv4-sp/hard/libc_nano.a(lib_a-mprec.o)
                0x0000000008007544                __lshift
 .text.__mcmp   0x00000000080075e6       0x34 /Users/augustmason/Documents/gitHub/riptide_firmware/STM32/gcc-arm-none-eabi-6-2017-q2-update/bin/../lib/gcc/arm-none-eabi/6.3.1/../../../../arm-none-eabi/lib/thumb/v7e-m/fpv4-sp/hard/libc_nano.a(lib_a-mprec.o)
                0x00000000080075e6                __mcmp
 .text.__mdiff  0x000000000800761a       0xbc /Users/augustmason/Documents/gitHub/riptide_firmware/STM32/gcc-arm-none-eabi-6-2017-q2-update/bin/../lib/gcc/arm-none-eabi/6.3.1/../../../../arm-none-eabi/lib/thumb/v7e-m/fpv4-sp/hard/libc_nano.a(lib_a-mprec.o)
                0x000000000800761a                __mdiff
 .text.__d2b    0x00000000080076d6       0x9e /Users/augustmason/Documents/gitHub/riptide_firmware/STM32/gcc-arm-none-eabi-6-2017-q2-update/bin/../lib/gcc/arm-none-eabi/6.3.1/../../../../arm-none-eabi/lib/thumb/v7e-m/fpv4-sp/hard/libc_nano.a(lib_a-mprec.o)
                0x00000000080076d6                __d2b
 .text._mprec_log10
                0x0000000008007774       0x3c /Users/augustmason/Documents/gitHub/riptide_firmware/STM32/gcc-arm-none-eabi-6-2017-q2-update/bin/../lib/gcc/arm-none-eabi/6.3.1/../../../../arm-none-eabi/lib/thumb/v7e-m/fpv4-sp/hard/libc_nano.a(lib_a-mprec.o)
                0x0000000008007774                _mprec_log10
 .text._calloc_r
                0x00000000080077b0       0x1c /Users/augustmason/Documents/gitHub/riptide_firmware/STM32/gcc-arm-none-eabi-6-2017-q2-update/bin/../lib/gcc/arm-none-eabi/6.3.1/../../../../arm-none-eabi/lib/thumb/v7e-m/fpv4-sp/hard/libc_nano.a(lib_a-nano-callocr.o)
                0x00000000080077b0                _calloc_r
 .text.strcpy   0x00000000080077cc       0x10 /Users/augustmason/Documents/gitHub/riptide_firmware/STM32/gcc-arm-none-eabi-6-2017-q2-update/bin/../lib/gcc/arm-none-eabi/6.3.1/../../../../arm-none-eabi/lib/thumb/v7e-m/fpv4-sp/hard/libc_nano.a(lib_a-strcpy.o)
                0x00000000080077cc                strcpy
 .text.__ascii_wctomb
                0x00000000080077dc       0x1a /Users/augustmason/Documents/gitHub/riptide_firmware/STM32/gcc-arm-none-eabi-6-2017-q2-update/bin/../lib/gcc/arm-none-eabi/6.3.1/../../../../arm-none-eabi/lib/thumb/v7e-m/fpv4-sp/hard/libc_nano.a(lib_a-wctomb_r.o)
                0x00000000080077dc                __ascii_wctomb
 .text.quorem   0x00000000080077f6      0x118 /Users/augustmason/Documents/gitHub/riptide_firmware/STM32/gcc-arm-none-eabi-6-2017-q2-update/bin/../lib/gcc/arm-none-eabi/6.3.1/../../../../arm-none-eabi/lib/thumb/v7e-m/fpv4-sp/hard/libc_nano.a(lib_a-dtoa.o)
 *fill*         0x000000000800790e        0x2 
 .text._dtoa_r  0x0000000008007910      0xb9c /Users/augustmason/Documents/gitHub/riptide_firmware/STM32/gcc-arm-none-eabi-6-2017-q2-update/bin/../lib/gcc/arm-none-eabi/6.3.1/../../../../arm-none-eabi/lib/thumb/v7e-m/fpv4-sp/hard/libc_nano.a(lib_a-dtoa.o)
                0x0000000008007910                _dtoa_r
 .text._sbrk    0x00000000080084ac       0x1c /Users/augustmason/Documents/gitHub/riptide_firmware/STM32/gcc-arm-none-eabi-6-2017-q2-update/bin/../lib/gcc/arm-none-eabi/6.3.1/../../../../arm-none-eabi/lib/thumb/v7e-m/fpv4-sp/hard/libnosys.a(sbrk.o)
                0x00000000080084ac                _sbrk
 *(.glue_7)
 .glue_7        0x00000000080084c8        0x0 linker stubs
 *(.glue_7t)
 .glue_7t       0x00000000080084c8        0x0 linker stubs
 *(.eh_frame)
 .eh_frame      0x00000000080084c8        0x0 /Users/augustmason/Documents/gitHub/riptide_firmware/STM32/gcc-arm-none-eabi-6-2017-q2-update/bin/../lib/gcc/arm-none-eabi/6.3.1/thumb/v7e-m/fpv4-sp/hard/crtbegin.o
 *(.init)
 .init          0x00000000080084c8        0x4 /Users/augustmason/Documents/gitHub/riptide_firmware/STM32/gcc-arm-none-eabi-6-2017-q2-update/bin/../lib/gcc/arm-none-eabi/6.3.1/thumb/v7e-m/fpv4-sp/hard/crti.o
                0x00000000080084c8                _init
 .init          0x00000000080084cc        0x8 /Users/augustmason/Documents/gitHub/riptide_firmware/STM32/gcc-arm-none-eabi-6-2017-q2-update/bin/../lib/gcc/arm-none-eabi/6.3.1/thumb/v7e-m/fpv4-sp/hard/crtn.o
 *(.fini)
 .fini          0x00000000080084d4        0x4 /Users/augustmason/Documents/gitHub/riptide_firmware/STM32/gcc-arm-none-eabi-6-2017-q2-update/bin/../lib/gcc/arm-none-eabi/6.3.1/thumb/v7e-m/fpv4-sp/hard/crti.o
                0x00000000080084d4                _fini
 .fini          0x00000000080084d8        0x8 /Users/augustmason/Documents/gitHub/riptide_firmware/STM32/gcc-arm-none-eabi-6-2017-q2-update/bin/../lib/gcc/arm-none-eabi/6.3.1/thumb/v7e-m/fpv4-sp/hard/crtn.o
                0x00000000080084e0                . = ALIGN (0x4)
                0x00000000080084e0                _etext = .

.vfp11_veneer   0x00000000080084e0        0x0
 .vfp11_veneer  0x00000000080084e0        0x0 linker stubs

.v4_bx          0x00000000080084e0        0x0
 .v4_bx         0x00000000080084e0        0x0 linker stubs

.iplt           0x00000000080084e0        0x0
 .iplt          0x00000000080084e0        0x0 /Users/augustmason/Documents/gitHub/riptide_firmware/STM32/gcc-arm-none-eabi-6-2017-q2-update/bin/../lib/gcc/arm-none-eabi/6.3.1/thumb/v7e-m/fpv4-sp/hard/crtbegin.o

.rodata         0x00000000080084e0      0x37c
                0x00000000080084e0                . = ALIGN (0x4)
 *(.rodata)
 .rodata        0x00000000080084e0       0x14 build/main.o
 .rodata        0x00000000080084f4        0xf build/riptideThreads.o
 *(.rodata*)
 *fill*         0x0000000008008503        0x1 
 .rodata.MX_TIM2_Init.str1.4
                0x0000000008008504        0xb build/main.o
 *fill*         0x000000000800850f        0x1 
 .rodata.str1.4
                0x0000000008008510        0xc build/main.o
 .rodata.AHBPrescTable
                0x000000000800851c       0x10 build/system_stm32f4xx.o
                0x000000000800851c                AHBPrescTable
 .rodata.APBPrescTable
                0x000000000800852c        0x8 build/system_stm32f4xx.o
                0x000000000800852c                APBPrescTable
 .rodata.USBD_HS_ConfigStrDescriptor.str1.4
                0x0000000008008534        0xb build/usbd_desc.o
 *fill*         0x000000000800853f        0x1 
 .rodata.USBD_HS_InterfaceStrDescriptor.str1.4
                0x0000000008008540        0xe build/usbd_desc.o
 *fill*         0x000000000800854e        0x2 
 .rodata.USBD_HS_ManufacturerStrDescriptor.str1.4
                0x0000000008008550       0x13 build/usbd_desc.o
 *fill*         0x0000000008008563        0x1 
 .rodata.USBD_HS_ProductStrDescriptor.str1.4
                0x0000000008008564        0xc build/usbd_desc.o
 .rodata.USBD_HS_SerialStrDescriptor.str1.4
                0x0000000008008570        0xd build/usbd_desc.o
 *fill*         0x000000000800857d        0x3 
 .rodata.vTaskStartScheduler.str1.4
                0x0000000008008580        0x5 build/tasks.o
 *fill*         0x0000000008008585        0x3 
 .rodata.USBD_LL_Init.str1.4
                0x0000000008008588       0x10 build/usbd_conf.o
 .rodata.Riptide_CDC_Receive.str1.4
                0x0000000008008598       0x32 build/riptideFunctions.o
 *fill*         0x00000000080085ca        0x2 
 .rodata.riptideMain.str1.4
                0x00000000080085cc       0x34 build/riptideMain.o
 .rodata.vDepthSensor.str1.4
                0x0000000008008600       0x34 build/riptideThreads.o
                                         0x38 (size before relaxing)
 .rodata.vHeartbeat.str1.4
                0x0000000008008634        0xc build/riptideThreads.o
 .rodata._setlocale_r.str1.1
                0x0000000008008640        0x8 /Users/augustmason/Documents/gitHub/riptide_firmware/STM32/gcc-arm-none-eabi-6-2017-q2-update/bin/../lib/gcc/arm-none-eabi/6.3.1/../../../../arm-none-eabi/lib/thumb/v7e-m/fpv4-sp/hard/libc_nano.a(lib_a-locale.o)
                                          0x9 (size before relaxing)
 .rodata.str1.1
                0x0000000008008648        0x2 /Users/augustmason/Documents/gitHub/riptide_firmware/STM32/gcc-arm-none-eabi-6-2017-q2-update/bin/../lib/gcc/arm-none-eabi/6.3.1/../../../../arm-none-eabi/lib/thumb/v7e-m/fpv4-sp/hard/libc_nano.a(lib_a-locale.o)
 *fill*         0x000000000800864a        0x6 
 .rodata.__mprec_bigtens
                0x0000000008008650       0x28 /Users/augustmason/Documents/gitHub/riptide_firmware/STM32/gcc-arm-none-eabi-6-2017-q2-update/bin/../lib/gcc/arm-none-eabi/6.3.1/../../../../arm-none-eabi/lib/thumb/v7e-m/fpv4-sp/hard/libc_nano.a(lib_a-mprec.o)
                0x0000000008008650                __mprec_bigtens
 .rodata.__mprec_tens
                0x0000000008008678       0xc8 /Users/augustmason/Documents/gitHub/riptide_firmware/STM32/gcc-arm-none-eabi-6-2017-q2-update/bin/../lib/gcc/arm-none-eabi/6.3.1/../../../../arm-none-eabi/lib/thumb/v7e-m/fpv4-sp/hard/libc_nano.a(lib_a-mprec.o)
                0x0000000008008678                __mprec_tens
 .rodata.p05.7170
                0x0000000008008740        0xc /Users/augustmason/Documents/gitHub/riptide_firmware/STM32/gcc-arm-none-eabi-6-2017-q2-update/bin/../lib/gcc/arm-none-eabi/6.3.1/../../../../arm-none-eabi/lib/thumb/v7e-m/fpv4-sp/hard/libc_nano.a(lib_a-mprec.o)
 .rodata._ctype_
                0x000000000800874c      0x101 /Users/augustmason/Documents/gitHub/riptide_firmware/STM32/gcc-arm-none-eabi-6-2017-q2-update/bin/../lib/gcc/arm-none-eabi/6.3.1/../../../../arm-none-eabi/lib/thumb/v7e-m/fpv4-sp/hard/libc_nano.a(lib_a-ctype_.o)
                0x000000000800874c                _ctype_
 .rodata._dtoa_r.str1.1
                0x000000000800884d        0xf /Users/augustmason/Documents/gitHub/riptide_firmware/STM32/gcc-arm-none-eabi-6-2017-q2-update/bin/../lib/gcc/arm-none-eabi/6.3.1/../../../../arm-none-eabi/lib/thumb/v7e-m/fpv4-sp/hard/libc_nano.a(lib_a-dtoa.o)
                0x000000000800885c                . = ALIGN (0x4)

.ARM.extab
 *(.ARM.extab* .gnu.linkonce.armextab.*)

.ARM            0x000000000800885c        0x8
                0x000000000800885c                __exidx_start = .
 *(.ARM.exidx*)
 .ARM.exidx     0x000000000800885c        0x8 /Users/augustmason/Documents/gitHub/riptide_firmware/STM32/gcc-arm-none-eabi-6-2017-q2-update/bin/../lib/gcc/arm-none-eabi/6.3.1/thumb/v7e-m/fpv4-sp/hard/libgcc.a(_udivmoddi4.o)
                0x0000000008008864                __exidx_end = .

.rel.dyn        0x0000000008008864        0x0
 .rel.iplt      0x0000000008008864        0x0 /Users/augustmason/Documents/gitHub/riptide_firmware/STM32/gcc-arm-none-eabi-6-2017-q2-update/bin/../lib/gcc/arm-none-eabi/6.3.1/thumb/v7e-m/fpv4-sp/hard/crtbegin.o

.preinit_array  0x0000000008008864        0x0
                0x0000000008008864                PROVIDE (__preinit_array_start, .)
 *(.preinit_array*)
                0x0000000008008864                PROVIDE (__preinit_array_end, .)

.init_array     0x0000000008008864        0x4
                0x0000000008008864                PROVIDE (__init_array_start, .)
 *(SORT(.init_array.*))
 *(.init_array*)
 .init_array    0x0000000008008864        0x4 /Users/augustmason/Documents/gitHub/riptide_firmware/STM32/gcc-arm-none-eabi-6-2017-q2-update/bin/../lib/gcc/arm-none-eabi/6.3.1/thumb/v7e-m/fpv4-sp/hard/crtbegin.o
                0x0000000008008868                PROVIDE (__init_array_end, .)

.fini_array     0x0000000008008868        0x4
                [!provide]                        PROVIDE (__fini_array_start, .)
 *(SORT(.fini_array.*))
 *(.fini_array*)
 .fini_array    0x0000000008008868        0x4 /Users/augustmason/Documents/gitHub/riptide_firmware/STM32/gcc-arm-none-eabi-6-2017-q2-update/bin/../lib/gcc/arm-none-eabi/6.3.1/thumb/v7e-m/fpv4-sp/hard/crtbegin.o
                [!provide]                        PROVIDE (__fini_array_end, .)
                0x000000000800886c                _sidata = LOADADDR (.data)

.data           0x0000000020000000      0x32c load address 0x000000000800886c
                0x0000000020000000                . = ALIGN (0x4)
                0x0000000020000000                _sdata = .
 *(.data)
 *(.data*)
 .data.USBD_CDC
                0x0000000020000000       0x38 build/usbd_cdc.o
                0x0000000020000000                USBD_CDC
 .data.USBD_CDC_CfgFSDesc
                0x0000000020000038       0x43 build/usbd_cdc.o
                0x0000000020000038                USBD_CDC_CfgFSDesc
 *fill*         0x000000002000007b        0x1 
 .data.USBD_CDC_CfgHSDesc
                0x000000002000007c       0x43 build/usbd_cdc.o
                0x000000002000007c                USBD_CDC_CfgHSDesc
 *fill*         0x00000000200000bf        0x1 
 .data.USBD_CDC_DeviceQualifierDesc
                0x00000000200000c0        0xa build/usbd_cdc.o
 *fill*         0x00000000200000ca        0x2 
 .data.USBD_CDC_OtherSpeedCfgDesc
                0x00000000200000cc       0x43 build/usbd_cdc.o
                0x00000000200000cc                USBD_CDC_OtherSpeedCfgDesc
 *fill*         0x000000002000010f        0x1 
 .data.SystemCoreClock
                0x0000000020000110        0x4 build/system_stm32f4xx.o
                0x0000000020000110                SystemCoreClock
 .data.HS_Desc  0x0000000020000114       0x1c build/usbd_desc.o
                0x0000000020000114                HS_Desc
 .data.USBD_HS_DeviceDesc
                0x0000000020000130       0x12 build/usbd_desc.o
                0x0000000020000130                USBD_HS_DeviceDesc
 *fill*         0x0000000020000142        0x2 
 .data.USBD_LangIDDesc
                0x0000000020000144        0x4 build/usbd_desc.o
                0x0000000020000144                USBD_LangIDDesc
 .data.uxCriticalNesting
                0x0000000020000148        0x4 build/port.o
 .data.USBD_Interface_fops_HS
                0x000000002000014c       0x10 build/usbd_cdc_if.o
                0x000000002000014c                USBD_Interface_fops_HS
 .data._impure_ptr
                0x000000002000015c        0x4 /Users/augustmason/Documents/gitHub/riptide_firmware/STM32/gcc-arm-none-eabi-6-2017-q2-update/bin/../lib/gcc/arm-none-eabi/6.3.1/../../../../arm-none-eabi/lib/thumb/v7e-m/fpv4-sp/hard/libc_nano.a(lib_a-impure.o)
                0x000000002000015c                _impure_ptr
 .data.impure_data
                0x0000000020000160       0x60 /Users/augustmason/Documents/gitHub/riptide_firmware/STM32/gcc-arm-none-eabi-6-2017-q2-update/bin/../lib/gcc/arm-none-eabi/6.3.1/../../../../arm-none-eabi/lib/thumb/v7e-m/fpv4-sp/hard/libc_nano.a(lib_a-impure.o)
 .data.__global_locale
                0x00000000200001c0      0x16c /Users/augustmason/Documents/gitHub/riptide_firmware/STM32/gcc-arm-none-eabi-6-2017-q2-update/bin/../lib/gcc/arm-none-eabi/6.3.1/../../../../arm-none-eabi/lib/thumb/v7e-m/fpv4-sp/hard/libc_nano.a(lib_a-locale.o)
                0x00000000200001c0                __global_locale
                0x000000002000032c                . = ALIGN (0x4)
                0x000000002000032c                _edata = .
                0x0000000008008b98                _siccmram = LOADADDR (.ccmram)

.jcr            0x000000002000032c        0x0 load address 0x0000000008008b98
 .jcr           0x000000002000032c        0x0 /Users/augustmason/Documents/gitHub/riptide_firmware/STM32/gcc-arm-none-eabi-6-2017-q2-update/bin/../lib/gcc/arm-none-eabi/6.3.1/thumb/v7e-m/fpv4-sp/hard/crtbegin.o

.igot.plt       0x000000002000032c        0x0 load address 0x0000000008008b98
 .igot.plt      0x000000002000032c        0x0 /Users/augustmason/Documents/gitHub/riptide_firmware/STM32/gcc-arm-none-eabi-6-2017-q2-update/bin/../lib/gcc/arm-none-eabi/6.3.1/thumb/v7e-m/fpv4-sp/hard/crtbegin.o

.ccmram         0x0000000010000000        0x0 load address 0x0000000008008b98
                0x0000000010000000                . = ALIGN (0x4)
                0x0000000010000000                _sccmram = .
 *(.ccmram)
 *(.ccmram*)
                0x0000000010000000                . = ALIGN (0x4)
                0x0000000010000000                _eccmram = .
                0x0000000010000000                . = ALIGN (0x4)

.bss            0x000000002000032c     0x57ac
                0x000000002000032c                _sbss = .
                0x000000002000032c                __bss_start__ = _sbss
 *(.bss)
 .bss           0x000000002000032c       0x1c /Users/augustmason/Documents/gitHub/riptide_firmware/STM32/gcc-arm-none-eabi-6-2017-q2-update/bin/../lib/gcc/arm-none-eabi/6.3.1/thumb/v7e-m/fpv4-sp/hard/crtbegin.o
 *(.bss*)
 .bss.ifalt.9960
                0x0000000020000348        0x1 build/usbd_cdc.o
 *fill*         0x0000000020000349        0x3 
 .bss.pxEnd     0x000000002000034c        0x4 build/heap_4.o
 .bss.ucHeap    0x0000000020000350     0x3c00 build/heap_4.o
 .bss.xBlockAllocatedBit
                0x0000000020003f50        0x4 build/heap_4.o
 .bss.xFreeBytesRemaining
                0x0000000020003f54        0x4 build/heap_4.o
 .bss.xMinimumEverFreeBytesRemaining
                0x0000000020003f58        0x4 build/heap_4.o
 .bss.xStart    0x0000000020003f5c        0x8 build/heap_4.o
 .bss.cfgidx.9965
                0x0000000020003f64        0x1 build/usbd_ctlreq.o
 *fill*         0x0000000020003f65        0x3 
 .bss.pxCurrentTCB
                0x0000000020003f68        0x4 build/tasks.o
                0x0000000020003f68                pxCurrentTCB
 .bss.pxDelayedTaskList
                0x0000000020003f6c        0x4 build/tasks.o
 .bss.pxOverflowDelayedTaskList
                0x0000000020003f70        0x4 build/tasks.o
 .bss.pxReadyTasksLists
                0x0000000020003f74       0x8c build/tasks.o
 .bss.uxCurrentNumberOfTasks
                0x0000000020004000        0x4 build/tasks.o
 .bss.uxDeletedTasksWaitingCleanUp
                0x0000000020004004        0x4 build/tasks.o
 .bss.uxPendedTicks
                0x0000000020004008        0x4 build/tasks.o
 .bss.uxSchedulerSuspended
                0x000000002000400c        0x4 build/tasks.o
 .bss.uxTaskNumber
                0x0000000020004010        0x4 build/tasks.o
 .bss.uxTopReadyPriority
                0x0000000020004014        0x4 build/tasks.o
 .bss.xDelayedTaskList1
                0x0000000020004018       0x14 build/tasks.o
 .bss.xDelayedTaskList2
                0x000000002000402c       0x14 build/tasks.o
 .bss.xIdleTaskHandle
                0x0000000020004040        0x4 build/tasks.o
 .bss.xNextTaskUnblockTime
                0x0000000020004044        0x4 build/tasks.o
 .bss.xNumOfOverflows
                0x0000000020004048        0x4 build/tasks.o
 .bss.xPendingReadyList
                0x000000002000404c       0x14 build/tasks.o
 .bss.xSchedulerRunning
                0x0000000020004060        0x4 build/tasks.o
 .bss.xSuspendedTaskList
                0x0000000020004064       0x14 build/tasks.o
 .bss.xTasksWaitingTermination
                0x0000000020004078       0x14 build/tasks.o
 .bss.xTickCount
                0x000000002000408c        0x4 build/tasks.o
 .bss.xYieldPending
                0x0000000020004090        0x4 build/tasks.o
 .bss.ucMaxSysCallPriority
                0x0000000020004094        0x1 build/port.o
 *fill*         0x0000000020004095        0x3 
 .bss.ulMaxPRIGROUPValue
                0x0000000020004098        0x4 build/port.o
 .bss.__malloc_free_list
                0x000000002000409c        0x4 /Users/augustmason/Documents/gitHub/riptide_firmware/STM32/gcc-arm-none-eabi-6-2017-q2-update/bin/../lib/gcc/arm-none-eabi/6.3.1/../../../../arm-none-eabi/lib/thumb/v7e-m/fpv4-sp/hard/libc_nano.a(lib_a-nano-mallocr.o)
                0x000000002000409c                __malloc_free_list
 .bss.__malloc_sbrk_start
                0x00000000200040a0        0x4 /Users/augustmason/Documents/gitHub/riptide_firmware/STM32/gcc-arm-none-eabi-6-2017-q2-update/bin/../lib/gcc/arm-none-eabi/6.3.1/../../../../arm-none-eabi/lib/thumb/v7e-m/fpv4-sp/hard/libc_nano.a(lib_a-nano-mallocr.o)
                0x00000000200040a0                __malloc_sbrk_start
 .bss.heap_end.5239
                0x00000000200040a4        0x4 /Users/augustmason/Documents/gitHub/riptide_firmware/STM32/gcc-arm-none-eabi-6-2017-q2-update/bin/../lib/gcc/arm-none-eabi/6.3.1/../../../../arm-none-eabi/lib/thumb/v7e-m/fpv4-sp/hard/libnosys.a(sbrk.o)
 *(COMMON)
 COMMON         0x00000000200040a8        0x4 build/stm32f4xx_hal.o
                0x00000000200040a8                uwTick
 COMMON         0x00000000200040ac      0x1d8 build/main.o
                0x00000000200040ac                defaultTaskHandle
                0x00000000200040b0                hi2c3
                0x0000000020004104                hi2c1
                0x0000000020004158                htim5
                0x0000000020004194                htim3
                0x00000000200041d0                htim13
                0x000000002000420c                htim2
                0x0000000020004248                htim14
 COMMON         0x0000000020004284      0x200 build/usbd_desc.o
                0x0000000020004284                USBD_StrDesc
 COMMON         0x0000000020004484      0x3f0 build/usbd_conf.o
                0x0000000020004484                hpcd_USB_OTG_HS
 COMMON         0x0000000020004874       0x3c build/stm32f4xx_hal_timebase_TIM.o
                0x0000000020004874                htim1
 COMMON         0x00000000200048b0      0x224 build/usb_device.o
                0x00000000200048b0                hUsbDeviceHS
 COMMON         0x0000000020004ad4     0x1000 build/usbd_cdc_if.o
                0x0000000020004ad4                UserRxBufferHS
                0x00000000200052d4                UserTxBufferHS
 COMMON         0x0000000020005ad4        0x4 /Users/augustmason/Documents/gitHub/riptide_firmware/STM32/gcc-arm-none-eabi-6-2017-q2-update/bin/../lib/gcc/arm-none-eabi/6.3.1/../../../../arm-none-eabi/lib/thumb/v7e-m/fpv4-sp/hard/libc_nano.a(lib_a-reent.o)
                0x0000000020005ad4                errno
                0x0000000020005ad8                . = ALIGN (0x4)
                0x0000000020005ad8                _ebss = .
                0x0000000020005ad8                __bss_end__ = _ebss

._user_heap_stack
                0x0000000020005ad8      0x600
                0x0000000020005ad8                . = ALIGN (0x8)
                0x0000000020005ad8                PROVIDE (end, .)
                [!provide]                        PROVIDE (_end, .)
                0x0000000020005cd8                . = (. + _Min_Heap_Size)
 *fill*         0x0000000020005ad8      0x200 
                0x00000000200060d8                . = (. + _Min_Stack_Size)
 *fill*         0x0000000020005cd8      0x400 
                0x00000000200060d8                . = ALIGN (0x8)

/DISCARD/
 libc.a(*)
 libm.a(*)
 libgcc.a(*)

.ARM.attributes
                0x0000000000000000       0x30
 *(.ARM.attributes)
 .ARM.attributes
                0x0000000000000000       0x22 /Users/augustmason/Documents/gitHub/riptide_firmware/STM32/gcc-arm-none-eabi-6-2017-q2-update/bin/../lib/gcc/arm-none-eabi/6.3.1/thumb/v7e-m/fpv4-sp/hard/crti.o
 .ARM.attributes
                0x0000000000000022       0x34 /Users/augustmason/Documents/gitHub/riptide_firmware/STM32/gcc-arm-none-eabi-6-2017-q2-update/bin/../lib/gcc/arm-none-eabi/6.3.1/thumb/v7e-m/fpv4-sp/hard/crtbegin.o
 .ARM.attributes
                0x0000000000000056       0x39 build/stm32f4xx_hal.o
 .ARM.attributes
                0x000000000000008f       0x39 build/main.o
 .ARM.attributes
                0x00000000000000c8       0x39 build/usbd_cdc.o
 .ARM.attributes
                0x0000000000000101       0x39 build/stm32f4xx_hal_cortex.o
 .ARM.attributes
                0x000000000000013a       0x39 build/list.o
 .ARM.attributes
                0x0000000000000173       0x39 build/stm32f4xx_hal_msp.o
 .ARM.attributes
                0x00000000000001ac       0x39 build/system_stm32f4xx.o
 .ARM.attributes
                0x00000000000001e5       0x39 build/heap_4.o
 .ARM.attributes
                0x000000000000021e       0x39 build/usbd_desc.o
 .ARM.attributes
                0x0000000000000257       0x39 build/stm32f4xx_hal_pcd_ex.o
 .ARM.attributes
                0x0000000000000290       0x39 build/stm32f4xx_hal_rcc.o
 .ARM.attributes
                0x00000000000002c9       0x39 build/cmsis_os.o
 .ARM.attributes
                0x0000000000000302       0x39 build/stm32f4xx_it.o
 .ARM.attributes
                0x000000000000033b       0x39 build/stm32f4xx_hal_pcd.o
 .ARM.attributes
                0x0000000000000374       0x39 build/usbd_ctlreq.o
 .ARM.attributes
                0x00000000000003ad       0x39 build/stm32f4xx_hal_tim_ex.o
 .ARM.attributes
                0x00000000000003e6       0x39 build/tasks.o
 .ARM.attributes
                0x000000000000041f       0x39 build/port.o
 .ARM.attributes
                0x0000000000000458       0x39 build/stm32f4xx_hal_tim.o
 .ARM.attributes
                0x0000000000000491       0x39 build/stm32f4xx_hal_gpio.o
 .ARM.attributes
                0x00000000000004ca       0x39 build/usbd_conf.o
 .ARM.attributes
                0x0000000000000503       0x39 build/stm32f4xx_hal_timebase_TIM.o
 .ARM.attributes
                0x000000000000053c       0x39 build/stm32f4xx_ll_usb.o
 .ARM.attributes
                0x0000000000000575       0x39 build/usbd_core.o
 .ARM.attributes
                0x00000000000005ae       0x39 build/stm32f4xx_hal_i2c.o
 .ARM.attributes
                0x00000000000005e7       0x39 build/usb_device.o
 .ARM.attributes
                0x0000000000000620       0x39 build/usbd_cdc_if.o
 .ARM.attributes
                0x0000000000000659       0x39 build/usbd_ioreq.o
 .ARM.attributes
                0x0000000000000692       0x39 build/riptideFunctions.o
 .ARM.attributes
                0x00000000000006cb       0x39 build/riptideMain.o
 .ARM.attributes
                0x0000000000000704       0x39 build/riptideThreads.o
 .ARM.attributes
                0x000000000000073d       0x21 build/startup_stm32f405xx.o
 .ARM.attributes
                0x000000000000075e       0x34 /Users/augustmason/Documents/gitHub/riptide_firmware/STM32/gcc-arm-none-eabi-6-2017-q2-update/bin/../lib/gcc/arm-none-eabi/6.3.1/../../../../arm-none-eabi/lib/thumb/v7e-m/fpv4-sp/hard/libc_nano.a(lib_a-atoi.o)
 .ARM.attributes
                0x0000000000000792       0x34 /Users/augustmason/Documents/gitHub/riptide_firmware/STM32/gcc-arm-none-eabi-6-2017-q2-update/bin/../lib/gcc/arm-none-eabi/6.3.1/../../../../arm-none-eabi/lib/thumb/v7e-m/fpv4-sp/hard/libc_nano.a(lib_a-efgcvt.o)
 .ARM.attributes
                0x00000000000007c6       0x34 /Users/augustmason/Documents/gitHub/riptide_firmware/STM32/gcc-arm-none-eabi-6-2017-q2-update/bin/../lib/gcc/arm-none-eabi/6.3.1/../../../../arm-none-eabi/lib/thumb/v7e-m/fpv4-sp/hard/libc_nano.a(lib_a-impure.o)
 .ARM.attributes
                0x00000000000007fa       0x34 /Users/augustmason/Documents/gitHub/riptide_firmware/STM32/gcc-arm-none-eabi-6-2017-q2-update/bin/../lib/gcc/arm-none-eabi/6.3.1/../../../../arm-none-eabi/lib/thumb/v7e-m/fpv4-sp/hard/libc_nano.a(lib_a-init.o)
 .ARM.attributes
                0x000000000000082e       0x34 /Users/augustmason/Documents/gitHub/riptide_firmware/STM32/gcc-arm-none-eabi-6-2017-q2-update/bin/../lib/gcc/arm-none-eabi/6.3.1/../../../../arm-none-eabi/lib/thumb/v7e-m/fpv4-sp/hard/libc_nano.a(lib_a-malloc.o)
 .ARM.attributes
                0x0000000000000862       0x34 /Users/augustmason/Documents/gitHub/riptide_firmware/STM32/gcc-arm-none-eabi-6-2017-q2-update/bin/../lib/gcc/arm-none-eabi/6.3.1/../../../../arm-none-eabi/lib/thumb/v7e-m/fpv4-sp/hard/libc_nano.a(lib_a-memcpy-stub.o)
 .ARM.attributes
                0x0000000000000896       0x34 /Users/augustmason/Documents/gitHub/riptide_firmware/STM32/gcc-arm-none-eabi-6-2017-q2-update/bin/../lib/gcc/arm-none-eabi/6.3.1/../../../../arm-none-eabi/lib/thumb/v7e-m/fpv4-sp/hard/libc_nano.a(lib_a-memset.o)
 .ARM.attributes
                0x00000000000008ca       0x34 /Users/augustmason/Documents/gitHub/riptide_firmware/STM32/gcc-arm-none-eabi-6-2017-q2-update/bin/../lib/gcc/arm-none-eabi/6.3.1/../../../../arm-none-eabi/lib/thumb/v7e-m/fpv4-sp/hard/libc_nano.a(lib_a-nano-freer.o)
 .ARM.attributes
                0x00000000000008fe       0x34 /Users/augustmason/Documents/gitHub/riptide_firmware/STM32/gcc-arm-none-eabi-6-2017-q2-update/bin/../lib/gcc/arm-none-eabi/6.3.1/../../../../arm-none-eabi/lib/thumb/v7e-m/fpv4-sp/hard/libc_nano.a(lib_a-nano-mallocr.o)
 .ARM.attributes
                0x0000000000000932       0x34 /Users/augustmason/Documents/gitHub/riptide_firmware/STM32/gcc-arm-none-eabi-6-2017-q2-update/bin/../lib/gcc/arm-none-eabi/6.3.1/../../../../arm-none-eabi/lib/thumb/v7e-m/fpv4-sp/hard/libc_nano.a(lib_a-sbrkr.o)
 .ARM.attributes
                0x0000000000000966       0x1b /Users/augustmason/Documents/gitHub/riptide_firmware/STM32/gcc-arm-none-eabi-6-2017-q2-update/bin/../lib/gcc/arm-none-eabi/6.3.1/../../../../arm-none-eabi/lib/thumb/v7e-m/fpv4-sp/hard/libc_nano.a(lib_a-strlen.o)
 .ARM.attributes
                0x0000000000000981       0x34 /Users/augustmason/Documents/gitHub/riptide_firmware/STM32/gcc-arm-none-eabi-6-2017-q2-update/bin/../lib/gcc/arm-none-eabi/6.3.1/../../../../arm-none-eabi/lib/thumb/v7e-m/fpv4-sp/hard/libc_nano.a(lib_a-strtol.o)
 .ARM.attributes
                0x00000000000009b5       0x34 /Users/augustmason/Documents/gitHub/riptide_firmware/STM32/gcc-arm-none-eabi-6-2017-q2-update/bin/../lib/gcc/arm-none-eabi/6.3.1/../../../../arm-none-eabi/lib/thumb/v7e-m/fpv4-sp/hard/libc_nano.a(lib_a-ecvtbuf.o)
 .ARM.attributes
                0x00000000000009e9       0x34 /Users/augustmason/Documents/gitHub/riptide_firmware/STM32/gcc-arm-none-eabi-6-2017-q2-update/bin/../lib/gcc/arm-none-eabi/6.3.1/../../../../arm-none-eabi/lib/thumb/v7e-m/fpv4-sp/hard/libc_nano.a(lib_a-locale.o)
 .ARM.attributes
                0x0000000000000a1d       0x34 /Users/augustmason/Documents/gitHub/riptide_firmware/STM32/gcc-arm-none-eabi-6-2017-q2-update/bin/../lib/gcc/arm-none-eabi/6.3.1/../../../../arm-none-eabi/lib/thumb/v7e-m/fpv4-sp/hard/libc_nano.a(lib_a-mbtowc_r.o)
 .ARM.attributes
                0x0000000000000a51       0x34 /Users/augustmason/Documents/gitHub/riptide_firmware/STM32/gcc-arm-none-eabi-6-2017-q2-update/bin/../lib/gcc/arm-none-eabi/6.3.1/../../../../arm-none-eabi/lib/thumb/v7e-m/fpv4-sp/hard/libc_nano.a(lib_a-mlock.o)
 .ARM.attributes
                0x0000000000000a85       0x34 /Users/augustmason/Documents/gitHub/riptide_firmware/STM32/gcc-arm-none-eabi-6-2017-q2-update/bin/../lib/gcc/arm-none-eabi/6.3.1/../../../../arm-none-eabi/lib/thumb/v7e-m/fpv4-sp/hard/libc_nano.a(lib_a-mprec.o)
 .ARM.attributes
                0x0000000000000ab9       0x34 /Users/augustmason/Documents/gitHub/riptide_firmware/STM32/gcc-arm-none-eabi-6-2017-q2-update/bin/../lib/gcc/arm-none-eabi/6.3.1/../../../../arm-none-eabi/lib/thumb/v7e-m/fpv4-sp/hard/libc_nano.a(lib_a-nano-callocr.o)
 .ARM.attributes
                0x0000000000000aed       0x34 /Users/augustmason/Documents/gitHub/riptide_firmware/STM32/gcc-arm-none-eabi-6-2017-q2-update/bin/../lib/gcc/arm-none-eabi/6.3.1/../../../../arm-none-eabi/lib/thumb/v7e-m/fpv4-sp/hard/libc_nano.a(lib_a-reent.o)
 .ARM.attributes
                0x0000000000000b21       0x34 /Users/augustmason/Documents/gitHub/riptide_firmware/STM32/gcc-arm-none-eabi-6-2017-q2-update/bin/../lib/gcc/arm-none-eabi/6.3.1/../../../../arm-none-eabi/lib/thumb/v7e-m/fpv4-sp/hard/libc_nano.a(lib_a-strcpy.o)
 .ARM.attributes
                0x0000000000000b55       0x34 /Users/augustmason/Documents/gitHub/riptide_firmware/STM32/gcc-arm-none-eabi-6-2017-q2-update/bin/../lib/gcc/arm-none-eabi/6.3.1/../../../../arm-none-eabi/lib/thumb/v7e-m/fpv4-sp/hard/libc_nano.a(lib_a-wctomb_r.o)
 .ARM.attributes
                0x0000000000000b89       0x34 /Users/augustmason/Documents/gitHub/riptide_firmware/STM32/gcc-arm-none-eabi-6-2017-q2-update/bin/../lib/gcc/arm-none-eabi/6.3.1/../../../../arm-none-eabi/lib/thumb/v7e-m/fpv4-sp/hard/libc_nano.a(lib_a-ctype_.o)
 .ARM.attributes
                0x0000000000000bbd       0x34 /Users/augustmason/Documents/gitHub/riptide_firmware/STM32/gcc-arm-none-eabi-6-2017-q2-update/bin/../lib/gcc/arm-none-eabi/6.3.1/../../../../arm-none-eabi/lib/thumb/v7e-m/fpv4-sp/hard/libc_nano.a(lib_a-dtoa.o)
 .ARM.attributes
                0x0000000000000bf1       0x34 /Users/augustmason/Documents/gitHub/riptide_firmware/STM32/gcc-arm-none-eabi-6-2017-q2-update/bin/../lib/gcc/arm-none-eabi/6.3.1/../../../../arm-none-eabi/lib/thumb/v7e-m/fpv4-sp/hard/libnosys.a(sbrk.o)
 .ARM.attributes
                0x0000000000000c25       0x22 /Users/augustmason/Documents/gitHub/riptide_firmware/STM32/gcc-arm-none-eabi-6-2017-q2-update/bin/../lib/gcc/arm-none-eabi/6.3.1/thumb/v7e-m/fpv4-sp/hard/libgcc.a(_arm_addsubdf3.o)
 .ARM.attributes
                0x0000000000000c47       0x22 /Users/augustmason/Documents/gitHub/riptide_firmware/STM32/gcc-arm-none-eabi-6-2017-q2-update/bin/../lib/gcc/arm-none-eabi/6.3.1/thumb/v7e-m/fpv4-sp/hard/libgcc.a(_arm_muldivdf3.o)
 .ARM.attributes
                0x0000000000000c69       0x22 /Users/augustmason/Documents/gitHub/riptide_firmware/STM32/gcc-arm-none-eabi-6-2017-q2-update/bin/../lib/gcc/arm-none-eabi/6.3.1/thumb/v7e-m/fpv4-sp/hard/libgcc.a(_arm_cmpdf2.o)
 .ARM.attributes
                0x0000000000000c8b       0x22 /Users/augustmason/Documents/gitHub/riptide_firmware/STM32/gcc-arm-none-eabi-6-2017-q2-update/bin/../lib/gcc/arm-none-eabi/6.3.1/thumb/v7e-m/fpv4-sp/hard/libgcc.a(_arm_fixdfsi.o)
 .ARM.attributes
                0x0000000000000cad       0x22 /Users/augustmason/Documents/gitHub/riptide_firmware/STM32/gcc-arm-none-eabi-6-2017-q2-update/bin/../lib/gcc/arm-none-eabi/6.3.1/thumb/v7e-m/fpv4-sp/hard/libgcc.a(_arm_truncdfsf2.o)
 .ARM.attributes
                0x0000000000000ccf       0x22 /Users/augustmason/Documents/gitHub/riptide_firmware/STM32/gcc-arm-none-eabi-6-2017-q2-update/bin/../lib/gcc/arm-none-eabi/6.3.1/thumb/v7e-m/fpv4-sp/hard/libgcc.a(_aeabi_ldivmod.o)
 .ARM.attributes
                0x0000000000000cf1       0x34 /Users/augustmason/Documents/gitHub/riptide_firmware/STM32/gcc-arm-none-eabi-6-2017-q2-update/bin/../lib/gcc/arm-none-eabi/6.3.1/thumb/v7e-m/fpv4-sp/hard/libgcc.a(_udivmoddi4.o)
 .ARM.attributes
                0x0000000000000d25       0x22 /Users/augustmason/Documents/gitHub/riptide_firmware/STM32/gcc-arm-none-eabi-6-2017-q2-update/bin/../lib/gcc/arm-none-eabi/6.3.1/thumb/v7e-m/fpv4-sp/hard/libgcc.a(_dvmd_tls.o)
 .ARM.attributes
                0x0000000000000d47       0x22 /Users/augustmason/Documents/gitHub/riptide_firmware/STM32/gcc-arm-none-eabi-6-2017-q2-update/bin/../lib/gcc/arm-none-eabi/6.3.1/thumb/v7e-m/fpv4-sp/hard/crtn.o
OUTPUT(build/celebrimbor.elf elf32-littlearm)

.debug_info     0x0000000000000000    0x3177e
 .debug_info    0x0000000000000000     0x1334 build/stm32f4xx_hal.o
 .debug_info    0x0000000000001334     0x2bce build/main.o
 .debug_info    0x0000000000003f02     0x174f build/usbd_cdc.o
 .debug_info    0x0000000000005651     0x1908 build/stm32f4xx_hal_cortex.o
 .debug_info    0x0000000000006f59      0xbe3 build/list.o
 .debug_info    0x0000000000007b3c     0x1bd2 build/stm32f4xx_hal_msp.o
 .debug_info    0x000000000000970e      0xe89 build/system_stm32f4xx.o
 .debug_info    0x000000000000a597      0xd82 build/heap_4.o
 .debug_info    0x000000000000b319      0xe8a build/usbd_desc.o
 .debug_info    0x000000000000c1a3      0xf30 build/stm32f4xx_hal_pcd_ex.o
 .debug_info    0x000000000000d0d3     0x16bd build/stm32f4xx_hal_rcc.o
 .debug_info    0x000000000000e790     0x258a build/cmsis_os.o
 .debug_info    0x0000000000010d1a     0x149c build/stm32f4xx_it.o
 .debug_info    0x00000000000121b6     0x1f07 build/stm32f4xx_hal_pcd.o
 .debug_info    0x00000000000140bd     0x1807 build/usbd_ctlreq.o
 .debug_info    0x00000000000158c4     0x1d72 build/stm32f4xx_hal_tim_ex.o
 .debug_info    0x0000000000017636     0x2b39 build/tasks.o
 .debug_info    0x000000000001a16f      0x56e build/port.o
 .debug_info    0x000000000001a6dd     0x3a2f build/stm32f4xx_hal_tim.o
 .debug_info    0x000000000001e10c     0x1113 build/stm32f4xx_hal_gpio.o
 .debug_info    0x000000000001f21f     0x2593 build/usbd_conf.o
 .debug_info    0x00000000000217b2     0x158d build/stm32f4xx_hal_timebase_TIM.o
 .debug_info    0x0000000000022d3f     0x21b2 build/stm32f4xx_ll_usb.o
 .debug_info    0x0000000000024ef1     0x165f build/usbd_core.o
 .debug_info    0x0000000000026550     0x3998 build/stm32f4xx_hal_i2c.o
 .debug_info    0x0000000000029ee8     0x1006 build/usb_device.o
 .debug_info    0x000000000002aeee     0x1269 build/usbd_cdc_if.o
 .debug_info    0x000000000002c157     0x1157 build/usbd_ioreq.o
 .debug_info    0x000000000002d2ae     0x1494 build/riptideFunctions.o
 .debug_info    0x000000000002e742     0x1073 build/riptideMain.o
 .debug_info    0x000000000002f7b5     0x1f48 build/riptideThreads.o
 .debug_info    0x00000000000316fd       0x81 build/startup_stm32f405xx.o

.debug_abbrev   0x0000000000000000     0x5746
 .debug_abbrev  0x0000000000000000      0x343 build/stm32f4xx_hal.o
 .debug_abbrev  0x0000000000000343      0x331 build/main.o
 .debug_abbrev  0x0000000000000674      0x32a build/usbd_cdc.o
 .debug_abbrev  0x000000000000099e      0x3da build/stm32f4xx_hal_cortex.o
 .debug_abbrev  0x0000000000000d78      0x217 build/list.o
 .debug_abbrev  0x0000000000000f8f      0x2bd build/stm32f4xx_hal_msp.o
 .debug_abbrev  0x000000000000124c      0x1e6 build/system_stm32f4xx.o
 .debug_abbrev  0x0000000000001432      0x312 build/heap_4.o
 .debug_abbrev  0x0000000000001744      0x256 build/usbd_desc.o
 .debug_abbrev  0x000000000000199a      0x22d build/stm32f4xx_hal_pcd_ex.o
 .debug_abbrev  0x0000000000001bc7      0x388 build/stm32f4xx_hal_rcc.o
 .debug_abbrev  0x0000000000001f4f      0x3cf build/cmsis_os.o
 .debug_abbrev  0x000000000000231e      0x219 build/stm32f4xx_it.o
 .debug_abbrev  0x0000000000002537      0x34e build/stm32f4xx_hal_pcd.o
 .debug_abbrev  0x0000000000002885      0x323 build/usbd_ctlreq.o
 .debug_abbrev  0x0000000000002ba8      0x2f4 build/stm32f4xx_hal_tim_ex.o
 .debug_abbrev  0x0000000000002e9c      0x3fe build/tasks.o
 .debug_abbrev  0x000000000000329a      0x21f build/port.o
 .debug_abbrev  0x00000000000034b9      0x30c build/stm32f4xx_hal_tim.o
 .debug_abbrev  0x00000000000037c5      0x2bc build/stm32f4xx_hal_gpio.o
 .debug_abbrev  0x0000000000003a81      0x2ea build/usbd_conf.o
 .debug_abbrev  0x0000000000003d6b      0x277 build/stm32f4xx_hal_timebase_TIM.o
 .debug_abbrev  0x0000000000003fe2      0x31e build/stm32f4xx_ll_usb.o
 .debug_abbrev  0x0000000000004300      0x2e0 build/usbd_core.o
 .debug_abbrev  0x00000000000045e0      0x32c build/stm32f4xx_hal_i2c.o
 .debug_abbrev  0x000000000000490c      0x1f8 build/usb_device.o
 .debug_abbrev  0x0000000000004b04      0x2c3 build/usbd_cdc_if.o
 .debug_abbrev  0x0000000000004dc7      0x1f5 build/usbd_ioreq.o
 .debug_abbrev  0x0000000000004fbc      0x2cd build/riptideFunctions.o
 .debug_abbrev  0x0000000000005289      0x1f8 build/riptideMain.o
 .debug_abbrev  0x0000000000005481      0x2b3 build/riptideThreads.o
 .debug_abbrev  0x0000000000005734       0x12 build/startup_stm32f405xx.o

.debug_loc      0x0000000000000000    0x1473b
 .debug_loc     0x0000000000000000      0x129 build/stm32f4xx_hal.o
 .debug_loc     0x0000000000000129      0x2da build/main.o
 .debug_loc     0x0000000000000403      0x5b1 build/usbd_cdc.o
 .debug_loc     0x00000000000009b4      0x65e build/stm32f4xx_hal_cortex.o
 .debug_loc     0x0000000000001012       0x9c build/list.o
 .debug_loc     0x00000000000010ae      0x27c build/stm32f4xx_hal_msp.o
 .debug_loc     0x000000000000132a      0x13e build/system_stm32f4xx.o
 .debug_loc     0x0000000000001468      0x324 build/heap_4.o
 .debug_loc     0x000000000000178c      0x357 build/usbd_desc.o
 .debug_loc     0x0000000000001ae3       0xe3 build/stm32f4xx_hal_pcd_ex.o
 .debug_loc     0x0000000000001bc6      0x643 build/stm32f4xx_hal_rcc.o
 .debug_loc     0x0000000000002209     0x16ee build/cmsis_os.o
 .debug_loc     0x00000000000038f7       0x60 build/stm32f4xx_it.o
 .debug_loc     0x0000000000003957      0xed9 build/stm32f4xx_hal_pcd.o
 .debug_loc     0x0000000000004830      0xd28 build/usbd_ctlreq.o
 .debug_loc     0x0000000000005558     0x1298 build/stm32f4xx_hal_tim_ex.o
 .debug_loc     0x00000000000067f0     0x1a02 build/tasks.o
 .debug_loc     0x00000000000081f2      0x168 build/port.o
 .debug_loc     0x000000000000835a     0x3f30 build/stm32f4xx_hal_tim.o
 .debug_loc     0x000000000000c28a      0x4b9 build/stm32f4xx_hal_gpio.o
 .debug_loc     0x000000000000c743      0xf5f build/usbd_conf.o
 .debug_loc     0x000000000000d6a2       0xae build/stm32f4xx_hal_timebase_TIM.o
 .debug_loc     0x000000000000d750     0x1b56 build/stm32f4xx_ll_usb.o
 .debug_loc     0x000000000000f2a6      0x8a8 build/usbd_core.o
 .debug_loc     0x000000000000fb4e     0x3cd5 build/stm32f4xx_hal_i2c.o
 .debug_loc     0x0000000000013823       0x20 build/usb_device.o
 .debug_loc     0x0000000000013843      0x189 build/usbd_cdc_if.o
 .debug_loc     0x00000000000139cc      0x31c build/usbd_ioreq.o
 .debug_loc     0x0000000000013ce8      0x780 build/riptideFunctions.o
 .debug_loc     0x0000000000014468       0x38 build/riptideMain.o
 .debug_loc     0x00000000000144a0      0x29b build/riptideThreads.o

.debug_aranges  0x0000000000000000     0x16d8
 .debug_aranges
                0x0000000000000000       0xc8 build/stm32f4xx_hal.o
 .debug_aranges
                0x00000000000000c8       0x98 build/main.o
 .debug_aranges
                0x0000000000000160       0x90 build/usbd_cdc.o
 .debug_aranges
                0x00000000000001f0       0xa8 build/stm32f4xx_hal_cortex.o
 .debug_aranges
                0x0000000000000298       0x40 build/list.o
 .debug_aranges
                0x00000000000002d8       0x58 build/stm32f4xx_hal_msp.o
 .debug_aranges
                0x0000000000000330       0x28 build/system_stm32f4xx.o
 .debug_aranges
                0x0000000000000358       0x50 build/heap_4.o
 .debug_aranges
                0x00000000000003a8       0x50 build/usbd_desc.o
 .debug_aranges
                0x00000000000003f8       0x28 build/stm32f4xx_hal_pcd_ex.o
 .debug_aranges
                0x0000000000000420       0x88 build/stm32f4xx_hal_rcc.o
 .debug_aranges
                0x00000000000004a8      0x1d8 build/cmsis_os.o
 .debug_aranges
                0x0000000000000680       0x60 build/stm32f4xx_it.o
 .debug_aranges
                0x00000000000006e0      0x120 build/stm32f4xx_hal_pcd.o
 .debug_aranges
                0x0000000000000800       0x88 build/usbd_ctlreq.o
 .debug_aranges
                0x0000000000000888      0x140 build/stm32f4xx_hal_tim_ex.o
 .debug_aranges
                0x00000000000009c8      0x190 build/tasks.o
 .debug_aranges
                0x0000000000000b58       0x80 build/port.o
 .debug_aranges
                0x0000000000000bd8      0x368 build/stm32f4xx_hal_tim.o
 .debug_aranges
                0x0000000000000f40       0x58 build/stm32f4xx_hal_gpio.o
 .debug_aranges
                0x0000000000000f98       0xf8 build/usbd_conf.o
 .debug_aranges
                0x0000000000001090       0x30 build/stm32f4xx_hal_timebase_TIM.o
 .debug_aranges
                0x00000000000010c0      0x180 build/stm32f4xx_ll_usb.o
 .debug_aranges
                0x0000000000001240       0xb8 build/usbd_core.o
 .debug_aranges
                0x00000000000012f8      0x268 build/stm32f4xx_hal_i2c.o
 .debug_aranges
                0x0000000000001560       0x20 build/usb_device.o
 .debug_aranges
                0x0000000000001580       0x40 build/usbd_cdc_if.o
 .debug_aranges
                0x00000000000015c0       0x50 build/usbd_ioreq.o
 .debug_aranges
                0x0000000000001610       0x48 build/riptideFunctions.o
 .debug_aranges
                0x0000000000001658       0x20 build/riptideMain.o
 .debug_aranges
                0x0000000000001678       0x38 build/riptideThreads.o
 .debug_aranges
                0x00000000000016b0       0x28 build/startup_stm32f405xx.o

.debug_ranges   0x0000000000000000     0x1618
 .debug_ranges  0x0000000000000000       0xb8 build/stm32f4xx_hal.o
 .debug_ranges  0x00000000000000b8       0x88 build/main.o
 .debug_ranges  0x0000000000000140       0x80 build/usbd_cdc.o
 .debug_ranges  0x00000000000001c0       0xf8 build/stm32f4xx_hal_cortex.o
 .debug_ranges  0x00000000000002b8       0x30 build/list.o
 .debug_ranges  0x00000000000002e8       0x48 build/stm32f4xx_hal_msp.o
 .debug_ranges  0x0000000000000330       0x18 build/system_stm32f4xx.o
 .debug_ranges  0x0000000000000348       0x40 build/heap_4.o
 .debug_ranges  0x0000000000000388       0x40 build/usbd_desc.o
 .debug_ranges  0x00000000000003c8       0x18 build/stm32f4xx_hal_pcd_ex.o
 .debug_ranges  0x00000000000003e0       0x78 build/stm32f4xx_hal_rcc.o
 .debug_ranges  0x0000000000000458      0x1c8 build/cmsis_os.o
 .debug_ranges  0x0000000000000620       0x50 build/stm32f4xx_it.o
 .debug_ranges  0x0000000000000670      0x110 build/stm32f4xx_hal_pcd.o
 .debug_ranges  0x0000000000000780       0x78 build/usbd_ctlreq.o
 .debug_ranges  0x00000000000007f8      0x130 build/stm32f4xx_hal_tim_ex.o
 .debug_ranges  0x0000000000000928      0x228 build/tasks.o
 .debug_ranges  0x0000000000000b50       0x88 build/port.o
 .debug_ranges  0x0000000000000bd8      0x358 build/stm32f4xx_hal_tim.o
 .debug_ranges  0x0000000000000f30       0x48 build/stm32f4xx_hal_gpio.o
 .debug_ranges  0x0000000000000f78       0xe8 build/usbd_conf.o
 .debug_ranges  0x0000000000001060       0x20 build/stm32f4xx_hal_timebase_TIM.o
 .debug_ranges  0x0000000000001080      0x170 build/stm32f4xx_ll_usb.o
 .debug_ranges  0x00000000000011f0       0xa8 build/usbd_core.o
 .debug_ranges  0x0000000000001298      0x258 build/stm32f4xx_hal_i2c.o
 .debug_ranges  0x00000000000014f0       0x10 build/usb_device.o
 .debug_ranges  0x0000000000001500       0x30 build/usbd_cdc_if.o
 .debug_ranges  0x0000000000001530       0x40 build/usbd_ioreq.o
 .debug_ranges  0x0000000000001570       0x38 build/riptideFunctions.o
 .debug_ranges  0x00000000000015a8       0x10 build/riptideMain.o
 .debug_ranges  0x00000000000015b8       0x40 build/riptideThreads.o
 .debug_ranges  0x00000000000015f8       0x20 build/startup_stm32f405xx.o

.debug_line     0x0000000000000000     0xc618
 .debug_line    0x0000000000000000      0x4a2 build/stm32f4xx_hal.o
 .debug_line    0x00000000000004a2      0x6d8 build/main.o
 .debug_line    0x0000000000000b7a      0x541 build/usbd_cdc.o
 .debug_line    0x00000000000010bb      0x4f8 build/stm32f4xx_hal_cortex.o
 .debug_line    0x00000000000015b3      0x3b8 build/list.o
 .debug_line    0x000000000000196b      0x451 build/stm32f4xx_hal_msp.o
 .debug_line    0x0000000000001dbc      0x2b3 build/system_stm32f4xx.o
 .debug_line    0x000000000000206f      0x45f build/heap_4.o
 .debug_line    0x00000000000024ce      0x3c9 build/usbd_desc.o
 .debug_line    0x0000000000002897      0x332 build/stm32f4xx_hal_pcd_ex.o
 .debug_line    0x0000000000002bc9      0x649 build/stm32f4xx_hal_rcc.o
 .debug_line    0x0000000000003212      0x956 build/cmsis_os.o
 .debug_line    0x0000000000003b68      0x3d3 build/stm32f4xx_it.o
 .debug_line    0x0000000000003f3b      0x80e build/stm32f4xx_hal_pcd.o
 .debug_line    0x0000000000004749      0x574 build/usbd_ctlreq.o
 .debug_line    0x0000000000004cbd      0x8ce build/stm32f4xx_hal_tim_ex.o
 .debug_line    0x000000000000558b      0xbef build/tasks.o
 .debug_line    0x000000000000617a      0x35b build/port.o
 .debug_line    0x00000000000064d5     0x1443 build/stm32f4xx_hal_tim.o
 .debug_line    0x0000000000007918      0x472 build/stm32f4xx_hal_gpio.o
 .debug_line    0x0000000000007d8a      0x691 build/usbd_conf.o
 .debug_line    0x000000000000841b      0x352 build/stm32f4xx_hal_timebase_TIM.o
 .debug_line    0x000000000000876d      0x95f build/stm32f4xx_ll_usb.o
 .debug_line    0x00000000000090cc      0x570 build/usbd_core.o
 .debug_line    0x000000000000963c     0x14f6 build/stm32f4xx_hal_i2c.o
 .debug_line    0x000000000000ab32      0x3b3 build/usb_device.o
 .debug_line    0x000000000000aee5      0x3f9 build/usbd_cdc_if.o
 .debug_line    0x000000000000b2de      0x3da build/usbd_ioreq.o
 .debug_line    0x000000000000b6b8      0x4d0 build/riptideFunctions.o
 .debug_line    0x000000000000bb88      0x3db build/riptideMain.o
 .debug_line    0x000000000000bf63      0x641 build/riptideThreads.o
 .debug_line    0x000000000000c5a4       0x74 build/startup_stm32f405xx.o

.debug_str      0x0000000000000000     0x6ed7
 .debug_str     0x0000000000000000      0xe1e build/stm32f4xx_hal.o
                                        0xebf (size before relaxing)
 .debug_str     0x0000000000000e1e      0xf39 build/main.o
                                       0x1c4f (size before relaxing)
 .debug_str     0x0000000000001d57      0x338 build/usbd_cdc.o
                                        0xcfb (size before relaxing)
 .debug_str     0x000000000000208f      0x39b build/stm32f4xx_hal_cortex.o
                                       0x1038 (size before relaxing)
 .debug_str     0x000000000000242a      0x163 build/list.o
                                        0x716 (size before relaxing)
 .debug_str     0x000000000000258d       0xb8 build/stm32f4xx_hal_msp.o
                                       0x13e5 (size before relaxing)
 .debug_str     0x0000000000002645       0x53 build/system_stm32f4xx.o
                                        0x78e (size before relaxing)
 .debug_str     0x0000000000002698      0x23a build/heap_4.o
                                        0x7ff (size before relaxing)
 .debug_str     0x00000000000028d2      0x11a build/usbd_desc.o
                                        0x840 (size before relaxing)
 .debug_str     0x00000000000029ec      0x312 build/stm32f4xx_hal_pcd_ex.o
                                        0x9b6 (size before relaxing)
 .debug_str     0x0000000000002cfe      0x14d build/stm32f4xx_hal_rcc.o
                                        0xae4 (size before relaxing)
 .debug_str     0x0000000000002e4b      0x9c7 build/cmsis_os.o
                                       0x11c9 (size before relaxing)
 .debug_str     0x0000000000003812       0xef build/stm32f4xx_it.o
                                        0xdd1 (size before relaxing)
 .debug_str     0x0000000000003901      0x6bb build/stm32f4xx_hal_pcd.o
                                       0x1032 (size before relaxing)
 .debug_str     0x0000000000003fbc      0x1c3 build/usbd_ctlreq.o
                                        0xb9f (size before relaxing)
 .debug_str     0x000000000000417f      0x577 build/stm32f4xx_hal_tim_ex.o
                                       0x10af (size before relaxing)
 .debug_str     0x00000000000046f6      0x8b5 build/tasks.o
                                       0x1211 (size before relaxing)
 .debug_str     0x0000000000004fab      0x175 build/port.o
                                        0x485 (size before relaxing)
 .debug_str     0x0000000000005120      0xb40 build/stm32f4xx_hal_tim.o
                                       0x17ef (size before relaxing)
 .debug_str     0x0000000000005c60      0x120 build/stm32f4xx_hal_gpio.o
                                        0x92a (size before relaxing)
 .debug_str     0x0000000000005d80      0x169 build/usbd_conf.o
                                       0x18a0 (size before relaxing)
 .debug_str     0x0000000000005ee9       0x58 build/stm32f4xx_hal_timebase_TIM.o
                                       0x1178 (size before relaxing)
 .debug_str     0x0000000000005f41      0x3ac build/stm32f4xx_ll_usb.o
                                        0xfda (size before relaxing)
 .debug_str     0x00000000000062ed       0xdb build/usbd_core.o
                                        0xc85 (size before relaxing)
 .debug_str     0x00000000000063c8      0x7ae build/stm32f4xx_hal_i2c.o
                                       0x1370 (size before relaxing)
 .debug_str     0x0000000000006b76       0x28 build/usb_device.o
                                        0xa65 (size before relaxing)
 .debug_str     0x0000000000006b9e       0x8c build/usbd_cdc_if.o
                                        0xb73 (size before relaxing)
 .debug_str     0x0000000000006c2a       0x4e build/usbd_ioreq.o
                                        0xacc (size before relaxing)
 .debug_str     0x0000000000006c78      0x119 build/riptideFunctions.o
                                        0xb97 (size before relaxing)
 .debug_str     0x0000000000006d91       0x50 build/riptideMain.o
                                        0xa6b (size before relaxing)
 .debug_str     0x0000000000006de1       0xf6 build/riptideThreads.o
                                       0x1106 (size before relaxing)

.comment        0x0000000000000000       0x7f
 .comment       0x0000000000000000       0x7f build/stm32f4xx_hal.o
                                         0x80 (size before relaxing)
 .comment       0x000000000000007f       0x80 build/main.o
 .comment       0x000000000000007f       0x80 build/usbd_cdc.o
 .comment       0x000000000000007f       0x80 build/stm32f4xx_hal_cortex.o
 .comment       0x000000000000007f       0x80 build/list.o
 .comment       0x000000000000007f       0x80 build/stm32f4xx_hal_msp.o
 .comment       0x000000000000007f       0x80 build/system_stm32f4xx.o
 .comment       0x000000000000007f       0x80 build/heap_4.o
 .comment       0x000000000000007f       0x80 build/usbd_desc.o
 .comment       0x000000000000007f       0x80 build/stm32f4xx_hal_pcd_ex.o
 .comment       0x000000000000007f       0x80 build/stm32f4xx_hal_rcc.o
 .comment       0x000000000000007f       0x80 build/cmsis_os.o
 .comment       0x000000000000007f       0x80 build/stm32f4xx_it.o
 .comment       0x000000000000007f       0x80 build/stm32f4xx_hal_pcd.o
 .comment       0x000000000000007f       0x80 build/usbd_ctlreq.o
 .comment       0x000000000000007f       0x80 build/stm32f4xx_hal_tim_ex.o
 .comment       0x000000000000007f       0x80 build/tasks.o
 .comment       0x000000000000007f       0x80 build/port.o
 .comment       0x000000000000007f       0x80 build/stm32f4xx_hal_tim.o
 .comment       0x000000000000007f       0x80 build/stm32f4xx_hal_gpio.o
 .comment       0x000000000000007f       0x80 build/usbd_conf.o
 .comment       0x000000000000007f       0x80 build/stm32f4xx_hal_timebase_TIM.o
 .comment       0x000000000000007f       0x80 build/stm32f4xx_ll_usb.o
 .comment       0x000000000000007f       0x80 build/usbd_core.o
 .comment       0x000000000000007f       0x80 build/stm32f4xx_hal_i2c.o
 .comment       0x000000000000007f       0x80 build/usb_device.o
 .comment       0x000000000000007f       0x80 build/usbd_cdc_if.o
 .comment       0x000000000000007f       0x80 build/usbd_ioreq.o
 .comment       0x000000000000007f       0x80 build/riptideFunctions.o
 .comment       0x000000000000007f       0x80 build/riptideMain.o
 .comment       0x000000000000007f       0x80 build/riptideThreads.o

.debug_frame    0x0000000000000000     0x4ef8
 .debug_frame   0x0000000000000000      0x1a8 build/stm32f4xx_hal.o
 .debug_frame   0x00000000000001a8      0x1cc build/main.o
 .debug_frame   0x0000000000000374      0x168 build/usbd_cdc.o
 .debug_frame   0x00000000000004dc      0x16c build/stm32f4xx_hal_cortex.o
 .debug_frame   0x0000000000000648       0x70 build/list.o
 .debug_frame   0x00000000000006b8       0xf8 build/stm32f4xx_hal_msp.o
 .debug_frame   0x00000000000007b0       0x30 build/system_stm32f4xx.o
 .debug_frame   0x00000000000007e0       0xbc build/heap_4.o
 .debug_frame   0x000000000000089c       0xbc build/usbd_desc.o
 .debug_frame   0x0000000000000958       0x40 build/stm32f4xx_hal_pcd_ex.o
 .debug_frame   0x0000000000000998      0x158 build/stm32f4xx_hal_rcc.o
 .debug_frame   0x0000000000000af0      0x62c build/cmsis_os.o
 .debug_frame   0x000000000000111c       0xc4 build/stm32f4xx_it.o
 .debug_frame   0x00000000000011e0      0x338 build/stm32f4xx_hal_pcd.o
 .debug_frame   0x0000000000001518      0x1ac build/usbd_ctlreq.o
 .debug_frame   0x00000000000016c4      0x3f0 build/stm32f4xx_hal_tim_ex.o
 .debug_frame   0x0000000000001ab4      0x588 build/tasks.o
 .debug_frame   0x000000000000203c      0x100 build/port.o
 .debug_frame   0x000000000000213c      0xb18 build/stm32f4xx_hal_tim.o
 .debug_frame   0x0000000000002c54       0xe4 build/stm32f4xx_hal_gpio.o
 .debug_frame   0x0000000000002d38      0x318 build/usbd_conf.o
 .debug_frame   0x0000000000003050       0x54 build/stm32f4xx_hal_timebase_TIM.o
 .debug_frame   0x00000000000030a4      0x4fc build/stm32f4xx_ll_usb.o
 .debug_frame   0x00000000000035a0      0x1ec build/usbd_core.o
 .debug_frame   0x000000000000378c      0x95c build/stm32f4xx_hal_i2c.o
 .debug_frame   0x00000000000040e8       0x2c build/usb_device.o
 .debug_frame   0x0000000000004114       0x88 build/usbd_cdc_if.o
 .debug_frame   0x000000000000419c       0xd4 build/usbd_ioreq.o
 .debug_frame   0x0000000000004270      0x100 build/riptideFunctions.o
 .debug_frame   0x0000000000004370       0x30 build/riptideMain.o
 .debug_frame   0x00000000000043a0       0x8c build/riptideThreads.o
 .debug_frame   0x000000000000442c       0x30 /Users/augustmason/Documents/gitHub/riptide_firmware/STM32/gcc-arm-none-eabi-6-2017-q2-update/bin/../lib/gcc/arm-none-eabi/6.3.1/../../../../arm-none-eabi/lib/thumb/v7e-m/fpv4-sp/hard/libc_nano.a(lib_a-atoi.o)
 .debug_frame   0x000000000000445c       0xcc /Users/augustmason/Documents/gitHub/riptide_firmware/STM32/gcc-arm-none-eabi-6-2017-q2-update/bin/../lib/gcc/arm-none-eabi/6.3.1/../../../../arm-none-eabi/lib/thumb/v7e-m/fpv4-sp/hard/libc_nano.a(lib_a-efgcvt.o)
 .debug_frame   0x0000000000004528       0x2c /Users/augustmason/Documents/gitHub/riptide_firmware/STM32/gcc-arm-none-eabi-6-2017-q2-update/bin/../lib/gcc/arm-none-eabi/6.3.1/../../../../arm-none-eabi/lib/thumb/v7e-m/fpv4-sp/hard/libc_nano.a(lib_a-init.o)
 .debug_frame   0x0000000000004554       0x30 /Users/augustmason/Documents/gitHub/riptide_firmware/STM32/gcc-arm-none-eabi-6-2017-q2-update/bin/../lib/gcc/arm-none-eabi/6.3.1/../../../../arm-none-eabi/lib/thumb/v7e-m/fpv4-sp/hard/libc_nano.a(lib_a-malloc.o)
 .debug_frame   0x0000000000004584       0x28 /Users/augustmason/Documents/gitHub/riptide_firmware/STM32/gcc-arm-none-eabi-6-2017-q2-update/bin/../lib/gcc/arm-none-eabi/6.3.1/../../../../arm-none-eabi/lib/thumb/v7e-m/fpv4-sp/hard/libc_nano.a(lib_a-memcpy-stub.o)
 .debug_frame   0x00000000000045ac       0x20 /Users/augustmason/Documents/gitHub/riptide_firmware/STM32/gcc-arm-none-eabi-6-2017-q2-update/bin/../lib/gcc/arm-none-eabi/6.3.1/../../../../arm-none-eabi/lib/thumb/v7e-m/fpv4-sp/hard/libc_nano.a(lib_a-memset.o)
 .debug_frame   0x00000000000045cc       0x38 /Users/augustmason/Documents/gitHub/riptide_firmware/STM32/gcc-arm-none-eabi-6-2017-q2-update/bin/../lib/gcc/arm-none-eabi/6.3.1/../../../../arm-none-eabi/lib/thumb/v7e-m/fpv4-sp/hard/libc_nano.a(lib_a-nano-freer.o)
 .debug_frame   0x0000000000004604       0x2c /Users/augustmason/Documents/gitHub/riptide_firmware/STM32/gcc-arm-none-eabi-6-2017-q2-update/bin/../lib/gcc/arm-none-eabi/6.3.1/../../../../arm-none-eabi/lib/thumb/v7e-m/fpv4-sp/hard/libc_nano.a(lib_a-nano-mallocr.o)
 .debug_frame   0x0000000000004630       0x2c /Users/augustmason/Documents/gitHub/riptide_firmware/STM32/gcc-arm-none-eabi-6-2017-q2-update/bin/../lib/gcc/arm-none-eabi/6.3.1/../../../../arm-none-eabi/lib/thumb/v7e-m/fpv4-sp/hard/libc_nano.a(lib_a-sbrkr.o)
 .debug_frame   0x000000000000465c       0x88 /Users/augustmason/Documents/gitHub/riptide_firmware/STM32/gcc-arm-none-eabi-6-2017-q2-update/bin/../lib/gcc/arm-none-eabi/6.3.1/../../../../arm-none-eabi/lib/thumb/v7e-m/fpv4-sp/hard/libc_nano.a(lib_a-strtol.o)
 .debug_frame   0x00000000000046e4      0x104 /Users/augustmason/Documents/gitHub/riptide_firmware/STM32/gcc-arm-none-eabi-6-2017-q2-update/bin/../lib/gcc/arm-none-eabi/6.3.1/../../../../arm-none-eabi/lib/thumb/v7e-m/fpv4-sp/hard/libc_nano.a(lib_a-ecvtbuf.o)
 .debug_frame   0x00000000000047e8       0x68 /Users/augustmason/Documents/gitHub/riptide_firmware/STM32/gcc-arm-none-eabi-6-2017-q2-update/bin/../lib/gcc/arm-none-eabi/6.3.1/../../../../arm-none-eabi/lib/thumb/v7e-m/fpv4-sp/hard/libc_nano.a(lib_a-locale.o)
 .debug_frame   0x0000000000004850       0x48 /Users/augustmason/Documents/gitHub/riptide_firmware/STM32/gcc-arm-none-eabi-6-2017-q2-update/bin/../lib/gcc/arm-none-eabi/6.3.1/../../../../arm-none-eabi/lib/thumb/v7e-m/fpv4-sp/hard/libc_nano.a(lib_a-mbtowc_r.o)
 .debug_frame   0x0000000000004898       0x30 /Users/augustmason/Documents/gitHub/riptide_firmware/STM32/gcc-arm-none-eabi-6-2017-q2-update/bin/../lib/gcc/arm-none-eabi/6.3.1/../../../../arm-none-eabi/lib/thumb/v7e-m/fpv4-sp/hard/libc_nano.a(lib_a-mlock.o)
 .debug_frame   0x00000000000048c8      0x240 /Users/augustmason/Documents/gitHub/riptide_firmware/STM32/gcc-arm-none-eabi-6-2017-q2-update/bin/../lib/gcc/arm-none-eabi/6.3.1/../../../../arm-none-eabi/lib/thumb/v7e-m/fpv4-sp/hard/libc_nano.a(lib_a-mprec.o)
 .debug_frame   0x0000000000004b08       0x2c /Users/augustmason/Documents/gitHub/riptide_firmware/STM32/gcc-arm-none-eabi-6-2017-q2-update/bin/../lib/gcc/arm-none-eabi/6.3.1/../../../../arm-none-eabi/lib/thumb/v7e-m/fpv4-sp/hard/libc_nano.a(lib_a-nano-callocr.o)
 .debug_frame   0x0000000000004b34       0x5c /Users/augustmason/Documents/gitHub/riptide_firmware/STM32/gcc-arm-none-eabi-6-2017-q2-update/bin/../lib/gcc/arm-none-eabi/6.3.1/../../../../arm-none-eabi/lib/thumb/v7e-m/fpv4-sp/hard/libc_nano.a(lib_a-reent.o)
 .debug_frame   0x0000000000004b90       0x20 /Users/augustmason/Documents/gitHub/riptide_firmware/STM32/gcc-arm-none-eabi-6-2017-q2-update/bin/../lib/gcc/arm-none-eabi/6.3.1/../../../../arm-none-eabi/lib/thumb/v7e-m/fpv4-sp/hard/libc_nano.a(lib_a-strcpy.o)
 .debug_frame   0x0000000000004bb0       0x3c /Users/augustmason/Documents/gitHub/riptide_firmware/STM32/gcc-arm-none-eabi-6-2017-q2-update/bin/../lib/gcc/arm-none-eabi/6.3.1/../../../../arm-none-eabi/lib/thumb/v7e-m/fpv4-sp/hard/libc_nano.a(lib_a-wctomb_r.o)
 .debug_frame   0x0000000000004bec       0x6c /Users/augustmason/Documents/gitHub/riptide_firmware/STM32/gcc-arm-none-eabi-6-2017-q2-update/bin/../lib/gcc/arm-none-eabi/6.3.1/../../../../arm-none-eabi/lib/thumb/v7e-m/fpv4-sp/hard/libc_nano.a(lib_a-dtoa.o)
 .debug_frame   0x0000000000004c58       0x20 /Users/augustmason/Documents/gitHub/riptide_firmware/STM32/gcc-arm-none-eabi-6-2017-q2-update/bin/../lib/gcc/arm-none-eabi/6.3.1/../../../../arm-none-eabi/lib/thumb/v7e-m/fpv4-sp/hard/libnosys.a(sbrk.o)
 .debug_frame   0x0000000000004c78       0xac /Users/augustmason/Documents/gitHub/riptide_firmware/STM32/gcc-arm-none-eabi-6-2017-q2-update/bin/../lib/gcc/arm-none-eabi/6.3.1/thumb/v7e-m/fpv4-sp/hard/libgcc.a(_arm_addsubdf3.o)
 .debug_frame   0x0000000000004d24       0x50 /Users/augustmason/Documents/gitHub/riptide_firmware/STM32/gcc-arm-none-eabi-6-2017-q2-update/bin/../lib/gcc/arm-none-eabi/6.3.1/thumb/v7e-m/fpv4-sp/hard/libgcc.a(_arm_muldivdf3.o)
 .debug_frame   0x0000000000004d74       0xc4 /Users/augustmason/Documents/gitHub/riptide_firmware/STM32/gcc-arm-none-eabi-6-2017-q2-update/bin/../lib/gcc/arm-none-eabi/6.3.1/thumb/v7e-m/fpv4-sp/hard/libgcc.a(_arm_cmpdf2.o)
 .debug_frame   0x0000000000004e38       0x24 /Users/augustmason/Documents/gitHub/riptide_firmware/STM32/gcc-arm-none-eabi-6-2017-q2-update/bin/../lib/gcc/arm-none-eabi/6.3.1/thumb/v7e-m/fpv4-sp/hard/libgcc.a(_arm_fixdfsi.o)
 .debug_frame   0x0000000000004e5c       0x24 /Users/augustmason/Documents/gitHub/riptide_firmware/STM32/gcc-arm-none-eabi-6-2017-q2-update/bin/../lib/gcc/arm-none-eabi/6.3.1/thumb/v7e-m/fpv4-sp/hard/libgcc.a(_arm_truncdfsf2.o)
 .debug_frame   0x0000000000004e80       0x44 /Users/augustmason/Documents/gitHub/riptide_firmware/STM32/gcc-arm-none-eabi-6-2017-q2-update/bin/../lib/gcc/arm-none-eabi/6.3.1/thumb/v7e-m/fpv4-sp/hard/libgcc.a(_aeabi_ldivmod.o)
 .debug_frame   0x0000000000004ec4       0x34 /Users/augustmason/Documents/gitHub/riptide_firmware/STM32/gcc-arm-none-eabi-6-2017-q2-update/bin/../lib/gcc/arm-none-eabi/6.3.1/thumb/v7e-m/fpv4-sp/hard/libgcc.a(_udivmoddi4.o)

Cross Reference Table

Symbol                                            File
ADC_IRQHandler                                    build/startup_stm32f405xx.o
AHBPrescTable                                     build/system_stm32f4xx.o
                                                  build/stm32f4xx_hal_rcc.o
APBPrescTable                                     build/system_stm32f4xx.o
                                                  build/stm32f4xx_hal_rcc.o
BusFault_Handler                                  build/stm32f4xx_it.o
CAN1_RX0_IRQHandler                               build/startup_stm32f405xx.o
CAN1_RX1_IRQHandler                               build/startup_stm32f405xx.o
CAN1_SCE_IRQHandler                               build/startup_stm32f405xx.o
CAN1_TX_IRQHandler                                build/startup_stm32f405xx.o
CAN2_RX0_IRQHandler                               build/startup_stm32f405xx.o
CAN2_RX1_IRQHandler                               build/startup_stm32f405xx.o
CAN2_SCE_IRQHandler                               build/startup_stm32f405xx.o
CAN2_TX_IRQHandler                                build/startup_stm32f405xx.o
CDC_Transmit_HS                                   build/usbd_cdc_if.o
                                                  build/riptideThreads.o
                                                  build/riptideFunctions.o
DMA1_Stream0_IRQHandler                           build/startup_stm32f405xx.o
DMA1_Stream1_IRQHandler                           build/startup_stm32f405xx.o
DMA1_Stream2_IRQHandler                           build/startup_stm32f405xx.o
DMA1_Stream3_IRQHandler                           build/startup_stm32f405xx.o
DMA1_Stream4_IRQHandler                           build/startup_stm32f405xx.o
DMA1_Stream5_IRQHandler                           build/startup_stm32f405xx.o
DMA1_Stream6_IRQHandler                           build/startup_stm32f405xx.o
DMA1_Stream7_IRQHandler                           build/startup_stm32f405xx.o
DMA2_Stream0_IRQHandler                           build/startup_stm32f405xx.o
DMA2_Stream1_IRQHandler                           build/startup_stm32f405xx.o
DMA2_Stream2_IRQHandler                           build/startup_stm32f405xx.o
DMA2_Stream3_IRQHandler                           build/startup_stm32f405xx.o
DMA2_Stream4_IRQHandler                           build/startup_stm32f405xx.o
DMA2_Stream5_IRQHandler                           build/startup_stm32f405xx.o
DMA2_Stream6_IRQHandler                           build/startup_stm32f405xx.o
DMA2_Stream7_IRQHandler                           build/startup_stm32f405xx.o
DebugMon_Handler                                  build/stm32f4xx_it.o
Default_Handler                                   build/startup_stm32f405xx.o
EXTI0_IRQHandler                                  build/startup_stm32f405xx.o
EXTI15_10_IRQHandler                              build/startup_stm32f405xx.o
EXTI1_IRQHandler                                  build/startup_stm32f405xx.o
EXTI2_IRQHandler                                  build/startup_stm32f405xx.o
EXTI3_IRQHandler                                  build/startup_stm32f405xx.o
EXTI4_IRQHandler                                  build/startup_stm32f405xx.o
EXTI9_5_IRQHandler                                build/startup_stm32f405xx.o
FLASH_Erase_Sector                                build/stm32f4xx_hal_flash_ex.o
                                                  build/stm32f4xx_hal_flash.o
FLASH_FlushCaches                                 build/stm32f4xx_hal_flash_ex.o
                                                  build/stm32f4xx_hal_flash.o
FLASH_IRQHandler                                  build/startup_stm32f405xx.o
FLASH_WaitForLastOperation                        build/stm32f4xx_hal_flash.o
                                                  build/stm32f4xx_hal_flash_ex.o
FPU_IRQHandler                                    build/startup_stm32f405xx.o
FSMC_IRQHandler                                   build/startup_stm32f405xx.o
HAL_DBGMCU_DisableDBGSleepMode                    build/stm32f4xx_hal.o
HAL_DBGMCU_DisableDBGStandbyMode                  build/stm32f4xx_hal.o
HAL_DBGMCU_DisableDBGStopMode                     build/stm32f4xx_hal.o
HAL_DBGMCU_EnableDBGSleepMode                     build/stm32f4xx_hal.o
HAL_DBGMCU_EnableDBGStandbyMode                   build/stm32f4xx_hal.o
HAL_DBGMCU_EnableDBGStopMode                      build/stm32f4xx_hal.o
HAL_DMAEx_ChangeMemory                            build/stm32f4xx_hal_dma_ex.o
HAL_DMAEx_MultiBufferStart                        build/stm32f4xx_hal_dma_ex.o
HAL_DMAEx_MultiBufferStart_IT                     build/stm32f4xx_hal_dma_ex.o
HAL_DMA_Abort                                     build/stm32f4xx_hal_dma.o
                                                  build/stm32f4xx_hal_tim.o
HAL_DMA_Abort_IT                                  build/stm32f4xx_hal_dma.o
                                                  build/stm32f4xx_hal_i2c.o
HAL_DMA_DeInit                                    build/stm32f4xx_hal_dma.o
HAL_DMA_GetError                                  build/stm32f4xx_hal_dma.o
                                                  build/stm32f4xx_hal_i2c.o
HAL_DMA_GetState                                  build/stm32f4xx_hal_dma.o
HAL_DMA_IRQHandler                                build/stm32f4xx_hal_dma.o
HAL_DMA_Init                                      build/stm32f4xx_hal_dma.o
HAL_DMA_PollForTransfer                           build/stm32f4xx_hal_dma.o
HAL_DMA_RegisterCallback                          build/stm32f4xx_hal_dma.o
HAL_DMA_Start                                     build/stm32f4xx_hal_dma.o
HAL_DMA_Start_IT                                  build/stm32f4xx_hal_dma.o
                                                  build/stm32f4xx_hal_i2c.o
                                                  build/stm32f4xx_hal_tim.o
                                                  build/stm32f4xx_hal_tim_ex.o
HAL_DMA_UnRegisterCallback                        build/stm32f4xx_hal_dma.o
HAL_DeInit                                        build/stm32f4xx_hal.o
HAL_Delay                                         build/stm32f4xx_hal.o
                                                  build/stm32f4xx_ll_usb.o
                                                  build/usbd_conf.o
HAL_DisableCompensationCell                       build/stm32f4xx_hal.o
HAL_EnableCompensationCell                        build/stm32f4xx_hal.o
HAL_FLASHEx_Erase                                 build/stm32f4xx_hal_flash_ex.o
HAL_FLASHEx_Erase_IT                              build/stm32f4xx_hal_flash_ex.o
HAL_FLASHEx_OBGetConfig                           build/stm32f4xx_hal_flash_ex.o
HAL_FLASHEx_OBProgram                             build/stm32f4xx_hal_flash_ex.o
HAL_FLASH_EndOfOperationCallback                  build/stm32f4xx_hal_flash.o
HAL_FLASH_GetError                                build/stm32f4xx_hal_flash.o
HAL_FLASH_IRQHandler                              build/stm32f4xx_hal_flash.o
HAL_FLASH_Lock                                    build/stm32f4xx_hal_flash.o
HAL_FLASH_OB_Launch                               build/stm32f4xx_hal_flash.o
HAL_FLASH_OB_Lock                                 build/stm32f4xx_hal_flash.o
HAL_FLASH_OB_Unlock                               build/stm32f4xx_hal_flash.o
HAL_FLASH_OperationErrorCallback                  build/stm32f4xx_hal_flash.o
HAL_FLASH_Program                                 build/stm32f4xx_hal_flash.o
HAL_FLASH_Program_IT                              build/stm32f4xx_hal_flash.o
HAL_FLASH_Unlock                                  build/stm32f4xx_hal_flash.o
HAL_GPIO_DeInit                                   build/stm32f4xx_hal_gpio.o
                                                  build/usbd_conf.o
                                                  build/stm32f4xx_hal_msp.o
HAL_GPIO_EXTI_Callback                            build/stm32f4xx_hal_gpio.o
HAL_GPIO_EXTI_IRQHandler                          build/stm32f4xx_hal_gpio.o
HAL_GPIO_Init                                     build/stm32f4xx_hal_gpio.o
                                                  build/usbd_conf.o
                                                  build/stm32f4xx_hal_rcc.o
                                                  build/stm32f4xx_hal_msp.o
                                                  build/main.o
HAL_GPIO_LockPin                                  build/stm32f4xx_hal_gpio.o
HAL_GPIO_ReadPin                                  build/stm32f4xx_hal_gpio.o
                                                  build/riptideThreads.o
HAL_GPIO_TogglePin                                build/stm32f4xx_hal_gpio.o
                                                  build/riptideThreads.o
                                                  build/riptideFunctions.o
HAL_GPIO_WritePin                                 build/stm32f4xx_hal_gpio.o
                                                  build/riptideThreads.o
                                                  build/main.o
HAL_GetDEVID                                      build/stm32f4xx_hal.o
HAL_GetHalVersion                                 build/stm32f4xx_hal.o
HAL_GetREVID                                      build/stm32f4xx_hal.o
HAL_GetTick                                       build/stm32f4xx_hal.o
                                                  build/stm32f4xx_hal_i2c.o
                                                  build/stm32f4xx_hal_pwr_ex.o
                                                  build/stm32f4xx_hal_rcc_ex.o
                                                  build/stm32f4xx_hal_dma.o
                                                  build/stm32f4xx_hal_flash.o
                                                  build/stm32f4xx_hal_rcc.o
HAL_GetUID                                        build/stm32f4xx_hal.o
HAL_I2C_AbortCpltCallback                         build/stm32f4xx_hal_i2c.o
HAL_I2C_AddrCallback                              build/stm32f4xx_hal_i2c.o
HAL_I2C_DeInit                                    build/stm32f4xx_hal_i2c.o
HAL_I2C_DisableListen_IT                          build/stm32f4xx_hal_i2c.o
HAL_I2C_ER_IRQHandler                             build/stm32f4xx_hal_i2c.o
HAL_I2C_EV_IRQHandler                             build/stm32f4xx_hal_i2c.o
HAL_I2C_EnableListen_IT                           build/stm32f4xx_hal_i2c.o
HAL_I2C_ErrorCallback                             build/stm32f4xx_hal_i2c.o
HAL_I2C_GetError                                  build/stm32f4xx_hal_i2c.o
HAL_I2C_GetMode                                   build/stm32f4xx_hal_i2c.o
HAL_I2C_GetState                                  build/stm32f4xx_hal_i2c.o
HAL_I2C_Init                                      build/stm32f4xx_hal_i2c.o
                                                  build/main.o
HAL_I2C_IsDeviceReady                             build/stm32f4xx_hal_i2c.o
HAL_I2C_ListenCpltCallback                        build/stm32f4xx_hal_i2c.o
HAL_I2C_MasterRxCpltCallback                      build/stm32f4xx_hal_i2c.o
HAL_I2C_MasterTxCpltCallback                      build/stm32f4xx_hal_i2c.o
HAL_I2C_Master_Abort_IT                           build/stm32f4xx_hal_i2c.o
HAL_I2C_Master_Receive                            build/stm32f4xx_hal_i2c.o
                                                  build/riptideThreads.o
HAL_I2C_Master_Receive_DMA                        build/stm32f4xx_hal_i2c.o
HAL_I2C_Master_Receive_IT                         build/stm32f4xx_hal_i2c.o
HAL_I2C_Master_Sequential_Receive_IT              build/stm32f4xx_hal_i2c.o
HAL_I2C_Master_Sequential_Transmit_IT             build/stm32f4xx_hal_i2c.o
HAL_I2C_Master_Transmit                           build/stm32f4xx_hal_i2c.o
                                                  build/riptideThreads.o
HAL_I2C_Master_Transmit_DMA                       build/stm32f4xx_hal_i2c.o
HAL_I2C_Master_Transmit_IT                        build/stm32f4xx_hal_i2c.o
HAL_I2C_MemRxCpltCallback                         build/stm32f4xx_hal_i2c.o
HAL_I2C_MemTxCpltCallback                         build/stm32f4xx_hal_i2c.o
HAL_I2C_Mem_Read                                  build/stm32f4xx_hal_i2c.o
HAL_I2C_Mem_Read_DMA                              build/stm32f4xx_hal_i2c.o
HAL_I2C_Mem_Read_IT                               build/stm32f4xx_hal_i2c.o
HAL_I2C_Mem_Write                                 build/stm32f4xx_hal_i2c.o
HAL_I2C_Mem_Write_DMA                             build/stm32f4xx_hal_i2c.o
HAL_I2C_Mem_Write_IT                              build/stm32f4xx_hal_i2c.o
HAL_I2C_MspDeInit                                 build/stm32f4xx_hal_msp.o
HAL_I2C_MspInit                                   build/stm32f4xx_hal_msp.o
HAL_I2C_SlaveRxCpltCallback                       build/stm32f4xx_hal_i2c.o
HAL_I2C_SlaveTxCpltCallback                       build/stm32f4xx_hal_i2c.o
HAL_I2C_Slave_Receive                             build/stm32f4xx_hal_i2c.o
HAL_I2C_Slave_Receive_DMA                         build/stm32f4xx_hal_i2c.o
HAL_I2C_Slave_Receive_IT                          build/stm32f4xx_hal_i2c.o
HAL_I2C_Slave_Sequential_Receive_IT               build/stm32f4xx_hal_i2c.o
HAL_I2C_Slave_Sequential_Transmit_IT              build/stm32f4xx_hal_i2c.o
HAL_I2C_Slave_Transmit                            build/stm32f4xx_hal_i2c.o
HAL_I2C_Slave_Transmit_DMA                        build/stm32f4xx_hal_i2c.o
HAL_I2C_Slave_Transmit_IT                         build/stm32f4xx_hal_i2c.o
HAL_IncTick                                       build/stm32f4xx_hal.o
                                                  build/main.o
HAL_Init                                          build/stm32f4xx_hal.o
                                                  build/main.o
HAL_InitTick                                      build/stm32f4xx_hal_timebase_TIM.o
                                                  build/stm32f4xx_hal.o
                                                  build/stm32f4xx_hal_rcc.o
HAL_MPU_ConfigRegion                              build/stm32f4xx_hal_cortex.o
HAL_MPU_Disable                                   build/stm32f4xx_hal_cortex.o
HAL_MPU_Enable                                    build/stm32f4xx_hal_cortex.o
HAL_MspDeInit                                     build/stm32f4xx_hal.o
HAL_MspInit                                       build/stm32f4xx_hal_msp.o
                                                  build/stm32f4xx_hal.o
HAL_NVIC_ClearPendingIRQ                          build/stm32f4xx_hal_cortex.o
HAL_NVIC_DisableIRQ                               build/stm32f4xx_hal_cortex.o
                                                  build/usbd_conf.o
HAL_NVIC_EnableIRQ                                build/stm32f4xx_hal_cortex.o
                                                  build/stm32f4xx_hal_timebase_TIM.o
                                                  build/usbd_conf.o
HAL_NVIC_GetActive                                build/stm32f4xx_hal_cortex.o
HAL_NVIC_GetPendingIRQ                            build/stm32f4xx_hal_cortex.o
HAL_NVIC_GetPriority                              build/stm32f4xx_hal_cortex.o
HAL_NVIC_GetPriorityGrouping                      build/stm32f4xx_hal_cortex.o
HAL_NVIC_SetPendingIRQ                            build/stm32f4xx_hal_cortex.o
HAL_NVIC_SetPriority                              build/stm32f4xx_hal_cortex.o
                                                  build/stm32f4xx_hal_timebase_TIM.o
                                                  build/usbd_conf.o
                                                  build/stm32f4xx_hal_msp.o
                                                  build/main.o
                                                  build/stm32f4xx_hal.o
HAL_NVIC_SetPriorityGrouping                      build/stm32f4xx_hal_cortex.o
                                                  build/stm32f4xx_hal_msp.o
                                                  build/stm32f4xx_hal.o
HAL_NVIC_SystemReset                              build/stm32f4xx_hal_cortex.o
HAL_PCDEx_SetRxFiFo                               build/stm32f4xx_hal_pcd_ex.o
                                                  build/usbd_conf.o
HAL_PCDEx_SetTxFiFo                               build/stm32f4xx_hal_pcd_ex.o
                                                  build/usbd_conf.o
HAL_PCD_ActivateRemoteWakeup                      build/stm32f4xx_hal_pcd.o
HAL_PCD_ConnectCallback                           build/usbd_conf.o
                                                  build/stm32f4xx_hal_pcd.o
HAL_PCD_DataInStageCallback                       build/usbd_conf.o
                                                  build/stm32f4xx_hal_pcd.o
HAL_PCD_DataOutStageCallback                      build/usbd_conf.o
                                                  build/stm32f4xx_hal_pcd.o
HAL_PCD_DeActivateRemoteWakeup                    build/stm32f4xx_hal_pcd.o
HAL_PCD_DeInit                                    build/stm32f4xx_hal_pcd.o
                                                  build/usbd_conf.o
HAL_PCD_DevConnect                                build/stm32f4xx_hal_pcd.o
HAL_PCD_DevDisconnect                             build/stm32f4xx_hal_pcd.o
HAL_PCD_DisconnectCallback                        build/usbd_conf.o
                                                  build/stm32f4xx_hal_pcd.o
HAL_PCD_EP_Close                                  build/stm32f4xx_hal_pcd.o
                                                  build/usbd_conf.o
HAL_PCD_EP_ClrStall                               build/stm32f4xx_hal_pcd.o
                                                  build/usbd_conf.o
HAL_PCD_EP_Flush                                  build/stm32f4xx_hal_pcd.o
                                                  build/usbd_conf.o
HAL_PCD_EP_GetRxCount                             build/stm32f4xx_hal_pcd.o
                                                  build/usbd_conf.o
HAL_PCD_EP_Open                                   build/stm32f4xx_hal_pcd.o
                                                  build/usbd_conf.o
HAL_PCD_EP_Receive                                build/stm32f4xx_hal_pcd.o
                                                  build/usbd_conf.o
HAL_PCD_EP_SetStall                               build/stm32f4xx_hal_pcd.o
                                                  build/usbd_conf.o
HAL_PCD_EP_Transmit                               build/stm32f4xx_hal_pcd.o
                                                  build/usbd_conf.o
HAL_PCD_GetState                                  build/stm32f4xx_hal_pcd.o
HAL_PCD_IRQHandler                                build/stm32f4xx_hal_pcd.o
                                                  build/stm32f4xx_it.o
HAL_PCD_ISOINIncompleteCallback                   build/usbd_conf.o
                                                  build/stm32f4xx_hal_pcd.o
HAL_PCD_ISOOUTIncompleteCallback                  build/usbd_conf.o
                                                  build/stm32f4xx_hal_pcd.o
HAL_PCD_Init                                      build/stm32f4xx_hal_pcd.o
                                                  build/usbd_conf.o
HAL_PCD_MspDeInit                                 build/usbd_conf.o
                                                  build/stm32f4xx_hal_pcd.o
HAL_PCD_MspInit                                   build/usbd_conf.o
                                                  build/stm32f4xx_hal_pcd.o
HAL_PCD_ResetCallback                             build/usbd_conf.o
                                                  build/stm32f4xx_hal_pcd.o
HAL_PCD_ResumeCallback                            build/usbd_conf.o
                                                  build/stm32f4xx_hal_pcd.o
HAL_PCD_SOFCallback                               build/usbd_conf.o
                                                  build/stm32f4xx_hal_pcd.o
HAL_PCD_SetAddress                                build/stm32f4xx_hal_pcd.o
                                                  build/usbd_conf.o
HAL_PCD_SetupStageCallback                        build/usbd_conf.o
                                                  build/stm32f4xx_hal_pcd.o
HAL_PCD_Start                                     build/stm32f4xx_hal_pcd.o
                                                  build/usbd_conf.o
HAL_PCD_Stop                                      build/stm32f4xx_hal_pcd.o
                                                  build/usbd_conf.o
HAL_PCD_SuspendCallback                           build/usbd_conf.o
                                                  build/stm32f4xx_hal_pcd.o
HAL_PWREx_ControlVoltageScaling                   build/stm32f4xx_hal_pwr_ex.o
HAL_PWREx_DisableBkUpReg                          build/stm32f4xx_hal_pwr_ex.o
HAL_PWREx_DisableFlashPowerDown                   build/stm32f4xx_hal_pwr_ex.o
HAL_PWREx_EnableBkUpReg                           build/stm32f4xx_hal_pwr_ex.o
HAL_PWREx_EnableFlashPowerDown                    build/stm32f4xx_hal_pwr_ex.o
HAL_PWREx_GetVoltageRange                         build/stm32f4xx_hal_pwr_ex.o
HAL_PWR_ConfigPVD                                 build/stm32f4xx_hal_pwr.o
HAL_PWR_DeInit                                    build/stm32f4xx_hal_pwr.o
HAL_PWR_DisableBkUpAccess                         build/stm32f4xx_hal_pwr.o
HAL_PWR_DisablePVD                                build/stm32f4xx_hal_pwr.o
HAL_PWR_DisableSEVOnPend                          build/stm32f4xx_hal_pwr.o
HAL_PWR_DisableSleepOnExit                        build/stm32f4xx_hal_pwr.o
HAL_PWR_DisableWakeUpPin                          build/stm32f4xx_hal_pwr.o
HAL_PWR_EnableBkUpAccess                          build/stm32f4xx_hal_pwr.o
HAL_PWR_EnablePVD                                 build/stm32f4xx_hal_pwr.o
HAL_PWR_EnableSEVOnPend                           build/stm32f4xx_hal_pwr.o
HAL_PWR_EnableSleepOnExit                         build/stm32f4xx_hal_pwr.o
HAL_PWR_EnableWakeUpPin                           build/stm32f4xx_hal_pwr.o
HAL_PWR_EnterSLEEPMode                            build/stm32f4xx_hal_pwr.o
HAL_PWR_EnterSTANDBYMode                          build/stm32f4xx_hal_pwr.o
HAL_PWR_EnterSTOPMode                             build/stm32f4xx_hal_pwr.o
HAL_PWR_PVDCallback                               build/stm32f4xx_hal_pwr.o
HAL_PWR_PVD_IRQHandler                            build/stm32f4xx_hal_pwr.o
HAL_RCCEx_GetPeriphCLKConfig                      build/stm32f4xx_hal_rcc_ex.o
HAL_RCCEx_GetPeriphCLKFreq                        build/stm32f4xx_hal_rcc_ex.o
HAL_RCCEx_PeriphCLKConfig                         build/stm32f4xx_hal_rcc_ex.o
HAL_RCC_CSSCallback                               build/stm32f4xx_hal_rcc.o
HAL_RCC_ClockConfig                               build/stm32f4xx_hal_rcc.o
                                                  build/main.o
HAL_RCC_DeInit                                    build/stm32f4xx_hal_rcc_ex.o
                                                  build/stm32f4xx_hal_rcc.o
HAL_RCC_DisableCSS                                build/stm32f4xx_hal_rcc.o
HAL_RCC_EnableCSS                                 build/stm32f4xx_hal_rcc.o
HAL_RCC_GetClockConfig                            build/stm32f4xx_hal_rcc.o
                                                  build/stm32f4xx_hal_timebase_TIM.o
HAL_RCC_GetHCLKFreq                               build/stm32f4xx_hal_rcc.o
                                                  build/stm32f4xx_hal_pcd.o
                                                  build/main.o
HAL_RCC_GetOscConfig                              build/stm32f4xx_hal_rcc.o
HAL_RCC_GetPCLK1Freq                              build/stm32f4xx_hal_rcc.o
                                                  build/stm32f4xx_hal_i2c.o
HAL_RCC_GetPCLK2Freq                              build/stm32f4xx_hal_rcc.o
                                                  build/stm32f4xx_hal_timebase_TIM.o
HAL_RCC_GetSysClockFreq                           build/stm32f4xx_hal_rcc.o
HAL_RCC_MCOConfig                                 build/stm32f4xx_hal_rcc.o
HAL_RCC_NMI_IRQHandler                            build/stm32f4xx_hal_rcc.o
HAL_RCC_OscConfig                                 build/stm32f4xx_hal_rcc.o
                                                  build/main.o
HAL_ResumeTick                                    build/stm32f4xx_hal_timebase_TIM.o
                                                  build/stm32f4xx_hal.o
HAL_SYSTICK_CLKSourceConfig                       build/stm32f4xx_hal_cortex.o
                                                  build/main.o
HAL_SYSTICK_Callback                              build/stm32f4xx_hal_cortex.o
HAL_SYSTICK_Config                                build/stm32f4xx_hal_cortex.o
                                                  build/main.o
                                                  build/stm32f4xx_hal.o
HAL_SYSTICK_IRQHandler                            build/stm32f4xx_hal_cortex.o
HAL_SuspendTick                                   build/stm32f4xx_hal_timebase_TIM.o
                                                  build/stm32f4xx_hal.o
HAL_TIMEx_BreakCallback                           build/stm32f4xx_hal_tim_ex.o
                                                  build/stm32f4xx_hal_tim.o
HAL_TIMEx_CommutationCallback                     build/stm32f4xx_hal_tim_ex.o
                                                  build/stm32f4xx_hal_tim.o
HAL_TIMEx_ConfigBreakDeadTime                     build/stm32f4xx_hal_tim_ex.o
HAL_TIMEx_ConfigCommutationEvent                  build/stm32f4xx_hal_tim_ex.o
HAL_TIMEx_ConfigCommutationEvent_DMA              build/stm32f4xx_hal_tim_ex.o
HAL_TIMEx_ConfigCommutationEvent_IT               build/stm32f4xx_hal_tim_ex.o
HAL_TIMEx_HallSensor_DeInit                       build/stm32f4xx_hal_tim_ex.o
HAL_TIMEx_HallSensor_GetState                     build/stm32f4xx_hal_tim_ex.o
HAL_TIMEx_HallSensor_Init                         build/stm32f4xx_hal_tim_ex.o
HAL_TIMEx_HallSensor_MspDeInit                    build/stm32f4xx_hal_tim_ex.o
HAL_TIMEx_HallSensor_MspInit                      build/stm32f4xx_hal_tim_ex.o
HAL_TIMEx_HallSensor_Start                        build/stm32f4xx_hal_tim_ex.o
HAL_TIMEx_HallSensor_Start_DMA                    build/stm32f4xx_hal_tim_ex.o
HAL_TIMEx_HallSensor_Start_IT                     build/stm32f4xx_hal_tim_ex.o
HAL_TIMEx_HallSensor_Stop                         build/stm32f4xx_hal_tim_ex.o
HAL_TIMEx_HallSensor_Stop_DMA                     build/stm32f4xx_hal_tim_ex.o
HAL_TIMEx_HallSensor_Stop_IT                      build/stm32f4xx_hal_tim_ex.o
HAL_TIMEx_MasterConfigSynchronization             build/stm32f4xx_hal_tim_ex.o
                                                  build/main.o
HAL_TIMEx_OCN_Start                               build/stm32f4xx_hal_tim_ex.o
HAL_TIMEx_OCN_Start_DMA                           build/stm32f4xx_hal_tim_ex.o
HAL_TIMEx_OCN_Start_IT                            build/stm32f4xx_hal_tim_ex.o
HAL_TIMEx_OCN_Stop                                build/stm32f4xx_hal_tim_ex.o
HAL_TIMEx_OCN_Stop_DMA                            build/stm32f4xx_hal_tim_ex.o
HAL_TIMEx_OCN_Stop_IT                             build/stm32f4xx_hal_tim_ex.o
HAL_TIMEx_OnePulseN_Start                         build/stm32f4xx_hal_tim_ex.o
HAL_TIMEx_OnePulseN_Start_IT                      build/stm32f4xx_hal_tim_ex.o
HAL_TIMEx_OnePulseN_Stop                          build/stm32f4xx_hal_tim_ex.o
HAL_TIMEx_OnePulseN_Stop_IT                       build/stm32f4xx_hal_tim_ex.o
HAL_TIMEx_PWMN_Start                              build/stm32f4xx_hal_tim_ex.o
HAL_TIMEx_PWMN_Start_DMA                          build/stm32f4xx_hal_tim_ex.o
HAL_TIMEx_PWMN_Start_IT                           build/stm32f4xx_hal_tim_ex.o
HAL_TIMEx_PWMN_Stop                               build/stm32f4xx_hal_tim_ex.o
HAL_TIMEx_PWMN_Stop_DMA                           build/stm32f4xx_hal_tim_ex.o
HAL_TIMEx_PWMN_Stop_IT                            build/stm32f4xx_hal_tim_ex.o
HAL_TIMEx_RemapConfig                             build/stm32f4xx_hal_tim_ex.o
HAL_TIM_Base_DeInit                               build/stm32f4xx_hal_tim.o
HAL_TIM_Base_GetState                             build/stm32f4xx_hal_tim.o
HAL_TIM_Base_Init                                 build/stm32f4xx_hal_tim.o
                                                  build/stm32f4xx_hal_timebase_TIM.o
                                                  build/main.o
HAL_TIM_Base_MspDeInit                            build/stm32f4xx_hal_msp.o
HAL_TIM_Base_MspInit                              build/stm32f4xx_hal_msp.o
HAL_TIM_Base_Start                                build/stm32f4xx_hal_tim.o
HAL_TIM_Base_Start_DMA                            build/stm32f4xx_hal_tim.o
HAL_TIM_Base_Start_IT                             build/stm32f4xx_hal_tim.o
                                                  build/stm32f4xx_hal_timebase_TIM.o
HAL_TIM_Base_Stop                                 build/stm32f4xx_hal_tim.o
HAL_TIM_Base_Stop_DMA                             build/stm32f4xx_hal_tim.o
HAL_TIM_Base_Stop_IT                              build/stm32f4xx_hal_tim.o
HAL_TIM_ConfigClockSource                         build/stm32f4xx_hal_tim.o
HAL_TIM_ConfigOCrefClear                          build/stm32f4xx_hal_tim.o
HAL_TIM_ConfigTI1Input                            build/stm32f4xx_hal_tim.o
HAL_TIM_DMABurst_ReadStart                        build/stm32f4xx_hal_tim.o
HAL_TIM_DMABurst_ReadStop                         build/stm32f4xx_hal_tim.o
HAL_TIM_DMABurst_WriteStart                       build/stm32f4xx_hal_tim.o
HAL_TIM_DMABurst_WriteStop                        build/stm32f4xx_hal_tim.o
HAL_TIM_Encoder_DeInit                            build/stm32f4xx_hal_tim.o
HAL_TIM_Encoder_GetState                          build/stm32f4xx_hal_tim.o
HAL_TIM_Encoder_Init                              build/stm32f4xx_hal_tim.o
HAL_TIM_Encoder_MspDeInit                         build/stm32f4xx_hal_tim.o
HAL_TIM_Encoder_MspInit                           build/stm32f4xx_hal_tim.o
HAL_TIM_Encoder_Start                             build/stm32f4xx_hal_tim.o
HAL_TIM_Encoder_Start_DMA                         build/stm32f4xx_hal_tim.o
HAL_TIM_Encoder_Start_IT                          build/stm32f4xx_hal_tim.o
HAL_TIM_Encoder_Stop                              build/stm32f4xx_hal_tim.o
HAL_TIM_Encoder_Stop_DMA                          build/stm32f4xx_hal_tim.o
HAL_TIM_Encoder_Stop_IT                           build/stm32f4xx_hal_tim.o
HAL_TIM_ErrorCallback                             build/stm32f4xx_hal_tim.o
HAL_TIM_GenerateEvent                             build/stm32f4xx_hal_tim.o
HAL_TIM_IC_CaptureCallback                        build/stm32f4xx_hal_tim.o
HAL_TIM_IC_ConfigChannel                          build/stm32f4xx_hal_tim.o
HAL_TIM_IC_DeInit                                 build/stm32f4xx_hal_tim.o
HAL_TIM_IC_GetState                               build/stm32f4xx_hal_tim.o
HAL_TIM_IC_Init                                   build/stm32f4xx_hal_tim.o
HAL_TIM_IC_MspDeInit                              build/stm32f4xx_hal_tim.o
HAL_TIM_IC_MspInit                                build/stm32f4xx_hal_tim.o
HAL_TIM_IC_Start                                  build/stm32f4xx_hal_tim.o
HAL_TIM_IC_Start_DMA                              build/stm32f4xx_hal_tim.o
HAL_TIM_IC_Start_IT                               build/stm32f4xx_hal_tim.o
HAL_TIM_IC_Stop                                   build/stm32f4xx_hal_tim.o
HAL_TIM_IC_Stop_DMA                               build/stm32f4xx_hal_tim.o
HAL_TIM_IC_Stop_IT                                build/stm32f4xx_hal_tim.o
HAL_TIM_IRQHandler                                build/stm32f4xx_hal_tim.o
                                                  build/stm32f4xx_it.o
HAL_TIM_MspPostInit                               build/stm32f4xx_hal_msp.o
                                                  build/main.o
HAL_TIM_OC_ConfigChannel                          build/stm32f4xx_hal_tim.o
HAL_TIM_OC_DeInit                                 build/stm32f4xx_hal_tim.o
HAL_TIM_OC_DelayElapsedCallback                   build/stm32f4xx_hal_tim.o
HAL_TIM_OC_GetState                               build/stm32f4xx_hal_tim.o
HAL_TIM_OC_Init                                   build/stm32f4xx_hal_tim.o
HAL_TIM_OC_MspDeInit                              build/stm32f4xx_hal_tim.o
HAL_TIM_OC_MspInit                                build/stm32f4xx_hal_tim.o
HAL_TIM_OC_Start                                  build/stm32f4xx_hal_tim.o
HAL_TIM_OC_Start_DMA                              build/stm32f4xx_hal_tim.o
HAL_TIM_OC_Start_IT                               build/stm32f4xx_hal_tim.o
HAL_TIM_OC_Stop                                   build/stm32f4xx_hal_tim.o
HAL_TIM_OC_Stop_DMA                               build/stm32f4xx_hal_tim.o
HAL_TIM_OC_Stop_IT                                build/stm32f4xx_hal_tim.o
HAL_TIM_OnePulse_ConfigChannel                    build/stm32f4xx_hal_tim.o
HAL_TIM_OnePulse_DeInit                           build/stm32f4xx_hal_tim.o
HAL_TIM_OnePulse_GetState                         build/stm32f4xx_hal_tim.o
HAL_TIM_OnePulse_Init                             build/stm32f4xx_hal_tim.o
HAL_TIM_OnePulse_MspDeInit                        build/stm32f4xx_hal_tim.o
HAL_TIM_OnePulse_MspInit                          build/stm32f4xx_hal_tim.o
HAL_TIM_OnePulse_Start                            build/stm32f4xx_hal_tim.o
HAL_TIM_OnePulse_Start_IT                         build/stm32f4xx_hal_tim.o
HAL_TIM_OnePulse_Stop                             build/stm32f4xx_hal_tim.o
HAL_TIM_OnePulse_Stop_IT                          build/stm32f4xx_hal_tim.o
HAL_TIM_PWM_ConfigChannel                         build/stm32f4xx_hal_tim.o
                                                  build/main.o
HAL_TIM_PWM_DeInit                                build/stm32f4xx_hal_tim.o
HAL_TIM_PWM_GetState                              build/stm32f4xx_hal_tim.o
HAL_TIM_PWM_Init                                  build/stm32f4xx_hal_tim.o
                                                  build/main.o
HAL_TIM_PWM_MspDeInit                             build/stm32f4xx_hal_msp.o
HAL_TIM_PWM_MspInit                               build/stm32f4xx_hal_msp.o
HAL_TIM_PWM_PulseFinishedCallback                 build/stm32f4xx_hal_tim.o
HAL_TIM_PWM_Start                                 build/stm32f4xx_hal_tim.o
                                                  build/main.o
HAL_TIM_PWM_Start_DMA                             build/stm32f4xx_hal_tim.o
HAL_TIM_PWM_Start_IT                              build/stm32f4xx_hal_tim.o
HAL_TIM_PWM_Stop                                  build/stm32f4xx_hal_tim.o
HAL_TIM_PWM_Stop_DMA                              build/stm32f4xx_hal_tim.o
HAL_TIM_PWM_Stop_IT                               build/stm32f4xx_hal_tim.o
HAL_TIM_PeriodElapsedCallback                     build/main.o
HAL_TIM_ReadCapturedValue                         build/stm32f4xx_hal_tim.o
HAL_TIM_SlaveConfigSynchronization                build/stm32f4xx_hal_tim.o
HAL_TIM_SlaveConfigSynchronization_IT             build/stm32f4xx_hal_tim.o
HAL_TIM_TriggerCallback                           build/stm32f4xx_hal_tim.o
HASH_RNG_IRQHandler                               build/startup_stm32f405xx.o
HS_Desc                                           build/usbd_desc.o
                                                  build/usb_device.o
HardFault_Handler                                 build/stm32f4xx_it.o
I2C1_ER_IRQHandler                                build/startup_stm32f405xx.o
I2C1_EV_IRQHandler                                build/startup_stm32f405xx.o
I2C2_ER_IRQHandler                                build/startup_stm32f405xx.o
I2C2_EV_IRQHandler                                build/startup_stm32f405xx.o
I2C3_ER_IRQHandler                                build/startup_stm32f405xx.o
I2C3_EV_IRQHandler                                build/startup_stm32f405xx.o
MX_USB_DEVICE_Init                                build/usb_device.o
                                                  build/main.o
MemManage_Handler                                 build/stm32f4xx_it.o
MessageCheck                                      build/riptideFunctions.o
NMI_Handler                                       build/stm32f4xx_it.o
OTG_FS_IRQHandler                                 build/startup_stm32f405xx.o
OTG_FS_WKUP_IRQHandler                            build/startup_stm32f405xx.o
OTG_HS_EP1_IN_IRQHandler                          build/startup_stm32f405xx.o
OTG_HS_EP1_OUT_IRQHandler                         build/startup_stm32f405xx.o
OTG_HS_IRQHandler                                 build/stm32f4xx_it.o
OTG_HS_WKUP_IRQHandler                            build/startup_stm32f405xx.o
PVD_IRQHandler                                    build/startup_stm32f405xx.o
PendSV_Handler                                    build/port.o
RCC_IRQHandler                                    build/startup_stm32f405xx.o
RTC_Alarm_IRQHandler                              build/startup_stm32f405xx.o
RTC_WKUP_IRQHandler                               build/startup_stm32f405xx.o
Reset_Handler                                     build/startup_stm32f405xx.o
Riptide_CDC_Receive                               build/riptideFunctions.o
                                                  build/usbd_cdc_if.o
SDIO_IRQHandler                                   build/startup_stm32f405xx.o
SPI1_IRQHandler                                   build/startup_stm32f405xx.o
SPI2_IRQHandler                                   build/startup_stm32f405xx.o
SPI3_IRQHandler                                   build/startup_stm32f405xx.o
SVC_Handler                                       build/port.o
StartDefaultTask                                  build/main.o
SysTick_Handler                                   build/stm32f4xx_it.o
SystemClock_Config                                build/main.o
SystemCoreClock                                   build/system_stm32f4xx.o
                                                  build/stm32f4xx_hal_i2c.o
                                                  build/stm32f4xx_hal_rcc_ex.o
                                                  build/stm32f4xx_hal_dma.o
                                                  build/port.o
                                                  build/stm32f4xx_hal_rcc.o
                                                  build/stm32f4xx_hal.o
SystemCoreClockUpdate                             build/system_stm32f4xx.o
SystemInit                                        build/system_stm32f4xx.o
                                                  build/startup_stm32f405xx.o
TAMP_STAMP_IRQHandler                             build/startup_stm32f405xx.o
TIM1_BRK_TIM9_IRQHandler                          build/startup_stm32f405xx.o
TIM1_CC_IRQHandler                                build/startup_stm32f405xx.o
TIM1_TRG_COM_TIM11_IRQHandler                     build/startup_stm32f405xx.o
TIM1_UP_TIM10_IRQHandler                          build/stm32f4xx_it.o
TIM2_IRQHandler                                   build/startup_stm32f405xx.o
TIM3_IRQHandler                                   build/startup_stm32f405xx.o
TIM4_IRQHandler                                   build/startup_stm32f405xx.o
TIM5_IRQHandler                                   build/startup_stm32f405xx.o
TIM6_DAC_IRQHandler                               build/startup_stm32f405xx.o
TIM7_IRQHandler                                   build/startup_stm32f405xx.o
TIM8_BRK_TIM12_IRQHandler                         build/startup_stm32f405xx.o
TIM8_CC_IRQHandler                                build/startup_stm32f405xx.o
TIM8_TRG_COM_TIM14_IRQHandler                     build/startup_stm32f405xx.o
TIM8_UP_TIM13_IRQHandler                          build/startup_stm32f405xx.o
TIMEx_DMACommutationCplt                          build/stm32f4xx_hal_tim_ex.o
                                                  build/stm32f4xx_hal_tim.o
TIM_Base_SetConfig                                build/stm32f4xx_hal_tim.o
                                                  build/stm32f4xx_hal_tim_ex.o
TIM_CCxChannelCmd                                 build/stm32f4xx_hal_tim.o
                                                  build/stm32f4xx_hal_tim_ex.o
TIM_DMACaptureCplt                                build/stm32f4xx_hal_tim.o
                                                  build/stm32f4xx_hal_tim_ex.o
TIM_DMADelayPulseCplt                             build/stm32f4xx_hal_tim.o
                                                  build/stm32f4xx_hal_tim_ex.o
TIM_DMAError                                      build/stm32f4xx_hal_tim.o
                                                  build/stm32f4xx_hal_tim_ex.o
TIM_OC2_SetConfig                                 build/stm32f4xx_hal_tim.o
                                                  build/stm32f4xx_hal_tim_ex.o
TIM_TI1_SetConfig                                 build/stm32f4xx_hal_tim.o
                                                  build/stm32f4xx_hal_tim_ex.o
UART4_IRQHandler                                  build/startup_stm32f405xx.o
UART5_IRQHandler                                  build/startup_stm32f405xx.o
USART1_IRQHandler                                 build/startup_stm32f405xx.o
USART2_IRQHandler                                 build/startup_stm32f405xx.o
USART3_IRQHandler                                 build/startup_stm32f405xx.o
USART6_IRQHandler                                 build/startup_stm32f405xx.o
USBD_CDC                                          build/usbd_cdc.o
                                                  build/usb_device.o
USBD_CDC_CfgFSDesc                                build/usbd_cdc.o
USBD_CDC_CfgHSDesc                                build/usbd_cdc.o
USBD_CDC_GetDeviceQualifierDescriptor             build/usbd_cdc.o
USBD_CDC_OtherSpeedCfgDesc                        build/usbd_cdc.o
USBD_CDC_ReceivePacket                            build/usbd_cdc.o
                                                  build/usbd_cdc_if.o
USBD_CDC_RegisterInterface                        build/usbd_cdc.o
                                                  build/usb_device.o
USBD_CDC_SetRxBuffer                              build/usbd_cdc.o
                                                  build/usbd_cdc_if.o
USBD_CDC_SetTxBuffer                              build/usbd_cdc.o
                                                  build/usbd_cdc_if.o
USBD_CDC_TransmitPacket                           build/usbd_cdc.o
                                                  build/usbd_cdc_if.o
USBD_ClrClassConfig                               build/usbd_core.o
                                                  build/usbd_ctlreq.o
USBD_CtlContinueRx                                build/usbd_ioreq.o
                                                  build/usbd_core.o
USBD_CtlContinueSendData                          build/usbd_ioreq.o
                                                  build/usbd_core.o
USBD_CtlError                                     build/usbd_ctlreq.o
USBD_CtlPrepareRx                                 build/usbd_ioreq.o
                                                  build/usbd_cdc.o
USBD_CtlReceiveStatus                             build/usbd_ioreq.o
                                                  build/usbd_core.o
USBD_CtlSendData                                  build/usbd_ioreq.o
                                                  build/usbd_ctlreq.o
                                                  build/usbd_cdc.o
USBD_CtlSendStatus                                build/usbd_ioreq.o
                                                  build/usbd_core.o
                                                  build/usbd_ctlreq.o
USBD_DeInit                                       build/usbd_core.o
USBD_GetRxCount                                   build/usbd_ioreq.o
USBD_GetString                                    build/usbd_ctlreq.o
                                                  build/usbd_desc.o
USBD_HS_ConfigStrDescriptor                       build/usbd_desc.o
USBD_HS_DeviceDesc                                build/usbd_desc.o
USBD_HS_DeviceDescriptor                          build/usbd_desc.o
USBD_HS_InterfaceStrDescriptor                    build/usbd_desc.o
USBD_HS_LangIDStrDescriptor                       build/usbd_desc.o
USBD_HS_ManufacturerStrDescriptor                 build/usbd_desc.o
USBD_HS_ProductStrDescriptor                      build/usbd_desc.o
USBD_HS_SerialStrDescriptor                       build/usbd_desc.o
USBD_Init                                         build/usbd_core.o
                                                  build/usb_device.o
USBD_Interface_fops_HS                            build/usbd_cdc_if.o
                                                  build/usb_device.o
USBD_LL_ClearStallEP                              build/usbd_conf.o
                                                  build/usbd_ctlreq.o
USBD_LL_CloseEP                                   build/usbd_conf.o
                                                  build/usbd_cdc.o
USBD_LL_DataInStage                               build/usbd_core.o
                                                  build/usbd_conf.o
USBD_LL_DataOutStage                              build/usbd_core.o
                                                  build/usbd_conf.o
USBD_LL_DeInit                                    build/usbd_conf.o
                                                  build/usbd_core.o
USBD_LL_Delay                                     build/usbd_conf.o
USBD_LL_DevConnected                              build/usbd_core.o
                                                  build/usbd_conf.o
USBD_LL_DevDisconnected                           build/usbd_core.o
                                                  build/usbd_conf.o
USBD_LL_FlushEP                                   build/usbd_conf.o
USBD_LL_GetRxDataSize                             build/usbd_conf.o
                                                  build/usbd_ioreq.o
                                                  build/usbd_cdc.o
USBD_LL_Init                                      build/usbd_conf.o
                                                  build/usbd_core.o
USBD_LL_IsStallEP                                 build/usbd_conf.o
                                                  build/usbd_ctlreq.o
USBD_LL_IsoINIncomplete                           build/usbd_core.o
                                                  build/usbd_conf.o
USBD_LL_IsoOUTIncomplete                          build/usbd_core.o
                                                  build/usbd_conf.o
USBD_LL_OpenEP                                    build/usbd_conf.o
                                                  build/usbd_core.o
                                                  build/usbd_cdc.o
USBD_LL_PrepareReceive                            build/usbd_conf.o
                                                  build/usbd_ioreq.o
                                                  build/usbd_core.o
                                                  build/usbd_cdc.o
USBD_LL_Reset                                     build/usbd_core.o
                                                  build/usbd_conf.o
USBD_LL_Resume                                    build/usbd_core.o
                                                  build/usbd_conf.o
USBD_LL_SOF                                       build/usbd_core.o
                                                  build/usbd_conf.o
USBD_LL_SetSpeed                                  build/usbd_core.o
                                                  build/usbd_conf.o
USBD_LL_SetUSBAddress                             build/usbd_conf.o
                                                  build/usbd_ctlreq.o
USBD_LL_SetupStage                                build/usbd_core.o
                                                  build/usbd_conf.o
USBD_LL_StallEP                                   build/usbd_conf.o
                                                  build/usbd_core.o
                                                  build/usbd_ctlreq.o
USBD_LL_Start                                     build/usbd_conf.o
                                                  build/usbd_core.o
USBD_LL_Stop                                      build/usbd_conf.o
                                                  build/usbd_core.o
USBD_LL_Suspend                                   build/usbd_core.o
                                                  build/usbd_conf.o
USBD_LL_Transmit                                  build/usbd_conf.o
                                                  build/usbd_ioreq.o
                                                  build/usbd_cdc.o
USBD_LangIDDesc                                   build/usbd_desc.o
USBD_ParseSetupRequest                            build/usbd_ctlreq.o
                                                  build/usbd_core.o
USBD_RegisterClass                                build/usbd_core.o
                                                  build/usb_device.o
USBD_RunTestMode                                  build/usbd_core.o
USBD_SetClassConfig                               build/usbd_core.o
                                                  build/usbd_ctlreq.o
USBD_Start                                        build/usbd_core.o
                                                  build/usb_device.o
USBD_StdDevReq                                    build/usbd_ctlreq.o
                                                  build/usbd_core.o
USBD_StdEPReq                                     build/usbd_ctlreq.o
                                                  build/usbd_core.o
USBD_StdItfReq                                    build/usbd_ctlreq.o
                                                  build/usbd_core.o
USBD_Stop                                         build/usbd_core.o
USBD_StrDesc                                      build/usbd_desc.o
USB_ActivateDedicatedEndpoint                     build/stm32f4xx_ll_usb.o
USB_ActivateEndpoint                              build/stm32f4xx_ll_usb.o
                                                  build/stm32f4xx_hal_pcd.o
USB_ActivateSetup                                 build/stm32f4xx_ll_usb.o
                                                  build/stm32f4xx_hal_pcd.o
USB_ClearInterrupts                               build/stm32f4xx_ll_usb.o
USB_CoreInit                                      build/stm32f4xx_ll_usb.o
                                                  build/stm32f4xx_hal_pcd.o
USB_DeactivateDedicatedEndpoint                   build/stm32f4xx_ll_usb.o
USB_DeactivateEndpoint                            build/stm32f4xx_ll_usb.o
                                                  build/stm32f4xx_hal_pcd.o
USB_DevConnect                                    build/stm32f4xx_ll_usb.o
                                                  build/stm32f4xx_hal_pcd.o
USB_DevDisconnect                                 build/stm32f4xx_ll_usb.o
                                                  build/stm32f4xx_hal_pcd.o
USB_DevInit                                       build/stm32f4xx_ll_usb.o
                                                  build/stm32f4xx_hal_pcd.o
USB_DisableGlobalInt                              build/stm32f4xx_ll_usb.o
                                                  build/stm32f4xx_hal_pcd.o
USB_DoPing                                        build/stm32f4xx_ll_usb.o
USB_DriveVbus                                     build/stm32f4xx_ll_usb.o
USB_EP0StartXfer                                  build/stm32f4xx_ll_usb.o
                                                  build/stm32f4xx_hal_pcd.o
USB_EP0_OutStart                                  build/stm32f4xx_ll_usb.o
                                                  build/stm32f4xx_hal_pcd.o
USB_EPClearStall                                  build/stm32f4xx_ll_usb.o
                                                  build/stm32f4xx_hal_pcd.o
USB_EPSetStall                                    build/stm32f4xx_ll_usb.o
                                                  build/stm32f4xx_hal_pcd.o
USB_EPStartXfer                                   build/stm32f4xx_ll_usb.o
                                                  build/stm32f4xx_hal_pcd.o
USB_EnableGlobalInt                               build/stm32f4xx_ll_usb.o
                                                  build/stm32f4xx_hal_pcd.o
USB_FlushRxFifo                                   build/stm32f4xx_ll_usb.o
                                                  build/stm32f4xx_hal_pcd.o
USB_FlushTxFifo                                   build/stm32f4xx_ll_usb.o
                                                  build/stm32f4xx_hal_pcd.o
USB_GetCurrentFrame                               build/stm32f4xx_ll_usb.o
USB_GetDevSpeed                                   build/stm32f4xx_ll_usb.o
                                                  build/stm32f4xx_hal_pcd.o
USB_GetHostSpeed                                  build/stm32f4xx_ll_usb.o
USB_GetMode                                       build/stm32f4xx_ll_usb.o
                                                  build/stm32f4xx_hal_pcd.o
USB_HC_Halt                                       build/stm32f4xx_ll_usb.o
USB_HC_Init                                       build/stm32f4xx_ll_usb.o
USB_HC_ReadInterrupt                              build/stm32f4xx_ll_usb.o
USB_HC_StartXfer                                  build/stm32f4xx_ll_usb.o
USB_HostInit                                      build/stm32f4xx_ll_usb.o
USB_InitFSLSPClkSel                               build/stm32f4xx_ll_usb.o
USB_ReadDevAllInEpInterrupt                       build/stm32f4xx_ll_usb.o
                                                  build/stm32f4xx_hal_pcd.o
USB_ReadDevAllOutEpInterrupt                      build/stm32f4xx_ll_usb.o
                                                  build/stm32f4xx_hal_pcd.o
USB_ReadDevInEPInterrupt                          build/stm32f4xx_ll_usb.o
                                                  build/stm32f4xx_hal_pcd.o
USB_ReadDevOutEPInterrupt                         build/stm32f4xx_ll_usb.o
                                                  build/stm32f4xx_hal_pcd.o
USB_ReadInterrupts                                build/stm32f4xx_ll_usb.o
                                                  build/stm32f4xx_hal_pcd.o
USB_ReadPacket                                    build/stm32f4xx_ll_usb.o
                                                  build/stm32f4xx_hal_pcd.o
USB_ResetPort                                     build/stm32f4xx_ll_usb.o
USB_SetCurrentMode                                build/stm32f4xx_ll_usb.o
                                                  build/stm32f4xx_hal_pcd.o
USB_SetDevAddress                                 build/stm32f4xx_ll_usb.o
                                                  build/stm32f4xx_hal_pcd.o
USB_SetDevSpeed                                   build/stm32f4xx_ll_usb.o
USB_StopDevice                                    build/stm32f4xx_ll_usb.o
                                                  build/stm32f4xx_hal_pcd.o
USB_StopHost                                      build/stm32f4xx_ll_usb.o
USB_WritePacket                                   build/stm32f4xx_ll_usb.o
                                                  build/stm32f4xx_hal_pcd.o
UsageFault_Handler                                build/stm32f4xx_it.o
UserRxBufferHS                                    build/usbd_cdc_if.o
UserTxBufferHS                                    build/usbd_cdc_if.o
WWDG_IRQHandler                                   build/startup_stm32f405xx.o
_Balloc                                           /Users/augustmason/Documents/gitHub/riptide_firmware/STM32/gcc-arm-none-eabi-6-2017-q2-update/bin/../lib/gcc/arm-none-eabi/6.3.1/../../../../arm-none-eabi/lib/thumb/v7e-m/fpv4-sp/hard/libc_nano.a(lib_a-mprec.o)
                                                  /Users/augustmason/Documents/gitHub/riptide_firmware/STM32/gcc-arm-none-eabi-6-2017-q2-update/bin/../lib/gcc/arm-none-eabi/6.3.1/../../../../arm-none-eabi/lib/thumb/v7e-m/fpv4-sp/hard/libc_nano.a(lib_a-dtoa.o)
_Bfree                                            /Users/augustmason/Documents/gitHub/riptide_firmware/STM32/gcc-arm-none-eabi-6-2017-q2-update/bin/../lib/gcc/arm-none-eabi/6.3.1/../../../../arm-none-eabi/lib/thumb/v7e-m/fpv4-sp/hard/libc_nano.a(lib_a-mprec.o)
                                                  /Users/augustmason/Documents/gitHub/riptide_firmware/STM32/gcc-arm-none-eabi-6-2017-q2-update/bin/../lib/gcc/arm-none-eabi/6.3.1/../../../../arm-none-eabi/lib/thumb/v7e-m/fpv4-sp/hard/libc_nano.a(lib_a-dtoa.o)
_Error_Handler                                    build/main.o
                                                  build/usbd_conf.o
_Jv_RegisterClasses                               /Users/augustmason/Documents/gitHub/riptide_firmware/STM32/gcc-arm-none-eabi-6-2017-q2-update/bin/../lib/gcc/arm-none-eabi/6.3.1/thumb/v7e-m/fpv4-sp/hard/crtbegin.o
_PathLocale                                       /Users/augustmason/Documents/gitHub/riptide_firmware/STM32/gcc-arm-none-eabi-6-2017-q2-update/bin/../lib/gcc/arm-none-eabi/6.3.1/../../../../arm-none-eabi/lib/thumb/v7e-m/fpv4-sp/hard/libc_nano.a(lib_a-locale.o)
__adddf3                                          /Users/augustmason/Documents/gitHub/riptide_firmware/STM32/gcc-arm-none-eabi-6-2017-q2-update/bin/../lib/gcc/arm-none-eabi/6.3.1/thumb/v7e-m/fpv4-sp/hard/libgcc.a(_arm_addsubdf3.o)
__aeabi_cdcmpeq                                   /Users/augustmason/Documents/gitHub/riptide_firmware/STM32/gcc-arm-none-eabi-6-2017-q2-update/bin/../lib/gcc/arm-none-eabi/6.3.1/thumb/v7e-m/fpv4-sp/hard/libgcc.a(_arm_cmpdf2.o)
__aeabi_cdcmple                                   /Users/augustmason/Documents/gitHub/riptide_firmware/STM32/gcc-arm-none-eabi-6-2017-q2-update/bin/../lib/gcc/arm-none-eabi/6.3.1/thumb/v7e-m/fpv4-sp/hard/libgcc.a(_arm_cmpdf2.o)
__aeabi_cdrcmple                                  /Users/augustmason/Documents/gitHub/riptide_firmware/STM32/gcc-arm-none-eabi-6-2017-q2-update/bin/../lib/gcc/arm-none-eabi/6.3.1/thumb/v7e-m/fpv4-sp/hard/libgcc.a(_arm_cmpdf2.o)
__aeabi_d2f                                       /Users/augustmason/Documents/gitHub/riptide_firmware/STM32/gcc-arm-none-eabi-6-2017-q2-update/bin/../lib/gcc/arm-none-eabi/6.3.1/thumb/v7e-m/fpv4-sp/hard/libgcc.a(_arm_truncdfsf2.o)
                                                  build/riptideFunctions.o
__aeabi_d2iz                                      /Users/augustmason/Documents/gitHub/riptide_firmware/STM32/gcc-arm-none-eabi-6-2017-q2-update/bin/../lib/gcc/arm-none-eabi/6.3.1/thumb/v7e-m/fpv4-sp/hard/libgcc.a(_arm_fixdfsi.o)
                                                  /Users/augustmason/Documents/gitHub/riptide_firmware/STM32/gcc-arm-none-eabi-6-2017-q2-update/bin/../lib/gcc/arm-none-eabi/6.3.1/../../../../arm-none-eabi/lib/thumb/v7e-m/fpv4-sp/hard/libc_nano.a(lib_a-dtoa.o)
__aeabi_dadd                                      /Users/augustmason/Documents/gitHub/riptide_firmware/STM32/gcc-arm-none-eabi-6-2017-q2-update/bin/../lib/gcc/arm-none-eabi/6.3.1/thumb/v7e-m/fpv4-sp/hard/libgcc.a(_arm_addsubdf3.o)
                                                  /Users/augustmason/Documents/gitHub/riptide_firmware/STM32/gcc-arm-none-eabi-6-2017-q2-update/bin/../lib/gcc/arm-none-eabi/6.3.1/../../../../arm-none-eabi/lib/thumb/v7e-m/fpv4-sp/hard/libc_nano.a(lib_a-dtoa.o)
__aeabi_dcmpeq                                    /Users/augustmason/Documents/gitHub/riptide_firmware/STM32/gcc-arm-none-eabi-6-2017-q2-update/bin/../lib/gcc/arm-none-eabi/6.3.1/thumb/v7e-m/fpv4-sp/hard/libgcc.a(_arm_cmpdf2.o)
                                                  /Users/augustmason/Documents/gitHub/riptide_firmware/STM32/gcc-arm-none-eabi-6-2017-q2-update/bin/../lib/gcc/arm-none-eabi/6.3.1/../../../../arm-none-eabi/lib/thumb/v7e-m/fpv4-sp/hard/libc_nano.a(lib_a-dtoa.o)
                                                  /Users/augustmason/Documents/gitHub/riptide_firmware/STM32/gcc-arm-none-eabi-6-2017-q2-update/bin/../lib/gcc/arm-none-eabi/6.3.1/../../../../arm-none-eabi/lib/thumb/v7e-m/fpv4-sp/hard/libc_nano.a(lib_a-ecvtbuf.o)
__aeabi_dcmpge                                    /Users/augustmason/Documents/gitHub/riptide_firmware/STM32/gcc-arm-none-eabi-6-2017-q2-update/bin/../lib/gcc/arm-none-eabi/6.3.1/thumb/v7e-m/fpv4-sp/hard/libgcc.a(_arm_cmpdf2.o)
                                                  /Users/augustmason/Documents/gitHub/riptide_firmware/STM32/gcc-arm-none-eabi-6-2017-q2-update/bin/../lib/gcc/arm-none-eabi/6.3.1/../../../../arm-none-eabi/lib/thumb/v7e-m/fpv4-sp/hard/libc_nano.a(lib_a-dtoa.o)
                                                  /Users/augustmason/Documents/gitHub/riptide_firmware/STM32/gcc-arm-none-eabi-6-2017-q2-update/bin/../lib/gcc/arm-none-eabi/6.3.1/../../../../arm-none-eabi/lib/thumb/v7e-m/fpv4-sp/hard/libc_nano.a(lib_a-ecvtbuf.o)
__aeabi_dcmpgt                                    /Users/augustmason/Documents/gitHub/riptide_firmware/STM32/gcc-arm-none-eabi-6-2017-q2-update/bin/../lib/gcc/arm-none-eabi/6.3.1/thumb/v7e-m/fpv4-sp/hard/libgcc.a(_arm_cmpdf2.o)
                                                  /Users/augustmason/Documents/gitHub/riptide_firmware/STM32/gcc-arm-none-eabi-6-2017-q2-update/bin/../lib/gcc/arm-none-eabi/6.3.1/../../../../arm-none-eabi/lib/thumb/v7e-m/fpv4-sp/hard/libc_nano.a(lib_a-dtoa.o)
                                                  /Users/augustmason/Documents/gitHub/riptide_firmware/STM32/gcc-arm-none-eabi-6-2017-q2-update/bin/../lib/gcc/arm-none-eabi/6.3.1/../../../../arm-none-eabi/lib/thumb/v7e-m/fpv4-sp/hard/libc_nano.a(lib_a-ecvtbuf.o)
__aeabi_dcmple                                    /Users/augustmason/Documents/gitHub/riptide_firmware/STM32/gcc-arm-none-eabi-6-2017-q2-update/bin/../lib/gcc/arm-none-eabi/6.3.1/thumb/v7e-m/fpv4-sp/hard/libgcc.a(_arm_cmpdf2.o)
                                                  /Users/augustmason/Documents/gitHub/riptide_firmware/STM32/gcc-arm-none-eabi-6-2017-q2-update/bin/../lib/gcc/arm-none-eabi/6.3.1/../../../../arm-none-eabi/lib/thumb/v7e-m/fpv4-sp/hard/libc_nano.a(lib_a-ecvtbuf.o)
__aeabi_dcmplt                                    /Users/augustmason/Documents/gitHub/riptide_firmware/STM32/gcc-arm-none-eabi-6-2017-q2-update/bin/../lib/gcc/arm-none-eabi/6.3.1/thumb/v7e-m/fpv4-sp/hard/libgcc.a(_arm_cmpdf2.o)
                                                  /Users/augustmason/Documents/gitHub/riptide_firmware/STM32/gcc-arm-none-eabi-6-2017-q2-update/bin/../lib/gcc/arm-none-eabi/6.3.1/../../../../arm-none-eabi/lib/thumb/v7e-m/fpv4-sp/hard/libc_nano.a(lib_a-dtoa.o)
                                                  /Users/augustmason/Documents/gitHub/riptide_firmware/STM32/gcc-arm-none-eabi-6-2017-q2-update/bin/../lib/gcc/arm-none-eabi/6.3.1/../../../../arm-none-eabi/lib/thumb/v7e-m/fpv4-sp/hard/libc_nano.a(lib_a-ecvtbuf.o)
                                                  /Users/augustmason/Documents/gitHub/riptide_firmware/STM32/gcc-arm-none-eabi-6-2017-q2-update/bin/../lib/gcc/arm-none-eabi/6.3.1/../../../../arm-none-eabi/lib/thumb/v7e-m/fpv4-sp/hard/libc_nano.a(lib_a-efgcvt.o)
__aeabi_ddiv                                      /Users/augustmason/Documents/gitHub/riptide_firmware/STM32/gcc-arm-none-eabi-6-2017-q2-update/bin/../lib/gcc/arm-none-eabi/6.3.1/thumb/v7e-m/fpv4-sp/hard/libgcc.a(_arm_muldivdf3.o)
                                                  /Users/augustmason/Documents/gitHub/riptide_firmware/STM32/gcc-arm-none-eabi-6-2017-q2-update/bin/../lib/gcc/arm-none-eabi/6.3.1/../../../../arm-none-eabi/lib/thumb/v7e-m/fpv4-sp/hard/libc_nano.a(lib_a-dtoa.o)
                                                  /Users/augustmason/Documents/gitHub/riptide_firmware/STM32/gcc-arm-none-eabi-6-2017-q2-update/bin/../lib/gcc/arm-none-eabi/6.3.1/../../../../arm-none-eabi/lib/thumb/v7e-m/fpv4-sp/hard/libc_nano.a(lib_a-mprec.o)
                                                  build/riptideFunctions.o
__aeabi_dmul                                      /Users/augustmason/Documents/gitHub/riptide_firmware/STM32/gcc-arm-none-eabi-6-2017-q2-update/bin/../lib/gcc/arm-none-eabi/6.3.1/thumb/v7e-m/fpv4-sp/hard/libgcc.a(_arm_muldivdf3.o)
                                                  /Users/augustmason/Documents/gitHub/riptide_firmware/STM32/gcc-arm-none-eabi-6-2017-q2-update/bin/../lib/gcc/arm-none-eabi/6.3.1/../../../../arm-none-eabi/lib/thumb/v7e-m/fpv4-sp/hard/libc_nano.a(lib_a-dtoa.o)
                                                  /Users/augustmason/Documents/gitHub/riptide_firmware/STM32/gcc-arm-none-eabi-6-2017-q2-update/bin/../lib/gcc/arm-none-eabi/6.3.1/../../../../arm-none-eabi/lib/thumb/v7e-m/fpv4-sp/hard/libc_nano.a(lib_a-mprec.o)
                                                  build/riptideFunctions.o
__aeabi_drsub                                     /Users/augustmason/Documents/gitHub/riptide_firmware/STM32/gcc-arm-none-eabi-6-2017-q2-update/bin/../lib/gcc/arm-none-eabi/6.3.1/thumb/v7e-m/fpv4-sp/hard/libgcc.a(_arm_addsubdf3.o)
__aeabi_dsub                                      /Users/augustmason/Documents/gitHub/riptide_firmware/STM32/gcc-arm-none-eabi-6-2017-q2-update/bin/../lib/gcc/arm-none-eabi/6.3.1/thumb/v7e-m/fpv4-sp/hard/libgcc.a(_arm_addsubdf3.o)
                                                  /Users/augustmason/Documents/gitHub/riptide_firmware/STM32/gcc-arm-none-eabi-6-2017-q2-update/bin/../lib/gcc/arm-none-eabi/6.3.1/../../../../arm-none-eabi/lib/thumb/v7e-m/fpv4-sp/hard/libc_nano.a(lib_a-dtoa.o)
                                                  build/riptideFunctions.o
__aeabi_f2d                                       /Users/augustmason/Documents/gitHub/riptide_firmware/STM32/gcc-arm-none-eabi-6-2017-q2-update/bin/../lib/gcc/arm-none-eabi/6.3.1/thumb/v7e-m/fpv4-sp/hard/libgcc.a(_arm_addsubdf3.o)
                                                  /Users/augustmason/Documents/gitHub/riptide_firmware/STM32/gcc-arm-none-eabi-6-2017-q2-update/bin/../lib/gcc/arm-none-eabi/6.3.1/../../../../arm-none-eabi/lib/thumb/v7e-m/fpv4-sp/hard/libc_nano.a(lib_a-efgcvt.o)
                                                  build/riptideThreads.o
                                                  build/riptideFunctions.o
__aeabi_i2d                                       /Users/augustmason/Documents/gitHub/riptide_firmware/STM32/gcc-arm-none-eabi-6-2017-q2-update/bin/../lib/gcc/arm-none-eabi/6.3.1/thumb/v7e-m/fpv4-sp/hard/libgcc.a(_arm_addsubdf3.o)
                                                  /Users/augustmason/Documents/gitHub/riptide_firmware/STM32/gcc-arm-none-eabi-6-2017-q2-update/bin/../lib/gcc/arm-none-eabi/6.3.1/../../../../arm-none-eabi/lib/thumb/v7e-m/fpv4-sp/hard/libc_nano.a(lib_a-dtoa.o)
                                                  build/riptideFunctions.o
__aeabi_idiv0                                     /Users/augustmason/Documents/gitHub/riptide_firmware/STM32/gcc-arm-none-eabi-6-2017-q2-update/bin/../lib/gcc/arm-none-eabi/6.3.1/thumb/v7e-m/fpv4-sp/hard/libgcc.a(_dvmd_tls.o)
__aeabi_l2d                                       /Users/augustmason/Documents/gitHub/riptide_firmware/STM32/gcc-arm-none-eabi-6-2017-q2-update/bin/../lib/gcc/arm-none-eabi/6.3.1/thumb/v7e-m/fpv4-sp/hard/libgcc.a(_arm_addsubdf3.o)
__aeabi_ldiv0                                     /Users/augustmason/Documents/gitHub/riptide_firmware/STM32/gcc-arm-none-eabi-6-2017-q2-update/bin/../lib/gcc/arm-none-eabi/6.3.1/thumb/v7e-m/fpv4-sp/hard/libgcc.a(_dvmd_tls.o)
                                                  /Users/augustmason/Documents/gitHub/riptide_firmware/STM32/gcc-arm-none-eabi-6-2017-q2-update/bin/../lib/gcc/arm-none-eabi/6.3.1/thumb/v7e-m/fpv4-sp/hard/libgcc.a(_aeabi_ldivmod.o)
__aeabi_ldivmod                                   /Users/augustmason/Documents/gitHub/riptide_firmware/STM32/gcc-arm-none-eabi-6-2017-q2-update/bin/../lib/gcc/arm-none-eabi/6.3.1/thumb/v7e-m/fpv4-sp/hard/libgcc.a(_aeabi_ldivmod.o)
                                                  build/riptideFunctions.o
__aeabi_ui2d                                      /Users/augustmason/Documents/gitHub/riptide_firmware/STM32/gcc-arm-none-eabi-6-2017-q2-update/bin/../lib/gcc/arm-none-eabi/6.3.1/thumb/v7e-m/fpv4-sp/hard/libgcc.a(_arm_addsubdf3.o)
                                                  /Users/augustmason/Documents/gitHub/riptide_firmware/STM32/gcc-arm-none-eabi-6-2017-q2-update/bin/../lib/gcc/arm-none-eabi/6.3.1/../../../../arm-none-eabi/lib/thumb/v7e-m/fpv4-sp/hard/libc_nano.a(lib_a-dtoa.o)
                                                  build/riptideFunctions.o
__aeabi_ul2d                                      /Users/augustmason/Documents/gitHub/riptide_firmware/STM32/gcc-arm-none-eabi-6-2017-q2-update/bin/../lib/gcc/arm-none-eabi/6.3.1/thumb/v7e-m/fpv4-sp/hard/libgcc.a(_arm_addsubdf3.o)
__any_on                                          /Users/augustmason/Documents/gitHub/riptide_firmware/STM32/gcc-arm-none-eabi-6-2017-q2-update/bin/../lib/gcc/arm-none-eabi/6.3.1/../../../../arm-none-eabi/lib/thumb/v7e-m/fpv4-sp/hard/libc_nano.a(lib_a-mprec.o)
__ascii_mbtowc                                    /Users/augustmason/Documents/gitHub/riptide_firmware/STM32/gcc-arm-none-eabi-6-2017-q2-update/bin/../lib/gcc/arm-none-eabi/6.3.1/../../../../arm-none-eabi/lib/thumb/v7e-m/fpv4-sp/hard/libc_nano.a(lib_a-mbtowc_r.o)
                                                  /Users/augustmason/Documents/gitHub/riptide_firmware/STM32/gcc-arm-none-eabi-6-2017-q2-update/bin/../lib/gcc/arm-none-eabi/6.3.1/../../../../arm-none-eabi/lib/thumb/v7e-m/fpv4-sp/hard/libc_nano.a(lib_a-locale.o)
__ascii_wctomb                                    /Users/augustmason/Documents/gitHub/riptide_firmware/STM32/gcc-arm-none-eabi-6-2017-q2-update/bin/../lib/gcc/arm-none-eabi/6.3.1/../../../../arm-none-eabi/lib/thumb/v7e-m/fpv4-sp/hard/libc_nano.a(lib_a-wctomb_r.o)
                                                  /Users/augustmason/Documents/gitHub/riptide_firmware/STM32/gcc-arm-none-eabi-6-2017-q2-update/bin/../lib/gcc/arm-none-eabi/6.3.1/../../../../arm-none-eabi/lib/thumb/v7e-m/fpv4-sp/hard/libc_nano.a(lib_a-locale.o)
__b2d                                             /Users/augustmason/Documents/gitHub/riptide_firmware/STM32/gcc-arm-none-eabi-6-2017-q2-update/bin/../lib/gcc/arm-none-eabi/6.3.1/../../../../arm-none-eabi/lib/thumb/v7e-m/fpv4-sp/hard/libc_nano.a(lib_a-mprec.o)
__bss_end__                                       /Users/augustmason/Documents/gitHub/riptide_firmware/STM32/gcc-arm-none-eabi-6-2017-q2-update/bin/../lib/gcc/arm-none-eabi/6.3.1/../../../../arm-none-eabi/lib/thumb/v7e-m/fpv4-sp/hard/crt0.o
__bss_start__                                     /Users/augustmason/Documents/gitHub/riptide_firmware/STM32/gcc-arm-none-eabi-6-2017-q2-update/bin/../lib/gcc/arm-none-eabi/6.3.1/../../../../arm-none-eabi/lib/thumb/v7e-m/fpv4-sp/hard/crt0.o
__call_exitprocs                                  /Users/augustmason/Documents/gitHub/riptide_firmware/STM32/gcc-arm-none-eabi-6-2017-q2-update/bin/../lib/gcc/arm-none-eabi/6.3.1/../../../../arm-none-eabi/lib/thumb/v7e-m/fpv4-sp/hard/libc_nano.a(lib_a-exit.o)
__cmpdf2                                          /Users/augustmason/Documents/gitHub/riptide_firmware/STM32/gcc-arm-none-eabi-6-2017-q2-update/bin/../lib/gcc/arm-none-eabi/6.3.1/thumb/v7e-m/fpv4-sp/hard/libgcc.a(_arm_cmpdf2.o)
__copybits                                        /Users/augustmason/Documents/gitHub/riptide_firmware/STM32/gcc-arm-none-eabi-6-2017-q2-update/bin/../lib/gcc/arm-none-eabi/6.3.1/../../../../arm-none-eabi/lib/thumb/v7e-m/fpv4-sp/hard/libc_nano.a(lib_a-mprec.o)
__d2b                                             /Users/augustmason/Documents/gitHub/riptide_firmware/STM32/gcc-arm-none-eabi-6-2017-q2-update/bin/../lib/gcc/arm-none-eabi/6.3.1/../../../../arm-none-eabi/lib/thumb/v7e-m/fpv4-sp/hard/libc_nano.a(lib_a-mprec.o)
                                                  /Users/augustmason/Documents/gitHub/riptide_firmware/STM32/gcc-arm-none-eabi-6-2017-q2-update/bin/../lib/gcc/arm-none-eabi/6.3.1/../../../../arm-none-eabi/lib/thumb/v7e-m/fpv4-sp/hard/libc_nano.a(lib_a-dtoa.o)
__deregister_frame_info                           /Users/augustmason/Documents/gitHub/riptide_firmware/STM32/gcc-arm-none-eabi-6-2017-q2-update/bin/../lib/gcc/arm-none-eabi/6.3.1/thumb/v7e-m/fpv4-sp/hard/crtbegin.o
__divdf3                                          /Users/augustmason/Documents/gitHub/riptide_firmware/STM32/gcc-arm-none-eabi-6-2017-q2-update/bin/../lib/gcc/arm-none-eabi/6.3.1/thumb/v7e-m/fpv4-sp/hard/libgcc.a(_arm_muldivdf3.o)
__dso_handle                                      /Users/augustmason/Documents/gitHub/riptide_firmware/STM32/gcc-arm-none-eabi-6-2017-q2-update/bin/../lib/gcc/arm-none-eabi/6.3.1/thumb/v7e-m/fpv4-sp/hard/crtbegin.o
__eqdf2                                           /Users/augustmason/Documents/gitHub/riptide_firmware/STM32/gcc-arm-none-eabi-6-2017-q2-update/bin/../lib/gcc/arm-none-eabi/6.3.1/thumb/v7e-m/fpv4-sp/hard/libgcc.a(_arm_cmpdf2.o)
__extendsfdf2                                     /Users/augustmason/Documents/gitHub/riptide_firmware/STM32/gcc-arm-none-eabi-6-2017-q2-update/bin/../lib/gcc/arm-none-eabi/6.3.1/thumb/v7e-m/fpv4-sp/hard/libgcc.a(_arm_addsubdf3.o)
__fixdfsi                                         /Users/augustmason/Documents/gitHub/riptide_firmware/STM32/gcc-arm-none-eabi-6-2017-q2-update/bin/../lib/gcc/arm-none-eabi/6.3.1/thumb/v7e-m/fpv4-sp/hard/libgcc.a(_arm_fixdfsi.o)
__floatdidf                                       /Users/augustmason/Documents/gitHub/riptide_firmware/STM32/gcc-arm-none-eabi-6-2017-q2-update/bin/../lib/gcc/arm-none-eabi/6.3.1/thumb/v7e-m/fpv4-sp/hard/libgcc.a(_arm_addsubdf3.o)
__floatsidf                                       /Users/augustmason/Documents/gitHub/riptide_firmware/STM32/gcc-arm-none-eabi-6-2017-q2-update/bin/../lib/gcc/arm-none-eabi/6.3.1/thumb/v7e-m/fpv4-sp/hard/libgcc.a(_arm_addsubdf3.o)
__floatundidf                                     /Users/augustmason/Documents/gitHub/riptide_firmware/STM32/gcc-arm-none-eabi-6-2017-q2-update/bin/../lib/gcc/arm-none-eabi/6.3.1/thumb/v7e-m/fpv4-sp/hard/libgcc.a(_arm_addsubdf3.o)
__floatunsidf                                     /Users/augustmason/Documents/gitHub/riptide_firmware/STM32/gcc-arm-none-eabi-6-2017-q2-update/bin/../lib/gcc/arm-none-eabi/6.3.1/thumb/v7e-m/fpv4-sp/hard/libgcc.a(_arm_addsubdf3.o)
__gedf2                                           /Users/augustmason/Documents/gitHub/riptide_firmware/STM32/gcc-arm-none-eabi-6-2017-q2-update/bin/../lib/gcc/arm-none-eabi/6.3.1/thumb/v7e-m/fpv4-sp/hard/libgcc.a(_arm_cmpdf2.o)
__global_locale                                   /Users/augustmason/Documents/gitHub/riptide_firmware/STM32/gcc-arm-none-eabi-6-2017-q2-update/bin/../lib/gcc/arm-none-eabi/6.3.1/../../../../arm-none-eabi/lib/thumb/v7e-m/fpv4-sp/hard/libc_nano.a(lib_a-locale.o)
                                                  /Users/augustmason/Documents/gitHub/riptide_firmware/STM32/gcc-arm-none-eabi-6-2017-q2-update/bin/../lib/gcc/arm-none-eabi/6.3.1/../../../../arm-none-eabi/lib/thumb/v7e-m/fpv4-sp/hard/libc_nano.a(lib_a-wctomb_r.o)
                                                  /Users/augustmason/Documents/gitHub/riptide_firmware/STM32/gcc-arm-none-eabi-6-2017-q2-update/bin/../lib/gcc/arm-none-eabi/6.3.1/../../../../arm-none-eabi/lib/thumb/v7e-m/fpv4-sp/hard/libc_nano.a(lib_a-mbtowc_r.o)
                                                  /Users/augustmason/Documents/gitHub/riptide_firmware/STM32/gcc-arm-none-eabi-6-2017-q2-update/bin/../lib/gcc/arm-none-eabi/6.3.1/../../../../arm-none-eabi/lib/thumb/v7e-m/fpv4-sp/hard/libc_nano.a(lib_a-strtol.o)
__gtdf2                                           /Users/augustmason/Documents/gitHub/riptide_firmware/STM32/gcc-arm-none-eabi-6-2017-q2-update/bin/../lib/gcc/arm-none-eabi/6.3.1/thumb/v7e-m/fpv4-sp/hard/libgcc.a(_arm_cmpdf2.o)
__hi0bits                                         /Users/augustmason/Documents/gitHub/riptide_firmware/STM32/gcc-arm-none-eabi-6-2017-q2-update/bin/../lib/gcc/arm-none-eabi/6.3.1/../../../../arm-none-eabi/lib/thumb/v7e-m/fpv4-sp/hard/libc_nano.a(lib_a-mprec.o)
                                                  /Users/augustmason/Documents/gitHub/riptide_firmware/STM32/gcc-arm-none-eabi-6-2017-q2-update/bin/../lib/gcc/arm-none-eabi/6.3.1/../../../../arm-none-eabi/lib/thumb/v7e-m/fpv4-sp/hard/libc_nano.a(lib_a-dtoa.o)
__i2b                                             /Users/augustmason/Documents/gitHub/riptide_firmware/STM32/gcc-arm-none-eabi-6-2017-q2-update/bin/../lib/gcc/arm-none-eabi/6.3.1/../../../../arm-none-eabi/lib/thumb/v7e-m/fpv4-sp/hard/libc_nano.a(lib_a-mprec.o)
                                                  /Users/augustmason/Documents/gitHub/riptide_firmware/STM32/gcc-arm-none-eabi-6-2017-q2-update/bin/../lib/gcc/arm-none-eabi/6.3.1/../../../../arm-none-eabi/lib/thumb/v7e-m/fpv4-sp/hard/libc_nano.a(lib_a-dtoa.o)
__init_array_end                                  /Users/augustmason/Documents/gitHub/riptide_firmware/STM32/gcc-arm-none-eabi-6-2017-q2-update/bin/../lib/gcc/arm-none-eabi/6.3.1/../../../../arm-none-eabi/lib/thumb/v7e-m/fpv4-sp/hard/libc_nano.a(lib_a-init.o)
__init_array_start                                /Users/augustmason/Documents/gitHub/riptide_firmware/STM32/gcc-arm-none-eabi-6-2017-q2-update/bin/../lib/gcc/arm-none-eabi/6.3.1/../../../../arm-none-eabi/lib/thumb/v7e-m/fpv4-sp/hard/libc_nano.a(lib_a-init.o)
__ledf2                                           /Users/augustmason/Documents/gitHub/riptide_firmware/STM32/gcc-arm-none-eabi-6-2017-q2-update/bin/../lib/gcc/arm-none-eabi/6.3.1/thumb/v7e-m/fpv4-sp/hard/libgcc.a(_arm_cmpdf2.o)
__libc_fini_array                                 /Users/augustmason/Documents/gitHub/riptide_firmware/STM32/gcc-arm-none-eabi-6-2017-q2-update/bin/../lib/gcc/arm-none-eabi/6.3.1/../../../../arm-none-eabi/lib/thumb/v7e-m/fpv4-sp/hard/crt0.o
__libc_init_array                                 /Users/augustmason/Documents/gitHub/riptide_firmware/STM32/gcc-arm-none-eabi-6-2017-q2-update/bin/../lib/gcc/arm-none-eabi/6.3.1/../../../../arm-none-eabi/lib/thumb/v7e-m/fpv4-sp/hard/libc_nano.a(lib_a-init.o)
                                                  build/startup_stm32f405xx.o
                                                  /Users/augustmason/Documents/gitHub/riptide_firmware/STM32/gcc-arm-none-eabi-6-2017-q2-update/bin/../lib/gcc/arm-none-eabi/6.3.1/../../../../arm-none-eabi/lib/thumb/v7e-m/fpv4-sp/hard/crt0.o
__lo0bits                                         /Users/augustmason/Documents/gitHub/riptide_firmware/STM32/gcc-arm-none-eabi-6-2017-q2-update/bin/../lib/gcc/arm-none-eabi/6.3.1/../../../../arm-none-eabi/lib/thumb/v7e-m/fpv4-sp/hard/libc_nano.a(lib_a-mprec.o)
__locale_ctype_ptr                                /Users/augustmason/Documents/gitHub/riptide_firmware/STM32/gcc-arm-none-eabi-6-2017-q2-update/bin/../lib/gcc/arm-none-eabi/6.3.1/../../../../arm-none-eabi/lib/thumb/v7e-m/fpv4-sp/hard/libc_nano.a(lib_a-locale.o)
__locale_ctype_ptr_l                              /Users/augustmason/Documents/gitHub/riptide_firmware/STM32/gcc-arm-none-eabi-6-2017-q2-update/bin/../lib/gcc/arm-none-eabi/6.3.1/../../../../arm-none-eabi/lib/thumb/v7e-m/fpv4-sp/hard/libc_nano.a(lib_a-locale.o)
                                                  /Users/augustmason/Documents/gitHub/riptide_firmware/STM32/gcc-arm-none-eabi-6-2017-q2-update/bin/../lib/gcc/arm-none-eabi/6.3.1/../../../../arm-none-eabi/lib/thumb/v7e-m/fpv4-sp/hard/libc_nano.a(lib_a-strtol.o)
__locale_mb_cur_max                               /Users/augustmason/Documents/gitHub/riptide_firmware/STM32/gcc-arm-none-eabi-6-2017-q2-update/bin/../lib/gcc/arm-none-eabi/6.3.1/../../../../arm-none-eabi/lib/thumb/v7e-m/fpv4-sp/hard/libc_nano.a(lib_a-locale.o)
__lshift                                          /Users/augustmason/Documents/gitHub/riptide_firmware/STM32/gcc-arm-none-eabi-6-2017-q2-update/bin/../lib/gcc/arm-none-eabi/6.3.1/../../../../arm-none-eabi/lib/thumb/v7e-m/fpv4-sp/hard/libc_nano.a(lib_a-mprec.o)
                                                  /Users/augustmason/Documents/gitHub/riptide_firmware/STM32/gcc-arm-none-eabi-6-2017-q2-update/bin/../lib/gcc/arm-none-eabi/6.3.1/../../../../arm-none-eabi/lib/thumb/v7e-m/fpv4-sp/hard/libc_nano.a(lib_a-dtoa.o)
__ltdf2                                           /Users/augustmason/Documents/gitHub/riptide_firmware/STM32/gcc-arm-none-eabi-6-2017-q2-update/bin/../lib/gcc/arm-none-eabi/6.3.1/thumb/v7e-m/fpv4-sp/hard/libgcc.a(_arm_cmpdf2.o)
__malloc_free_list                                /Users/augustmason/Documents/gitHub/riptide_firmware/STM32/gcc-arm-none-eabi-6-2017-q2-update/bin/../lib/gcc/arm-none-eabi/6.3.1/../../../../arm-none-eabi/lib/thumb/v7e-m/fpv4-sp/hard/libc_nano.a(lib_a-nano-mallocr.o)
                                                  /Users/augustmason/Documents/gitHub/riptide_firmware/STM32/gcc-arm-none-eabi-6-2017-q2-update/bin/../lib/gcc/arm-none-eabi/6.3.1/../../../../arm-none-eabi/lib/thumb/v7e-m/fpv4-sp/hard/libc_nano.a(lib_a-nano-freer.o)
__malloc_lock                                     /Users/augustmason/Documents/gitHub/riptide_firmware/STM32/gcc-arm-none-eabi-6-2017-q2-update/bin/../lib/gcc/arm-none-eabi/6.3.1/../../../../arm-none-eabi/lib/thumb/v7e-m/fpv4-sp/hard/libc_nano.a(lib_a-mlock.o)
                                                  /Users/augustmason/Documents/gitHub/riptide_firmware/STM32/gcc-arm-none-eabi-6-2017-q2-update/bin/../lib/gcc/arm-none-eabi/6.3.1/../../../../arm-none-eabi/lib/thumb/v7e-m/fpv4-sp/hard/libc_nano.a(lib_a-nano-mallocr.o)
                                                  /Users/augustmason/Documents/gitHub/riptide_firmware/STM32/gcc-arm-none-eabi-6-2017-q2-update/bin/../lib/gcc/arm-none-eabi/6.3.1/../../../../arm-none-eabi/lib/thumb/v7e-m/fpv4-sp/hard/libc_nano.a(lib_a-nano-freer.o)
__malloc_sbrk_start                               /Users/augustmason/Documents/gitHub/riptide_firmware/STM32/gcc-arm-none-eabi-6-2017-q2-update/bin/../lib/gcc/arm-none-eabi/6.3.1/../../../../arm-none-eabi/lib/thumb/v7e-m/fpv4-sp/hard/libc_nano.a(lib_a-nano-mallocr.o)
__malloc_unlock                                   /Users/augustmason/Documents/gitHub/riptide_firmware/STM32/gcc-arm-none-eabi-6-2017-q2-update/bin/../lib/gcc/arm-none-eabi/6.3.1/../../../../arm-none-eabi/lib/thumb/v7e-m/fpv4-sp/hard/libc_nano.a(lib_a-mlock.o)
                                                  /Users/augustmason/Documents/gitHub/riptide_firmware/STM32/gcc-arm-none-eabi-6-2017-q2-update/bin/../lib/gcc/arm-none-eabi/6.3.1/../../../../arm-none-eabi/lib/thumb/v7e-m/fpv4-sp/hard/libc_nano.a(lib_a-nano-mallocr.o)
                                                  /Users/augustmason/Documents/gitHub/riptide_firmware/STM32/gcc-arm-none-eabi-6-2017-q2-update/bin/../lib/gcc/arm-none-eabi/6.3.1/../../../../arm-none-eabi/lib/thumb/v7e-m/fpv4-sp/hard/libc_nano.a(lib_a-nano-freer.o)
__mcmp                                            /Users/augustmason/Documents/gitHub/riptide_firmware/STM32/gcc-arm-none-eabi-6-2017-q2-update/bin/../lib/gcc/arm-none-eabi/6.3.1/../../../../arm-none-eabi/lib/thumb/v7e-m/fpv4-sp/hard/libc_nano.a(lib_a-mprec.o)
                                                  /Users/augustmason/Documents/gitHub/riptide_firmware/STM32/gcc-arm-none-eabi-6-2017-q2-update/bin/../lib/gcc/arm-none-eabi/6.3.1/../../../../arm-none-eabi/lib/thumb/v7e-m/fpv4-sp/hard/libc_nano.a(lib_a-dtoa.o)
__mdiff                                           /Users/augustmason/Documents/gitHub/riptide_firmware/STM32/gcc-arm-none-eabi-6-2017-q2-update/bin/../lib/gcc/arm-none-eabi/6.3.1/../../../../arm-none-eabi/lib/thumb/v7e-m/fpv4-sp/hard/libc_nano.a(lib_a-mprec.o)
                                                  /Users/augustmason/Documents/gitHub/riptide_firmware/STM32/gcc-arm-none-eabi-6-2017-q2-update/bin/../lib/gcc/arm-none-eabi/6.3.1/../../../../arm-none-eabi/lib/thumb/v7e-m/fpv4-sp/hard/libc_nano.a(lib_a-dtoa.o)
__mprec_bigtens                                   /Users/augustmason/Documents/gitHub/riptide_firmware/STM32/gcc-arm-none-eabi-6-2017-q2-update/bin/../lib/gcc/arm-none-eabi/6.3.1/../../../../arm-none-eabi/lib/thumb/v7e-m/fpv4-sp/hard/libc_nano.a(lib_a-mprec.o)
                                                  /Users/augustmason/Documents/gitHub/riptide_firmware/STM32/gcc-arm-none-eabi-6-2017-q2-update/bin/../lib/gcc/arm-none-eabi/6.3.1/../../../../arm-none-eabi/lib/thumb/v7e-m/fpv4-sp/hard/libc_nano.a(lib_a-dtoa.o)
__mprec_tens                                      /Users/augustmason/Documents/gitHub/riptide_firmware/STM32/gcc-arm-none-eabi-6-2017-q2-update/bin/../lib/gcc/arm-none-eabi/6.3.1/../../../../arm-none-eabi/lib/thumb/v7e-m/fpv4-sp/hard/libc_nano.a(lib_a-mprec.o)
                                                  /Users/augustmason/Documents/gitHub/riptide_firmware/STM32/gcc-arm-none-eabi-6-2017-q2-update/bin/../lib/gcc/arm-none-eabi/6.3.1/../../../../arm-none-eabi/lib/thumb/v7e-m/fpv4-sp/hard/libc_nano.a(lib_a-dtoa.o)
__mprec_tinytens                                  /Users/augustmason/Documents/gitHub/riptide_firmware/STM32/gcc-arm-none-eabi-6-2017-q2-update/bin/../lib/gcc/arm-none-eabi/6.3.1/../../../../arm-none-eabi/lib/thumb/v7e-m/fpv4-sp/hard/libc_nano.a(lib_a-mprec.o)
__muldf3                                          /Users/augustmason/Documents/gitHub/riptide_firmware/STM32/gcc-arm-none-eabi-6-2017-q2-update/bin/../lib/gcc/arm-none-eabi/6.3.1/thumb/v7e-m/fpv4-sp/hard/libgcc.a(_arm_muldivdf3.o)
__multadd                                         /Users/augustmason/Documents/gitHub/riptide_firmware/STM32/gcc-arm-none-eabi-6-2017-q2-update/bin/../lib/gcc/arm-none-eabi/6.3.1/../../../../arm-none-eabi/lib/thumb/v7e-m/fpv4-sp/hard/libc_nano.a(lib_a-mprec.o)
                                                  /Users/augustmason/Documents/gitHub/riptide_firmware/STM32/gcc-arm-none-eabi-6-2017-q2-update/bin/../lib/gcc/arm-none-eabi/6.3.1/../../../../arm-none-eabi/lib/thumb/v7e-m/fpv4-sp/hard/libc_nano.a(lib_a-dtoa.o)
__multiply                                        /Users/augustmason/Documents/gitHub/riptide_firmware/STM32/gcc-arm-none-eabi-6-2017-q2-update/bin/../lib/gcc/arm-none-eabi/6.3.1/../../../../arm-none-eabi/lib/thumb/v7e-m/fpv4-sp/hard/libc_nano.a(lib_a-mprec.o)
                                                  /Users/augustmason/Documents/gitHub/riptide_firmware/STM32/gcc-arm-none-eabi-6-2017-q2-update/bin/../lib/gcc/arm-none-eabi/6.3.1/../../../../arm-none-eabi/lib/thumb/v7e-m/fpv4-sp/hard/libc_nano.a(lib_a-dtoa.o)
__nedf2                                           /Users/augustmason/Documents/gitHub/riptide_firmware/STM32/gcc-arm-none-eabi-6-2017-q2-update/bin/../lib/gcc/arm-none-eabi/6.3.1/thumb/v7e-m/fpv4-sp/hard/libgcc.a(_arm_cmpdf2.o)
__pow5mult                                        /Users/augustmason/Documents/gitHub/riptide_firmware/STM32/gcc-arm-none-eabi-6-2017-q2-update/bin/../lib/gcc/arm-none-eabi/6.3.1/../../../../arm-none-eabi/lib/thumb/v7e-m/fpv4-sp/hard/libc_nano.a(lib_a-mprec.o)
                                                  /Users/augustmason/Documents/gitHub/riptide_firmware/STM32/gcc-arm-none-eabi-6-2017-q2-update/bin/../lib/gcc/arm-none-eabi/6.3.1/../../../../arm-none-eabi/lib/thumb/v7e-m/fpv4-sp/hard/libc_nano.a(lib_a-dtoa.o)
__preinit_array_end                               /Users/augustmason/Documents/gitHub/riptide_firmware/STM32/gcc-arm-none-eabi-6-2017-q2-update/bin/../lib/gcc/arm-none-eabi/6.3.1/../../../../arm-none-eabi/lib/thumb/v7e-m/fpv4-sp/hard/libc_nano.a(lib_a-init.o)
__preinit_array_start                             /Users/augustmason/Documents/gitHub/riptide_firmware/STM32/gcc-arm-none-eabi-6-2017-q2-update/bin/../lib/gcc/arm-none-eabi/6.3.1/../../../../arm-none-eabi/lib/thumb/v7e-m/fpv4-sp/hard/libc_nano.a(lib_a-init.o)
__ratio                                           /Users/augustmason/Documents/gitHub/riptide_firmware/STM32/gcc-arm-none-eabi-6-2017-q2-update/bin/../lib/gcc/arm-none-eabi/6.3.1/../../../../arm-none-eabi/lib/thumb/v7e-m/fpv4-sp/hard/libc_nano.a(lib_a-mprec.o)
__register_frame_info                             /Users/augustmason/Documents/gitHub/riptide_firmware/STM32/gcc-arm-none-eabi-6-2017-q2-update/bin/../lib/gcc/arm-none-eabi/6.3.1/thumb/v7e-m/fpv4-sp/hard/crtbegin.o
__s2b                                             /Users/augustmason/Documents/gitHub/riptide_firmware/STM32/gcc-arm-none-eabi-6-2017-q2-update/bin/../lib/gcc/arm-none-eabi/6.3.1/../../../../arm-none-eabi/lib/thumb/v7e-m/fpv4-sp/hard/libc_nano.a(lib_a-mprec.o)
__sf_fake_stderr                                  /Users/augustmason/Documents/gitHub/riptide_firmware/STM32/gcc-arm-none-eabi-6-2017-q2-update/bin/../lib/gcc/arm-none-eabi/6.3.1/../../../../arm-none-eabi/lib/thumb/v7e-m/fpv4-sp/hard/libc_nano.a(lib_a-impure.o)
__sf_fake_stdin                                   /Users/augustmason/Documents/gitHub/riptide_firmware/STM32/gcc-arm-none-eabi-6-2017-q2-update/bin/../lib/gcc/arm-none-eabi/6.3.1/../../../../arm-none-eabi/lib/thumb/v7e-m/fpv4-sp/hard/libc_nano.a(lib_a-impure.o)
__sf_fake_stdout                                  /Users/augustmason/Documents/gitHub/riptide_firmware/STM32/gcc-arm-none-eabi-6-2017-q2-update/bin/../lib/gcc/arm-none-eabi/6.3.1/../../../../arm-none-eabi/lib/thumb/v7e-m/fpv4-sp/hard/libc_nano.a(lib_a-impure.o)
__stack                                           /Users/augustmason/Documents/gitHub/riptide_firmware/STM32/gcc-arm-none-eabi-6-2017-q2-update/bin/../lib/gcc/arm-none-eabi/6.3.1/../../../../arm-none-eabi/lib/thumb/v7e-m/fpv4-sp/hard/crt0.o
__subdf3                                          /Users/augustmason/Documents/gitHub/riptide_firmware/STM32/gcc-arm-none-eabi-6-2017-q2-update/bin/../lib/gcc/arm-none-eabi/6.3.1/thumb/v7e-m/fpv4-sp/hard/libgcc.a(_arm_addsubdf3.o)
__truncdfsf2                                      /Users/augustmason/Documents/gitHub/riptide_firmware/STM32/gcc-arm-none-eabi-6-2017-q2-update/bin/../lib/gcc/arm-none-eabi/6.3.1/thumb/v7e-m/fpv4-sp/hard/libgcc.a(_arm_truncdfsf2.o)
__udivmoddi4                                      /Users/augustmason/Documents/gitHub/riptide_firmware/STM32/gcc-arm-none-eabi-6-2017-q2-update/bin/../lib/gcc/arm-none-eabi/6.3.1/thumb/v7e-m/fpv4-sp/hard/libgcc.a(_udivmoddi4.o)
                                                  /Users/augustmason/Documents/gitHub/riptide_firmware/STM32/gcc-arm-none-eabi-6-2017-q2-update/bin/../lib/gcc/arm-none-eabi/6.3.1/thumb/v7e-m/fpv4-sp/hard/libgcc.a(_aeabi_ldivmod.o)
__ulp                                             /Users/augustmason/Documents/gitHub/riptide_firmware/STM32/gcc-arm-none-eabi-6-2017-q2-update/bin/../lib/gcc/arm-none-eabi/6.3.1/../../../../arm-none-eabi/lib/thumb/v7e-m/fpv4-sp/hard/libc_nano.a(lib_a-mprec.o)
_atoi_r                                           /Users/augustmason/Documents/gitHub/riptide_firmware/STM32/gcc-arm-none-eabi-6-2017-q2-update/bin/../lib/gcc/arm-none-eabi/6.3.1/../../../../arm-none-eabi/lib/thumb/v7e-m/fpv4-sp/hard/libc_nano.a(lib_a-atoi.o)
_calloc_r                                         /Users/augustmason/Documents/gitHub/riptide_firmware/STM32/gcc-arm-none-eabi-6-2017-q2-update/bin/../lib/gcc/arm-none-eabi/6.3.1/../../../../arm-none-eabi/lib/thumb/v7e-m/fpv4-sp/hard/libc_nano.a(lib_a-nano-callocr.o)
                                                  /Users/augustmason/Documents/gitHub/riptide_firmware/STM32/gcc-arm-none-eabi-6-2017-q2-update/bin/../lib/gcc/arm-none-eabi/6.3.1/../../../../arm-none-eabi/lib/thumb/v7e-m/fpv4-sp/hard/libc_nano.a(lib_a-mprec.o)
_ctype_                                           /Users/augustmason/Documents/gitHub/riptide_firmware/STM32/gcc-arm-none-eabi-6-2017-q2-update/bin/../lib/gcc/arm-none-eabi/6.3.1/../../../../arm-none-eabi/lib/thumb/v7e-m/fpv4-sp/hard/libc_nano.a(lib_a-ctype_.o)
                                                  /Users/augustmason/Documents/gitHub/riptide_firmware/STM32/gcc-arm-none-eabi-6-2017-q2-update/bin/../lib/gcc/arm-none-eabi/6.3.1/../../../../arm-none-eabi/lib/thumb/v7e-m/fpv4-sp/hard/libc_nano.a(lib_a-locale.o)
_dcvt                                             /Users/augustmason/Documents/gitHub/riptide_firmware/STM32/gcc-arm-none-eabi-6-2017-q2-update/bin/../lib/gcc/arm-none-eabi/6.3.1/../../../../arm-none-eabi/lib/thumb/v7e-m/fpv4-sp/hard/libc_nano.a(lib_a-ecvtbuf.o)
_dtoa_r                                           /Users/augustmason/Documents/gitHub/riptide_firmware/STM32/gcc-arm-none-eabi-6-2017-q2-update/bin/../lib/gcc/arm-none-eabi/6.3.1/../../../../arm-none-eabi/lib/thumb/v7e-m/fpv4-sp/hard/libc_nano.a(lib_a-dtoa.o)
                                                  /Users/augustmason/Documents/gitHub/riptide_firmware/STM32/gcc-arm-none-eabi-6-2017-q2-update/bin/../lib/gcc/arm-none-eabi/6.3.1/../../../../arm-none-eabi/lib/thumb/v7e-m/fpv4-sp/hard/libc_nano.a(lib_a-ecvtbuf.o)
_ebss                                             build/startup_stm32f405xx.o
_edata                                            build/startup_stm32f405xx.o
_estack                                           build/startup_stm32f405xx.o
_exit                                             /Users/augustmason/Documents/gitHub/riptide_firmware/STM32/gcc-arm-none-eabi-6-2017-q2-update/bin/../lib/gcc/arm-none-eabi/6.3.1/../../../../arm-none-eabi/lib/thumb/v7e-m/fpv4-sp/hard/libnosys.a(_exit.o)
                                                  /Users/augustmason/Documents/gitHub/riptide_firmware/STM32/gcc-arm-none-eabi-6-2017-q2-update/bin/../lib/gcc/arm-none-eabi/6.3.1/../../../../arm-none-eabi/lib/thumb/v7e-m/fpv4-sp/hard/libc_nano.a(lib_a-exit.o)
_fini                                             /Users/augustmason/Documents/gitHub/riptide_firmware/STM32/gcc-arm-none-eabi-6-2017-q2-update/bin/../lib/gcc/arm-none-eabi/6.3.1/thumb/v7e-m/fpv4-sp/hard/crti.o
_free_r                                           /Users/augustmason/Documents/gitHub/riptide_firmware/STM32/gcc-arm-none-eabi-6-2017-q2-update/bin/../lib/gcc/arm-none-eabi/6.3.1/../../../../arm-none-eabi/lib/thumb/v7e-m/fpv4-sp/hard/libc_nano.a(lib_a-nano-freer.o)
                                                  /Users/augustmason/Documents/gitHub/riptide_firmware/STM32/gcc-arm-none-eabi-6-2017-q2-update/bin/../lib/gcc/arm-none-eabi/6.3.1/../../../../arm-none-eabi/lib/thumb/v7e-m/fpv4-sp/hard/libc_nano.a(lib_a-reent.o)
                                                  /Users/augustmason/Documents/gitHub/riptide_firmware/STM32/gcc-arm-none-eabi-6-2017-q2-update/bin/../lib/gcc/arm-none-eabi/6.3.1/../../../../arm-none-eabi/lib/thumb/v7e-m/fpv4-sp/hard/libc_nano.a(lib_a-nano-reallocr.o)
                                                  /Users/augustmason/Documents/gitHub/riptide_firmware/STM32/gcc-arm-none-eabi-6-2017-q2-update/bin/../lib/gcc/arm-none-eabi/6.3.1/../../../../arm-none-eabi/lib/thumb/v7e-m/fpv4-sp/hard/libc_nano.a(lib_a-malloc.o)
_gcvt                                             /Users/augustmason/Documents/gitHub/riptide_firmware/STM32/gcc-arm-none-eabi-6-2017-q2-update/bin/../lib/gcc/arm-none-eabi/6.3.1/../../../../arm-none-eabi/lib/thumb/v7e-m/fpv4-sp/hard/libc_nano.a(lib_a-ecvtbuf.o)
                                                  /Users/augustmason/Documents/gitHub/riptide_firmware/STM32/gcc-arm-none-eabi-6-2017-q2-update/bin/../lib/gcc/arm-none-eabi/6.3.1/../../../../arm-none-eabi/lib/thumb/v7e-m/fpv4-sp/hard/libc_nano.a(lib_a-efgcvt.o)
_global_impure_ptr                                /Users/augustmason/Documents/gitHub/riptide_firmware/STM32/gcc-arm-none-eabi-6-2017-q2-update/bin/../lib/gcc/arm-none-eabi/6.3.1/../../../../arm-none-eabi/lib/thumb/v7e-m/fpv4-sp/hard/libc_nano.a(lib_a-impure.o)
                                                  /Users/augustmason/Documents/gitHub/riptide_firmware/STM32/gcc-arm-none-eabi-6-2017-q2-update/bin/../lib/gcc/arm-none-eabi/6.3.1/../../../../arm-none-eabi/lib/thumb/v7e-m/fpv4-sp/hard/libc_nano.a(lib_a-exit.o)
_impure_ptr                                       /Users/augustmason/Documents/gitHub/riptide_firmware/STM32/gcc-arm-none-eabi-6-2017-q2-update/bin/../lib/gcc/arm-none-eabi/6.3.1/../../../../arm-none-eabi/lib/thumb/v7e-m/fpv4-sp/hard/libc_nano.a(lib_a-impure.o)
                                                  /Users/augustmason/Documents/gitHub/riptide_firmware/STM32/gcc-arm-none-eabi-6-2017-q2-update/bin/../lib/gcc/arm-none-eabi/6.3.1/../../../../arm-none-eabi/lib/thumb/v7e-m/fpv4-sp/hard/libc_nano.a(lib_a-wctomb_r.o)
                                                  /Users/augustmason/Documents/gitHub/riptide_firmware/STM32/gcc-arm-none-eabi-6-2017-q2-update/bin/../lib/gcc/arm-none-eabi/6.3.1/../../../../arm-none-eabi/lib/thumb/v7e-m/fpv4-sp/hard/libc_nano.a(lib_a-reent.o)
                                                  /Users/augustmason/Documents/gitHub/riptide_firmware/STM32/gcc-arm-none-eabi-6-2017-q2-update/bin/../lib/gcc/arm-none-eabi/6.3.1/../../../../arm-none-eabi/lib/thumb/v7e-m/fpv4-sp/hard/libc_nano.a(lib_a-mbtowc_r.o)
                                                  /Users/augustmason/Documents/gitHub/riptide_firmware/STM32/gcc-arm-none-eabi-6-2017-q2-update/bin/../lib/gcc/arm-none-eabi/6.3.1/../../../../arm-none-eabi/lib/thumb/v7e-m/fpv4-sp/hard/libc_nano.a(lib_a-locale.o)
                                                  /Users/augustmason/Documents/gitHub/riptide_firmware/STM32/gcc-arm-none-eabi-6-2017-q2-update/bin/../lib/gcc/arm-none-eabi/6.3.1/../../../../arm-none-eabi/lib/thumb/v7e-m/fpv4-sp/hard/libc_nano.a(lib_a-ecvtbuf.o)
                                                  /Users/augustmason/Documents/gitHub/riptide_firmware/STM32/gcc-arm-none-eabi-6-2017-q2-update/bin/../lib/gcc/arm-none-eabi/6.3.1/../../../../arm-none-eabi/lib/thumb/v7e-m/fpv4-sp/hard/libc_nano.a(lib_a-strtol.o)
                                                  /Users/augustmason/Documents/gitHub/riptide_firmware/STM32/gcc-arm-none-eabi-6-2017-q2-update/bin/../lib/gcc/arm-none-eabi/6.3.1/../../../../arm-none-eabi/lib/thumb/v7e-m/fpv4-sp/hard/libc_nano.a(lib_a-malloc.o)
                                                  /Users/augustmason/Documents/gitHub/riptide_firmware/STM32/gcc-arm-none-eabi-6-2017-q2-update/bin/../lib/gcc/arm-none-eabi/6.3.1/../../../../arm-none-eabi/lib/thumb/v7e-m/fpv4-sp/hard/libc_nano.a(lib_a-efgcvt.o)
_init                                             /Users/augustmason/Documents/gitHub/riptide_firmware/STM32/gcc-arm-none-eabi-6-2017-q2-update/bin/../lib/gcc/arm-none-eabi/6.3.1/thumb/v7e-m/fpv4-sp/hard/crti.o
                                                  /Users/augustmason/Documents/gitHub/riptide_firmware/STM32/gcc-arm-none-eabi-6-2017-q2-update/bin/../lib/gcc/arm-none-eabi/6.3.1/../../../../arm-none-eabi/lib/thumb/v7e-m/fpv4-sp/hard/libc_nano.a(lib_a-init.o)
_mainCRTStartup                                   /Users/augustmason/Documents/gitHub/riptide_firmware/STM32/gcc-arm-none-eabi-6-2017-q2-update/bin/../lib/gcc/arm-none-eabi/6.3.1/../../../../arm-none-eabi/lib/thumb/v7e-m/fpv4-sp/hard/crt0.o
_malloc_r                                         /Users/augustmason/Documents/gitHub/riptide_firmware/STM32/gcc-arm-none-eabi-6-2017-q2-update/bin/../lib/gcc/arm-none-eabi/6.3.1/../../../../arm-none-eabi/lib/thumb/v7e-m/fpv4-sp/hard/libc_nano.a(lib_a-nano-mallocr.o)
                                                  /Users/augustmason/Documents/gitHub/riptide_firmware/STM32/gcc-arm-none-eabi-6-2017-q2-update/bin/../lib/gcc/arm-none-eabi/6.3.1/../../../../arm-none-eabi/lib/thumb/v7e-m/fpv4-sp/hard/libc_nano.a(lib_a-nano-reallocr.o)
                                                  /Users/augustmason/Documents/gitHub/riptide_firmware/STM32/gcc-arm-none-eabi-6-2017-q2-update/bin/../lib/gcc/arm-none-eabi/6.3.1/../../../../arm-none-eabi/lib/thumb/v7e-m/fpv4-sp/hard/libc_nano.a(lib_a-nano-callocr.o)
                                                  /Users/augustmason/Documents/gitHub/riptide_firmware/STM32/gcc-arm-none-eabi-6-2017-q2-update/bin/../lib/gcc/arm-none-eabi/6.3.1/../../../../arm-none-eabi/lib/thumb/v7e-m/fpv4-sp/hard/libc_nano.a(lib_a-malloc.o)
_malloc_usable_size_r                             /Users/augustmason/Documents/gitHub/riptide_firmware/STM32/gcc-arm-none-eabi-6-2017-q2-update/bin/../lib/gcc/arm-none-eabi/6.3.1/../../../../arm-none-eabi/lib/thumb/v7e-m/fpv4-sp/hard/libc_nano.a(lib_a-nano-msizer.o)
                                                  /Users/augustmason/Documents/gitHub/riptide_firmware/STM32/gcc-arm-none-eabi-6-2017-q2-update/bin/../lib/gcc/arm-none-eabi/6.3.1/../../../../arm-none-eabi/lib/thumb/v7e-m/fpv4-sp/hard/libc_nano.a(lib_a-nano-reallocr.o)
_mbtowc_r                                         /Users/augustmason/Documents/gitHub/riptide_firmware/STM32/gcc-arm-none-eabi-6-2017-q2-update/bin/../lib/gcc/arm-none-eabi/6.3.1/../../../../arm-none-eabi/lib/thumb/v7e-m/fpv4-sp/hard/libc_nano.a(lib_a-mbtowc_r.o)
_mprec_log10                                      /Users/augustmason/Documents/gitHub/riptide_firmware/STM32/gcc-arm-none-eabi-6-2017-q2-update/bin/../lib/gcc/arm-none-eabi/6.3.1/../../../../arm-none-eabi/lib/thumb/v7e-m/fpv4-sp/hard/libc_nano.a(lib_a-mprec.o)
                                                  /Users/augustmason/Documents/gitHub/riptide_firmware/STM32/gcc-arm-none-eabi-6-2017-q2-update/bin/../lib/gcc/arm-none-eabi/6.3.1/../../../../arm-none-eabi/lib/thumb/v7e-m/fpv4-sp/hard/libc_nano.a(lib_a-ecvtbuf.o)
_realloc_r                                        /Users/augustmason/Documents/gitHub/riptide_firmware/STM32/gcc-arm-none-eabi-6-2017-q2-update/bin/../lib/gcc/arm-none-eabi/6.3.1/../../../../arm-none-eabi/lib/thumb/v7e-m/fpv4-sp/hard/libc_nano.a(lib_a-nano-reallocr.o)
                                                  /Users/augustmason/Documents/gitHub/riptide_firmware/STM32/gcc-arm-none-eabi-6-2017-q2-update/bin/../lib/gcc/arm-none-eabi/6.3.1/../../../../arm-none-eabi/lib/thumb/v7e-m/fpv4-sp/hard/libc_nano.a(lib_a-ecvtbuf.o)
_reclaim_reent                                    /Users/augustmason/Documents/gitHub/riptide_firmware/STM32/gcc-arm-none-eabi-6-2017-q2-update/bin/../lib/gcc/arm-none-eabi/6.3.1/../../../../arm-none-eabi/lib/thumb/v7e-m/fpv4-sp/hard/libc_nano.a(lib_a-reent.o)
_sbrk                                             /Users/augustmason/Documents/gitHub/riptide_firmware/STM32/gcc-arm-none-eabi-6-2017-q2-update/bin/../lib/gcc/arm-none-eabi/6.3.1/../../../../arm-none-eabi/lib/thumb/v7e-m/fpv4-sp/hard/libnosys.a(sbrk.o)
                                                  /Users/augustmason/Documents/gitHub/riptide_firmware/STM32/gcc-arm-none-eabi-6-2017-q2-update/bin/../lib/gcc/arm-none-eabi/6.3.1/../../../../arm-none-eabi/lib/thumb/v7e-m/fpv4-sp/hard/libc_nano.a(lib_a-sbrkr.o)
_sbrk_r                                           /Users/augustmason/Documents/gitHub/riptide_firmware/STM32/gcc-arm-none-eabi-6-2017-q2-update/bin/../lib/gcc/arm-none-eabi/6.3.1/../../../../arm-none-eabi/lib/thumb/v7e-m/fpv4-sp/hard/libc_nano.a(lib_a-sbrkr.o)
                                                  /Users/augustmason/Documents/gitHub/riptide_firmware/STM32/gcc-arm-none-eabi-6-2017-q2-update/bin/../lib/gcc/arm-none-eabi/6.3.1/../../../../arm-none-eabi/lib/thumb/v7e-m/fpv4-sp/hard/libc_nano.a(lib_a-nano-mallocr.o)
_sbss                                             build/startup_stm32f405xx.o
_sdata                                            build/startup_stm32f405xx.o
_setlocale_r                                      /Users/augustmason/Documents/gitHub/riptide_firmware/STM32/gcc-arm-none-eabi-6-2017-q2-update/bin/../lib/gcc/arm-none-eabi/6.3.1/../../../../arm-none-eabi/lib/thumb/v7e-m/fpv4-sp/hard/libc_nano.a(lib_a-locale.o)
_sidata                                           build/startup_stm32f405xx.o
_start                                            /Users/augustmason/Documents/gitHub/riptide_firmware/STM32/gcc-arm-none-eabi-6-2017-q2-update/bin/../lib/gcc/arm-none-eabi/6.3.1/../../../../arm-none-eabi/lib/thumb/v7e-m/fpv4-sp/hard/crt0.o
_strtol_r                                         /Users/augustmason/Documents/gitHub/riptide_firmware/STM32/gcc-arm-none-eabi-6-2017-q2-update/bin/../lib/gcc/arm-none-eabi/6.3.1/../../../../arm-none-eabi/lib/thumb/v7e-m/fpv4-sp/hard/libc_nano.a(lib_a-strtol.o)
                                                  /Users/augustmason/Documents/gitHub/riptide_firmware/STM32/gcc-arm-none-eabi-6-2017-q2-update/bin/../lib/gcc/arm-none-eabi/6.3.1/../../../../arm-none-eabi/lib/thumb/v7e-m/fpv4-sp/hard/libc_nano.a(lib_a-atoi.o)
_wctomb_r                                         /Users/augustmason/Documents/gitHub/riptide_firmware/STM32/gcc-arm-none-eabi-6-2017-q2-update/bin/../lib/gcc/arm-none-eabi/6.3.1/../../../../arm-none-eabi/lib/thumb/v7e-m/fpv4-sp/hard/libc_nano.a(lib_a-wctomb_r.o)
atexit                                            /Users/augustmason/Documents/gitHub/riptide_firmware/STM32/gcc-arm-none-eabi-6-2017-q2-update/bin/../lib/gcc/arm-none-eabi/6.3.1/../../../../arm-none-eabi/lib/thumb/v7e-m/fpv4-sp/hard/crt0.o
atoi                                              /Users/augustmason/Documents/gitHub/riptide_firmware/STM32/gcc-arm-none-eabi-6-2017-q2-update/bin/../lib/gcc/arm-none-eabi/6.3.1/../../../../arm-none-eabi/lib/thumb/v7e-m/fpv4-sp/hard/libc_nano.a(lib_a-atoi.o)
                                                  build/riptideFunctions.o
calculate                                         build/riptideFunctions.o
                                                  build/riptideThreads.o
cleanup_glue                                      /Users/augustmason/Documents/gitHub/riptide_firmware/STM32/gcc-arm-none-eabi-6-2017-q2-update/bin/../lib/gcc/arm-none-eabi/6.3.1/../../../../arm-none-eabi/lib/thumb/v7e-m/fpv4-sp/hard/libc_nano.a(lib_a-reent.o)
convert                                           build/riptideFunctions.o
                                                  build/riptideThreads.o
crc4                                              build/riptideFunctions.o
                                                  build/riptideThreads.o
defaultTaskHandle                                 build/main.o
ecvt                                              /Users/augustmason/Documents/gitHub/riptide_firmware/STM32/gcc-arm-none-eabi-6-2017-q2-update/bin/../lib/gcc/arm-none-eabi/6.3.1/../../../../arm-none-eabi/lib/thumb/v7e-m/fpv4-sp/hard/libc_nano.a(lib_a-efgcvt.o)
ecvtbuf                                           /Users/augustmason/Documents/gitHub/riptide_firmware/STM32/gcc-arm-none-eabi-6-2017-q2-update/bin/../lib/gcc/arm-none-eabi/6.3.1/../../../../arm-none-eabi/lib/thumb/v7e-m/fpv4-sp/hard/libc_nano.a(lib_a-ecvtbuf.o)
                                                  /Users/augustmason/Documents/gitHub/riptide_firmware/STM32/gcc-arm-none-eabi-6-2017-q2-update/bin/../lib/gcc/arm-none-eabi/6.3.1/../../../../arm-none-eabi/lib/thumb/v7e-m/fpv4-sp/hard/libc_nano.a(lib_a-efgcvt.o)
ecvtf                                             /Users/augustmason/Documents/gitHub/riptide_firmware/STM32/gcc-arm-none-eabi-6-2017-q2-update/bin/../lib/gcc/arm-none-eabi/6.3.1/../../../../arm-none-eabi/lib/thumb/v7e-m/fpv4-sp/hard/libc_nano.a(lib_a-efgcvt.o)
end                                               /Users/augustmason/Documents/gitHub/riptide_firmware/STM32/gcc-arm-none-eabi-6-2017-q2-update/bin/../lib/gcc/arm-none-eabi/6.3.1/../../../../arm-none-eabi/lib/thumb/v7e-m/fpv4-sp/hard/libnosys.a(sbrk.o)
errno                                             /Users/augustmason/Documents/gitHub/riptide_firmware/STM32/gcc-arm-none-eabi-6-2017-q2-update/bin/../lib/gcc/arm-none-eabi/6.3.1/../../../../arm-none-eabi/lib/thumb/v7e-m/fpv4-sp/hard/libc_nano.a(lib_a-reent.o)
                                                  /Users/augustmason/Documents/gitHub/riptide_firmware/STM32/gcc-arm-none-eabi-6-2017-q2-update/bin/../lib/gcc/arm-none-eabi/6.3.1/../../../../arm-none-eabi/lib/thumb/v7e-m/fpv4-sp/hard/libc_nano.a(lib_a-sbrkr.o)
exit                                              /Users/augustmason/Documents/gitHub/riptide_firmware/STM32/gcc-arm-none-eabi-6-2017-q2-update/bin/../lib/gcc/arm-none-eabi/6.3.1/../../../../arm-none-eabi/lib/thumb/v7e-m/fpv4-sp/hard/libc_nano.a(lib_a-exit.o)
                                                  /Users/augustmason/Documents/gitHub/riptide_firmware/STM32/gcc-arm-none-eabi-6-2017-q2-update/bin/../lib/gcc/arm-none-eabi/6.3.1/../../../../arm-none-eabi/lib/thumb/v7e-m/fpv4-sp/hard/crt0.o
fcvt                                              /Users/augustmason/Documents/gitHub/riptide_firmware/STM32/gcc-arm-none-eabi-6-2017-q2-update/bin/../lib/gcc/arm-none-eabi/6.3.1/../../../../arm-none-eabi/lib/thumb/v7e-m/fpv4-sp/hard/libc_nano.a(lib_a-efgcvt.o)
fcvtbuf                                           /Users/augustmason/Documents/gitHub/riptide_firmware/STM32/gcc-arm-none-eabi-6-2017-q2-update/bin/../lib/gcc/arm-none-eabi/6.3.1/../../../../arm-none-eabi/lib/thumb/v7e-m/fpv4-sp/hard/libc_nano.a(lib_a-ecvtbuf.o)
                                                  /Users/augustmason/Documents/gitHub/riptide_firmware/STM32/gcc-arm-none-eabi-6-2017-q2-update/bin/../lib/gcc/arm-none-eabi/6.3.1/../../../../arm-none-eabi/lib/thumb/v7e-m/fpv4-sp/hard/libc_nano.a(lib_a-efgcvt.o)
fcvtf                                             /Users/augustmason/Documents/gitHub/riptide_firmware/STM32/gcc-arm-none-eabi-6-2017-q2-update/bin/../lib/gcc/arm-none-eabi/6.3.1/../../../../arm-none-eabi/lib/thumb/v7e-m/fpv4-sp/hard/libc_nano.a(lib_a-efgcvt.o)
free                                              /Users/augustmason/Documents/gitHub/riptide_firmware/STM32/gcc-arm-none-eabi-6-2017-q2-update/bin/../lib/gcc/arm-none-eabi/6.3.1/../../../../arm-none-eabi/lib/thumb/v7e-m/fpv4-sp/hard/libc_nano.a(lib_a-malloc.o)
                                                  build/usbd_cdc.o
g_pfnVectors                                      build/startup_stm32f405xx.o
gcvt                                              /Users/augustmason/Documents/gitHub/riptide_firmware/STM32/gcc-arm-none-eabi-6-2017-q2-update/bin/../lib/gcc/arm-none-eabi/6.3.1/../../../../arm-none-eabi/lib/thumb/v7e-m/fpv4-sp/hard/libc_nano.a(lib_a-efgcvt.o)
                                                  build/riptideThreads.o
gcvtf                                             /Users/augustmason/Documents/gitHub/riptide_firmware/STM32/gcc-arm-none-eabi-6-2017-q2-update/bin/../lib/gcc/arm-none-eabi/6.3.1/../../../../arm-none-eabi/lib/thumb/v7e-m/fpv4-sp/hard/libc_nano.a(lib_a-efgcvt.o)
getI2CRef                                         build/main.o
                                                  build/riptideThreads.o
hUsbDeviceHS                                      build/usb_device.o
                                                  build/usbd_cdc_if.o
hardware_init_hook                                /Users/augustmason/Documents/gitHub/riptide_firmware/STM32/gcc-arm-none-eabi-6-2017-q2-update/bin/../lib/gcc/arm-none-eabi/6.3.1/../../../../arm-none-eabi/lib/thumb/v7e-m/fpv4-sp/hard/crt0.o
hi2c1                                             build/main.o
hi2c3                                             build/main.o
hpcd_USB_OTG_HS                                   build/usbd_conf.o
                                                  build/stm32f4xx_it.o
htim1                                             build/stm32f4xx_hal_timebase_TIM.o
                                                  build/stm32f4xx_it.o
htim13                                            build/main.o
htim14                                            build/main.o
htim2                                             build/main.o
htim3                                             build/main.o
htim5                                             build/main.o
main                                              build/main.o
                                                  build/startup_stm32f405xx.o
                                                  /Users/augustmason/Documents/gitHub/riptide_firmware/STM32/gcc-arm-none-eabi-6-2017-q2-update/bin/../lib/gcc/arm-none-eabi/6.3.1/../../../../arm-none-eabi/lib/thumb/v7e-m/fpv4-sp/hard/crt0.o
malloc                                            /Users/augustmason/Documents/gitHub/riptide_firmware/STM32/gcc-arm-none-eabi-6-2017-q2-update/bin/../lib/gcc/arm-none-eabi/6.3.1/../../../../arm-none-eabi/lib/thumb/v7e-m/fpv4-sp/hard/libc_nano.a(lib_a-malloc.o)
                                                  /Users/augustmason/Documents/gitHub/riptide_firmware/STM32/gcc-arm-none-eabi-6-2017-q2-update/bin/../lib/gcc/arm-none-eabi/6.3.1/../../../../arm-none-eabi/lib/thumb/v7e-m/fpv4-sp/hard/libc_nano.a(lib_a-dtoa.o)
                                                  /Users/augustmason/Documents/gitHub/riptide_firmware/STM32/gcc-arm-none-eabi-6-2017-q2-update/bin/../lib/gcc/arm-none-eabi/6.3.1/../../../../arm-none-eabi/lib/thumb/v7e-m/fpv4-sp/hard/libc_nano.a(lib_a-mprec.o)
                                                  build/usbd_cdc.o
memcpy                                            /Users/augustmason/Documents/gitHub/riptide_firmware/STM32/gcc-arm-none-eabi-6-2017-q2-update/bin/../lib/gcc/arm-none-eabi/6.3.1/../../../../arm-none-eabi/lib/thumb/v7e-m/fpv4-sp/hard/libc_nano.a(lib_a-memcpy-stub.o)
                                                  /Users/augustmason/Documents/gitHub/riptide_firmware/STM32/gcc-arm-none-eabi-6-2017-q2-update/bin/../lib/gcc/arm-none-eabi/6.3.1/../../../../arm-none-eabi/lib/thumb/v7e-m/fpv4-sp/hard/libc_nano.a(lib_a-dtoa.o)
                                                  /Users/augustmason/Documents/gitHub/riptide_firmware/STM32/gcc-arm-none-eabi-6-2017-q2-update/bin/../lib/gcc/arm-none-eabi/6.3.1/../../../../arm-none-eabi/lib/thumb/v7e-m/fpv4-sp/hard/libc_nano.a(lib_a-nano-reallocr.o)
                                                  /Users/augustmason/Documents/gitHub/riptide_firmware/STM32/gcc-arm-none-eabi-6-2017-q2-update/bin/../lib/gcc/arm-none-eabi/6.3.1/../../../../arm-none-eabi/lib/thumb/v7e-m/fpv4-sp/hard/libc_nano.a(lib_a-mprec.o)
                                                  build/queue.o
memset                                            /Users/augustmason/Documents/gitHub/riptide_firmware/STM32/gcc-arm-none-eabi-6-2017-q2-update/bin/../lib/gcc/arm-none-eabi/6.3.1/../../../../arm-none-eabi/lib/thumb/v7e-m/fpv4-sp/hard/libc_nano.a(lib_a-memset.o)
                                                  /Users/augustmason/Documents/gitHub/riptide_firmware/STM32/gcc-arm-none-eabi-6-2017-q2-update/bin/../lib/gcc/arm-none-eabi/6.3.1/../../../../arm-none-eabi/lib/thumb/v7e-m/fpv4-sp/hard/libc_nano.a(lib_a-nano-callocr.o)
                                                  /Users/augustmason/Documents/gitHub/riptide_firmware/STM32/gcc-arm-none-eabi-6-2017-q2-update/bin/../lib/gcc/arm-none-eabi/6.3.1/../../../../arm-none-eabi/lib/thumb/v7e-m/fpv4-sp/hard/crt0.o
osAbortDelay                                      build/cmsis_os.o
osDelay                                           build/cmsis_os.o
                                                  build/main.o
osDelayUntil                                      build/cmsis_os.o
osKernelRunning                                   build/cmsis_os.o
osKernelStart                                     build/cmsis_os.o
                                                  build/main.o
osKernelSysTick                                   build/cmsis_os.o
osMailAlloc                                       build/cmsis_os.o
osMailCAlloc                                      build/cmsis_os.o
osMailCreate                                      build/cmsis_os.o
osMailFree                                        build/cmsis_os.o
osMailGet                                         build/cmsis_os.o
osMailPut                                         build/cmsis_os.o
osMessageAvailableSpace                           build/cmsis_os.o
osMessageCreate                                   build/cmsis_os.o
osMessageDelete                                   build/cmsis_os.o
osMessageGet                                      build/cmsis_os.o
osMessagePeek                                     build/cmsis_os.o
osMessagePut                                      build/cmsis_os.o
osMessageWaiting                                  build/cmsis_os.o
osMutexCreate                                     build/cmsis_os.o
osMutexDelete                                     build/cmsis_os.o
osMutexRelease                                    build/cmsis_os.o
osMutexWait                                       build/cmsis_os.o
osPoolAlloc                                       build/cmsis_os.o
osPoolCAlloc                                      build/cmsis_os.o
osPoolCreate                                      build/cmsis_os.o
osPoolFree                                        build/cmsis_os.o
osRecursiveMutexCreate                            build/cmsis_os.o
osRecursiveMutexRelease                           build/cmsis_os.o
osRecursiveMutexWait                              build/cmsis_os.o
osSemaphoreCreate                                 build/cmsis_os.o
osSemaphoreDelete                                 build/cmsis_os.o
osSemaphoreGetCount                               build/cmsis_os.o
osSemaphoreRelease                                build/cmsis_os.o
osSemaphoreWait                                   build/cmsis_os.o
osSignalSet                                       build/cmsis_os.o
osSignalWait                                      build/cmsis_os.o
osSystickHandler                                  build/cmsis_os.o
                                                  build/stm32f4xx_it.o
osThreadCreate                                    build/cmsis_os.o
                                                  build/main.o
osThreadGetId                                     build/cmsis_os.o
osThreadGetPriority                               build/cmsis_os.o
osThreadList                                      build/cmsis_os.o
osThreadResume                                    build/cmsis_os.o
osThreadResumeAll                                 build/cmsis_os.o
osThreadSetPriority                               build/cmsis_os.o
osThreadSuspend                                   build/cmsis_os.o
osThreadSuspendAll                                build/cmsis_os.o
osThreadTerminate                                 build/cmsis_os.o
osThreadYield                                     build/cmsis_os.o
osTimerCreate                                     build/cmsis_os.o
osTimerDelete                                     build/cmsis_os.o
osTimerStart                                      build/cmsis_os.o
osTimerStop                                       build/cmsis_os.o
pFlash                                            build/stm32f4xx_hal_flash.o
                                                  build/stm32f4xx_hal_flash_ex.o
parse                                             build/riptideFunctions.o
pcQueueGetName                                    build/queue.o
pcTaskGetName                                     build/tasks.o
pvPortMalloc                                      build/heap_4.o
                                                  build/event_groups.o
                                                  build/queue.o
                                                  build/tasks.o
                                                  build/cmsis_os.o
pvTaskIncrementMutexHeldCount                     build/tasks.o
                                                  build/queue.o
pxCurrentTCB                                      build/tasks.o
                                                  build/port.o
pxPortInitialiseStack                             build/port.o
                                                  build/tasks.o
resetPWM                                          build/main.o
                                                  build/riptideThreads.o
riptideMain                                       build/riptideMain.o
                                                  build/main.o
setlocale                                         /Users/augustmason/Documents/gitHub/riptide_firmware/STM32/gcc-arm-none-eabi-6-2017-q2-update/bin/../lib/gcc/arm-none-eabi/6.3.1/../../../../arm-none-eabi/lib/thumb/v7e-m/fpv4-sp/hard/libc_nano.a(lib_a-locale.o)
software_init_hook                                /Users/augustmason/Documents/gitHub/riptide_firmware/STM32/gcc-arm-none-eabi-6-2017-q2-update/bin/../lib/gcc/arm-none-eabi/6.3.1/../../../../arm-none-eabi/lib/thumb/v7e-m/fpv4-sp/hard/crt0.o
strcmp                                            /Users/augustmason/Documents/gitHub/riptide_firmware/STM32/gcc-arm-none-eabi-6-2017-q2-update/bin/../lib/gcc/arm-none-eabi/6.3.1/../../../../arm-none-eabi/lib/thumb/v7e-m/fpv4-sp/hard/libc_nano.a(lib_a-strcmp.o)
                                                  /Users/augustmason/Documents/gitHub/riptide_firmware/STM32/gcc-arm-none-eabi-6-2017-q2-update/bin/../lib/gcc/arm-none-eabi/6.3.1/../../../../arm-none-eabi/lib/thumb/v7e-m/fpv4-sp/hard/libc_nano.a(lib_a-locale.o)
strcpy                                            /Users/augustmason/Documents/gitHub/riptide_firmware/STM32/gcc-arm-none-eabi-6-2017-q2-update/bin/../lib/gcc/arm-none-eabi/6.3.1/../../../../arm-none-eabi/lib/thumb/v7e-m/fpv4-sp/hard/libc_nano.a(lib_a-strcpy.o)
                                                  /Users/augustmason/Documents/gitHub/riptide_firmware/STM32/gcc-arm-none-eabi-6-2017-q2-update/bin/../lib/gcc/arm-none-eabi/6.3.1/../../../../arm-none-eabi/lib/thumb/v7e-m/fpv4-sp/hard/libc_nano.a(lib_a-ecvtbuf.o)
strlen                                            /Users/augustmason/Documents/gitHub/riptide_firmware/STM32/gcc-arm-none-eabi-6-2017-q2-update/bin/../lib/gcc/arm-none-eabi/6.3.1/../../../../arm-none-eabi/lib/thumb/v7e-m/fpv4-sp/hard/libc_nano.a(lib_a-strlen.o)
                                                  build/riptideThreads.o
strtol                                            /Users/augustmason/Documents/gitHub/riptide_firmware/STM32/gcc-arm-none-eabi-6-2017-q2-update/bin/../lib/gcc/arm-none-eabi/6.3.1/../../../../arm-none-eabi/lib/thumb/v7e-m/fpv4-sp/hard/libc_nano.a(lib_a-strtol.o)
                                                  /Users/augustmason/Documents/gitHub/riptide_firmware/STM32/gcc-arm-none-eabi-6-2017-q2-update/bin/../lib/gcc/arm-none-eabi/6.3.1/../../../../arm-none-eabi/lib/thumb/v7e-m/fpv4-sp/hard/libc_nano.a(lib_a-atoi.o)
strtol_l                                          /Users/augustmason/Documents/gitHub/riptide_firmware/STM32/gcc-arm-none-eabi-6-2017-q2-update/bin/../lib/gcc/arm-none-eabi/6.3.1/../../../../arm-none-eabi/lib/thumb/v7e-m/fpv4-sp/hard/libc_nano.a(lib_a-strtol.o)
ulTaskNotifyTake                                  build/tasks.o
uwIncrementState                                  build/stm32f4xx_hal_timebase_TIM.o
uwTick                                            build/stm32f4xx_hal.o
uxListRemove                                      build/list.o
                                                  build/tasks.o
uxQueueMessagesWaiting                            build/queue.o
                                                  build/cmsis_os.o
uxQueueMessagesWaitingFromISR                     build/queue.o
                                                  build/cmsis_os.o
uxQueueSpacesAvailable                            build/queue.o
                                                  build/cmsis_os.o
uxTaskGetNumberOfTasks                            build/tasks.o
uxTaskPriorityGet                                 build/tasks.o
                                                  build/cmsis_os.o
uxTaskPriorityGetFromISR                          build/tasks.o
                                                  build/cmsis_os.o
uxTaskResetEventItemValue                         build/tasks.o
                                                  build/event_groups.o
vDepthSensor                                      build/riptideThreads.o
                                                  build/riptideMain.o
vEventGroupClearBitsCallback                      build/event_groups.o
vEventGroupDelete                                 build/event_groups.o
vEventGroupSetBitsCallback                        build/event_groups.o
vHeartbeat                                        build/riptideThreads.o
                                                  build/riptideMain.o
vKillSwitch                                       build/riptideThreads.o
                                                  build/riptideMain.o
vListInitialise                                   build/list.o
                                                  build/event_groups.o
                                                  build/queue.o
                                                  build/tasks.o
vListInitialiseItem                               build/list.o
                                                  build/tasks.o
vListInsert                                       build/list.o
                                                  build/tasks.o
vListInsertEnd                                    build/list.o
                                                  build/tasks.o
vPortEndScheduler                                 build/port.o
                                                  build/tasks.o
vPortEnterCritical                                build/port.o
                                                  build/event_groups.o
                                                  build/queue.o
                                                  build/tasks.o
                                                  build/cmsis_os.o
vPortExitCritical                                 build/port.o
                                                  build/event_groups.o
                                                  build/queue.o
                                                  build/tasks.o
                                                  build/cmsis_os.o
vPortFree                                         build/heap_4.o
                                                  build/event_groups.o
                                                  build/queue.o
                                                  build/tasks.o
                                                  build/cmsis_os.o
vPortInitialiseBlocks                             build/heap_4.o
vPortSetupTimerInterrupt                          build/port.o
vPortValidateInterruptPriority                    build/port.o
                                                  build/queue.o
                                                  build/tasks.o
vQueueAddToRegistry                               build/queue.o
vQueueDelete                                      build/queue.o
                                                  build/cmsis_os.o
vQueueUnregisterQueue                             build/queue.o
vSwitchMonitor                                    build/riptideThreads.o
                                                  build/riptideMain.o
vTaskDelay                                        build/tasks.o
                                                  build/riptideThreads.o
                                                  build/cmsis_os.o
vTaskDelete                                       build/tasks.o
                                                  build/cmsis_os.o
vTaskEndScheduler                                 build/tasks.o
vTaskMissedYield                                  build/tasks.o
                                                  build/queue.o
vTaskNotifyGiveFromISR                            build/tasks.o
vTaskPlaceOnEventList                             build/tasks.o
                                                  build/queue.o
vTaskPlaceOnUnorderedEventList                    build/tasks.o
                                                  build/event_groups.o
vTaskPriorityInherit                              build/tasks.o
                                                  build/queue.o
vTaskPrioritySet                                  build/tasks.o
                                                  build/cmsis_os.o
vTaskResume                                       build/tasks.o
                                                  build/cmsis_os.o
vTaskSetTimeOutState                              build/tasks.o
                                                  build/queue.o
vTaskStartScheduler                               build/tasks.o
                                                  build/cmsis_os.o
vTaskSuspend                                      build/tasks.o
                                                  build/cmsis_os.o
vTaskSuspendAll                                   build/tasks.o
                                                  build/event_groups.o
                                                  build/queue.o
                                                  build/cmsis_os.o
                                                  build/heap_4.o
vTaskSwitchContext                                build/tasks.o
                                                  build/port.o
writePWM                                          build/main.o
                                                  build/riptideFunctions.o
xEventGroupClearBits                              build/event_groups.o
xEventGroupCreate                                 build/event_groups.o
xEventGroupGetBitsFromISR                         build/event_groups.o
xEventGroupSetBits                                build/event_groups.o
xEventGroupSync                                   build/event_groups.o
xEventGroupWaitBits                               build/event_groups.o
xPortGetFreeHeapSize                              build/heap_4.o
xPortGetMinimumEverFreeHeapSize                   build/heap_4.o
xPortStartScheduler                               build/port.o
                                                  build/tasks.o
xPortSysTickHandler                               build/port.o
                                                  build/cmsis_os.o
xQueueCreateMutex                                 build/queue.o
                                                  build/cmsis_os.o
xQueueGenericCreate                               build/queue.o
                                                  build/cmsis_os.o
xQueueGenericReceive                              build/queue.o
                                                  build/cmsis_os.o
xQueueGenericReset                                build/queue.o
xQueueGenericSend                                 build/queue.o
                                                  build/cmsis_os.o
xQueueGenericSendFromISR                          build/queue.o
                                                  build/cmsis_os.o
xQueueGiveFromISR                                 build/queue.o
                                                  build/cmsis_os.o
xQueueIsQueueEmptyFromISR                         build/queue.o
xQueueIsQueueFullFromISR                          build/queue.o
xQueuePeekFromISR                                 build/queue.o
xQueueReceiveFromISR                              build/queue.o
                                                  build/cmsis_os.o
xQueueRegistry                                    build/queue.o
xTaskCheckForTimeOut                              build/tasks.o
                                                  build/queue.o
xTaskCreate                                       build/tasks.o
                                                  build/riptideMain.o
                                                  build/cmsis_os.o
xTaskGenericNotify                                build/tasks.o
                                                  build/cmsis_os.o
xTaskGenericNotifyFromISR                         build/tasks.o
                                                  build/cmsis_os.o
xTaskGetCurrentTaskHandle                         build/tasks.o
                                                  build/cmsis_os.o
xTaskGetSchedulerState                            build/tasks.o
                                                  build/event_groups.o
                                                  build/queue.o
                                                  build/cmsis_os.o
xTaskGetTickCount                                 build/tasks.o
                                                  build/cmsis_os.o
xTaskGetTickCountFromISR                          build/tasks.o
                                                  build/cmsis_os.o
xTaskIncrementTick                                build/tasks.o
                                                  build/port.o
xTaskNotifyStateClear                             build/tasks.o
xTaskNotifyWait                                   build/tasks.o
                                                  build/cmsis_os.o
xTaskPriorityDisinherit                           build/tasks.o
                                                  build/queue.o
xTaskRemoveFromEventList                          build/tasks.o
                                                  build/queue.o
xTaskRemoveFromUnorderedEventList                 build/tasks.o
                                                  build/event_groups.o
xTaskResumeAll                                    build/tasks.o
                                                  build/event_groups.o
                                                  build/queue.o
                                                  build/cmsis_os.o
                                                  build/heap_4.o
xTaskResumeFromISR                                build/tasks.o
                                                  build/cmsis_os.o
