ARM GAS  /var/folders/7p/1_dhylqx7nl5s8914_0f_4w00000gn/T//ccPpXWzH.s 			page 1


   1              		.cpu cortex-m4
   2              		.eabi_attribute 27, 1
   3              		.eabi_attribute 28, 1
   4              		.eabi_attribute 20, 1
   5              		.eabi_attribute 21, 1
   6              		.eabi_attribute 23, 3
   7              		.eabi_attribute 24, 1
   8              		.eabi_attribute 25, 1
   9              		.eabi_attribute 26, 1
  10              		.eabi_attribute 30, 1
  11              		.eabi_attribute 34, 1
  12              		.eabi_attribute 18, 4
  13              		.file	"stm32f4xx_hal_can.c"
  14              		.text
  15              	.Ltext0:
  16              		.cfi_sections	.debug_frame
  17              		.section	.text.HAL_CAN_ConfigFilter,"ax",%progbits
  18              		.align	1
  19              		.global	HAL_CAN_ConfigFilter
  20              		.syntax unified
  21              		.thumb
  22              		.thumb_func
  23              		.fpu fpv4-sp-d16
  25              	HAL_CAN_ConfigFilter:
  26              	.LFB125:
  27              		.file 1 "Drivers/STM32F4xx_HAL_Driver/Src/stm32f4xx_hal_can.c"
   1:Drivers/STM32F4xx_HAL_Driver/Src/stm32f4xx_hal_can.c **** /**
   2:Drivers/STM32F4xx_HAL_Driver/Src/stm32f4xx_hal_can.c ****   ******************************************************************************
   3:Drivers/STM32F4xx_HAL_Driver/Src/stm32f4xx_hal_can.c ****   * @file    stm32f4xx_hal_can.c
   4:Drivers/STM32F4xx_HAL_Driver/Src/stm32f4xx_hal_can.c ****   * @author  MCD Application Team
   5:Drivers/STM32F4xx_HAL_Driver/Src/stm32f4xx_hal_can.c ****   * @version V1.7.1
   6:Drivers/STM32F4xx_HAL_Driver/Src/stm32f4xx_hal_can.c ****   * @date    14-April-2017
   7:Drivers/STM32F4xx_HAL_Driver/Src/stm32f4xx_hal_can.c ****   * @brief   This file provides firmware functions to manage the following 
   8:Drivers/STM32F4xx_HAL_Driver/Src/stm32f4xx_hal_can.c ****   *          functionalities of the Controller Area Network (CAN) peripheral:
   9:Drivers/STM32F4xx_HAL_Driver/Src/stm32f4xx_hal_can.c ****   *           + Initialization and de-initialization functions 
  10:Drivers/STM32F4xx_HAL_Driver/Src/stm32f4xx_hal_can.c ****   *           + IO operation functions
  11:Drivers/STM32F4xx_HAL_Driver/Src/stm32f4xx_hal_can.c ****   *           + Peripheral Control functions
  12:Drivers/STM32F4xx_HAL_Driver/Src/stm32f4xx_hal_can.c ****   *           + Peripheral State and Error functions
  13:Drivers/STM32F4xx_HAL_Driver/Src/stm32f4xx_hal_can.c ****   *
  14:Drivers/STM32F4xx_HAL_Driver/Src/stm32f4xx_hal_can.c ****   @verbatim
  15:Drivers/STM32F4xx_HAL_Driver/Src/stm32f4xx_hal_can.c ****   ==============================================================================
  16:Drivers/STM32F4xx_HAL_Driver/Src/stm32f4xx_hal_can.c ****                         ##### How to use this driver #####
  17:Drivers/STM32F4xx_HAL_Driver/Src/stm32f4xx_hal_can.c ****   ==============================================================================
  18:Drivers/STM32F4xx_HAL_Driver/Src/stm32f4xx_hal_can.c ****     [..]            
  19:Drivers/STM32F4xx_HAL_Driver/Src/stm32f4xx_hal_can.c ****       (#) Enable the CAN controller interface clock using 
  20:Drivers/STM32F4xx_HAL_Driver/Src/stm32f4xx_hal_can.c ****           __HAL_RCC_CAN1_CLK_ENABLE() for CAN1, __HAL_RCC_CAN2_CLK_ENABLE() for CAN2
  21:Drivers/STM32F4xx_HAL_Driver/Src/stm32f4xx_hal_can.c ****          and __HAL_RCC_CAN3_CLK_ENABLE() for CAN3
  22:Drivers/STM32F4xx_HAL_Driver/Src/stm32f4xx_hal_can.c ****       -@- In case you are using CAN2 only, you have to enable the CAN1 clock.
  23:Drivers/STM32F4xx_HAL_Driver/Src/stm32f4xx_hal_can.c ****        
  24:Drivers/STM32F4xx_HAL_Driver/Src/stm32f4xx_hal_can.c ****       (#) CAN pins configuration
  25:Drivers/STM32F4xx_HAL_Driver/Src/stm32f4xx_hal_can.c ****         (++) Enable the clock for the CAN GPIOs using the following function:
  26:Drivers/STM32F4xx_HAL_Driver/Src/stm32f4xx_hal_can.c ****              __GPIOx_CLK_ENABLE()   
  27:Drivers/STM32F4xx_HAL_Driver/Src/stm32f4xx_hal_can.c ****         (++) Connect and configure the involved CAN pins to AF9 using the 
  28:Drivers/STM32F4xx_HAL_Driver/Src/stm32f4xx_hal_can.c ****               following function HAL_GPIO_Init() 
  29:Drivers/STM32F4xx_HAL_Driver/Src/stm32f4xx_hal_can.c ****               
  30:Drivers/STM32F4xx_HAL_Driver/Src/stm32f4xx_hal_can.c ****       (#) Initialize and configure the CAN using CAN_Init() function.   
  31:Drivers/STM32F4xx_HAL_Driver/Src/stm32f4xx_hal_can.c ****                  
ARM GAS  /var/folders/7p/1_dhylqx7nl5s8914_0f_4w00000gn/T//ccPpXWzH.s 			page 2


  32:Drivers/STM32F4xx_HAL_Driver/Src/stm32f4xx_hal_can.c ****       (#) Transmit the desired CAN frame using HAL_CAN_Transmit() function.
  33:Drivers/STM32F4xx_HAL_Driver/Src/stm32f4xx_hal_can.c **** 
  34:Drivers/STM32F4xx_HAL_Driver/Src/stm32f4xx_hal_can.c ****       (#) Or transmit the desired CAN frame using HAL_CAN_Transmit_IT() function.
  35:Drivers/STM32F4xx_HAL_Driver/Src/stm32f4xx_hal_can.c ****            
  36:Drivers/STM32F4xx_HAL_Driver/Src/stm32f4xx_hal_can.c ****       (#) Receive a CAN frame using HAL_CAN_Receive() function.
  37:Drivers/STM32F4xx_HAL_Driver/Src/stm32f4xx_hal_can.c **** 
  38:Drivers/STM32F4xx_HAL_Driver/Src/stm32f4xx_hal_can.c ****       (#) Or receive a CAN frame using HAL_CAN_Receive_IT() function.
  39:Drivers/STM32F4xx_HAL_Driver/Src/stm32f4xx_hal_can.c **** 
  40:Drivers/STM32F4xx_HAL_Driver/Src/stm32f4xx_hal_can.c ****      *** Polling mode IO operation ***
  41:Drivers/STM32F4xx_HAL_Driver/Src/stm32f4xx_hal_can.c ****      =================================
  42:Drivers/STM32F4xx_HAL_Driver/Src/stm32f4xx_hal_can.c ****      [..]    
  43:Drivers/STM32F4xx_HAL_Driver/Src/stm32f4xx_hal_can.c ****        (+) Start the CAN peripheral transmission and wait the end of this operation 
  44:Drivers/STM32F4xx_HAL_Driver/Src/stm32f4xx_hal_can.c ****            using HAL_CAN_Transmit(), at this stage user can specify the value of timeout
  45:Drivers/STM32F4xx_HAL_Driver/Src/stm32f4xx_hal_can.c ****            according to his end application
  46:Drivers/STM32F4xx_HAL_Driver/Src/stm32f4xx_hal_can.c ****        (+) Start the CAN peripheral reception and wait the end of this operation 
  47:Drivers/STM32F4xx_HAL_Driver/Src/stm32f4xx_hal_can.c ****            using HAL_CAN_Receive(), at this stage user can specify the value of timeout
  48:Drivers/STM32F4xx_HAL_Driver/Src/stm32f4xx_hal_can.c ****            according to his end application 
  49:Drivers/STM32F4xx_HAL_Driver/Src/stm32f4xx_hal_can.c ****        
  50:Drivers/STM32F4xx_HAL_Driver/Src/stm32f4xx_hal_can.c ****      *** Interrupt mode IO operation ***    
  51:Drivers/STM32F4xx_HAL_Driver/Src/stm32f4xx_hal_can.c ****      ===================================
  52:Drivers/STM32F4xx_HAL_Driver/Src/stm32f4xx_hal_can.c ****      [..]    
  53:Drivers/STM32F4xx_HAL_Driver/Src/stm32f4xx_hal_can.c ****        (+) Start the CAN peripheral transmission using HAL_CAN_Transmit_IT()
  54:Drivers/STM32F4xx_HAL_Driver/Src/stm32f4xx_hal_can.c ****        (+) Start the CAN peripheral reception using HAL_CAN_Receive_IT()         
  55:Drivers/STM32F4xx_HAL_Driver/Src/stm32f4xx_hal_can.c ****        (+) Use HAL_CAN_IRQHandler() called under the used CAN Interrupt subroutine
  56:Drivers/STM32F4xx_HAL_Driver/Src/stm32f4xx_hal_can.c ****        (+) At CAN end of transmission HAL_CAN_TxCpltCallback() function is executed and user can 
  57:Drivers/STM32F4xx_HAL_Driver/Src/stm32f4xx_hal_can.c ****             add his own code by customization of function pointer HAL_CAN_TxCpltCallback 
  58:Drivers/STM32F4xx_HAL_Driver/Src/stm32f4xx_hal_can.c ****        (+) In case of CAN Error, HAL_CAN_ErrorCallback() function is executed and user can 
  59:Drivers/STM32F4xx_HAL_Driver/Src/stm32f4xx_hal_can.c ****             add his own code by customization of function pointer HAL_CAN_ErrorCallback
  60:Drivers/STM32F4xx_HAL_Driver/Src/stm32f4xx_hal_can.c ****  
  61:Drivers/STM32F4xx_HAL_Driver/Src/stm32f4xx_hal_can.c ****      *** CAN HAL driver macros list ***
  62:Drivers/STM32F4xx_HAL_Driver/Src/stm32f4xx_hal_can.c ****      ============================================= 
  63:Drivers/STM32F4xx_HAL_Driver/Src/stm32f4xx_hal_can.c ****      [..]
  64:Drivers/STM32F4xx_HAL_Driver/Src/stm32f4xx_hal_can.c ****        Below the list of most used macros in CAN HAL driver.
  65:Drivers/STM32F4xx_HAL_Driver/Src/stm32f4xx_hal_can.c ****        
  66:Drivers/STM32F4xx_HAL_Driver/Src/stm32f4xx_hal_can.c ****       (+) __HAL_CAN_ENABLE_IT: Enable the specified CAN interrupts
  67:Drivers/STM32F4xx_HAL_Driver/Src/stm32f4xx_hal_can.c ****       (+) __HAL_CAN_DISABLE_IT: Disable the specified CAN interrupts
  68:Drivers/STM32F4xx_HAL_Driver/Src/stm32f4xx_hal_can.c ****       (+) __HAL_CAN_GET_IT_SOURCE: Check if the specified CAN interrupt source is enabled or disabl
  69:Drivers/STM32F4xx_HAL_Driver/Src/stm32f4xx_hal_can.c ****       (+) __HAL_CAN_CLEAR_FLAG: Clear the CAN's pending flags
  70:Drivers/STM32F4xx_HAL_Driver/Src/stm32f4xx_hal_can.c ****       (+) __HAL_CAN_GET_FLAG: Get the selected CAN's flag status
  71:Drivers/STM32F4xx_HAL_Driver/Src/stm32f4xx_hal_can.c ****       
  72:Drivers/STM32F4xx_HAL_Driver/Src/stm32f4xx_hal_can.c ****      [..] 
  73:Drivers/STM32F4xx_HAL_Driver/Src/stm32f4xx_hal_can.c ****       (@) You can refer to the CAN HAL driver header file for more useful macros 
  74:Drivers/STM32F4xx_HAL_Driver/Src/stm32f4xx_hal_can.c ****                 
  75:Drivers/STM32F4xx_HAL_Driver/Src/stm32f4xx_hal_can.c ****   @endverbatim
  76:Drivers/STM32F4xx_HAL_Driver/Src/stm32f4xx_hal_can.c ****            
  77:Drivers/STM32F4xx_HAL_Driver/Src/stm32f4xx_hal_can.c ****   ******************************************************************************
  78:Drivers/STM32F4xx_HAL_Driver/Src/stm32f4xx_hal_can.c ****   * @attention
  79:Drivers/STM32F4xx_HAL_Driver/Src/stm32f4xx_hal_can.c ****   *
  80:Drivers/STM32F4xx_HAL_Driver/Src/stm32f4xx_hal_can.c ****   * <h2><center>&copy; COPYRIGHT(c) 2017 STMicroelectronics</center></h2>
  81:Drivers/STM32F4xx_HAL_Driver/Src/stm32f4xx_hal_can.c ****   *
  82:Drivers/STM32F4xx_HAL_Driver/Src/stm32f4xx_hal_can.c ****   * Redistribution and use in source and binary forms, with or without modification,
  83:Drivers/STM32F4xx_HAL_Driver/Src/stm32f4xx_hal_can.c ****   * are permitted provided that the following conditions are met:
  84:Drivers/STM32F4xx_HAL_Driver/Src/stm32f4xx_hal_can.c ****   *   1. Redistributions of source code must retain the above copyright notice,
  85:Drivers/STM32F4xx_HAL_Driver/Src/stm32f4xx_hal_can.c ****   *      this list of conditions and the following disclaimer.
  86:Drivers/STM32F4xx_HAL_Driver/Src/stm32f4xx_hal_can.c ****   *   2. Redistributions in binary form must reproduce the above copyright notice,
  87:Drivers/STM32F4xx_HAL_Driver/Src/stm32f4xx_hal_can.c ****   *      this list of conditions and the following disclaimer in the documentation
  88:Drivers/STM32F4xx_HAL_Driver/Src/stm32f4xx_hal_can.c ****   *      and/or other materials provided with the distribution.
ARM GAS  /var/folders/7p/1_dhylqx7nl5s8914_0f_4w00000gn/T//ccPpXWzH.s 			page 3


  89:Drivers/STM32F4xx_HAL_Driver/Src/stm32f4xx_hal_can.c ****   *   3. Neither the name of STMicroelectronics nor the names of its contributors
  90:Drivers/STM32F4xx_HAL_Driver/Src/stm32f4xx_hal_can.c ****   *      may be used to endorse or promote products derived from this software
  91:Drivers/STM32F4xx_HAL_Driver/Src/stm32f4xx_hal_can.c ****   *      without specific prior written permission.
  92:Drivers/STM32F4xx_HAL_Driver/Src/stm32f4xx_hal_can.c ****   *
  93:Drivers/STM32F4xx_HAL_Driver/Src/stm32f4xx_hal_can.c ****   * THIS SOFTWARE IS PROVIDED BY THE COPYRIGHT HOLDERS AND CONTRIBUTORS "AS IS"
  94:Drivers/STM32F4xx_HAL_Driver/Src/stm32f4xx_hal_can.c ****   * AND ANY EXPRESS OR IMPLIED WARRANTIES, INCLUDING, BUT NOT LIMITED TO, THE
  95:Drivers/STM32F4xx_HAL_Driver/Src/stm32f4xx_hal_can.c ****   * IMPLIED WARRANTIES OF MERCHANTABILITY AND FITNESS FOR A PARTICULAR PURPOSE ARE
  96:Drivers/STM32F4xx_HAL_Driver/Src/stm32f4xx_hal_can.c ****   * DISCLAIMED. IN NO EVENT SHALL THE COPYRIGHT HOLDER OR CONTRIBUTORS BE LIABLE
  97:Drivers/STM32F4xx_HAL_Driver/Src/stm32f4xx_hal_can.c ****   * FOR ANY DIRECT, INDIRECT, INCIDENTAL, SPECIAL, EXEMPLARY, OR CONSEQUENTIAL
  98:Drivers/STM32F4xx_HAL_Driver/Src/stm32f4xx_hal_can.c ****   * DAMAGES (INCLUDING, BUT NOT LIMITED TO, PROCUREMENT OF SUBSTITUTE GOODS OR
  99:Drivers/STM32F4xx_HAL_Driver/Src/stm32f4xx_hal_can.c ****   * SERVICES; LOSS OF USE, DATA, OR PROFITS; OR BUSINESS INTERRUPTION) HOWEVER
 100:Drivers/STM32F4xx_HAL_Driver/Src/stm32f4xx_hal_can.c ****   * CAUSED AND ON ANY THEORY OF LIABILITY, WHETHER IN CONTRACT, STRICT LIABILITY,
 101:Drivers/STM32F4xx_HAL_Driver/Src/stm32f4xx_hal_can.c ****   * OR TORT (INCLUDING NEGLIGENCE OR OTHERWISE) ARISING IN ANY WAY OUT OF THE USE
 102:Drivers/STM32F4xx_HAL_Driver/Src/stm32f4xx_hal_can.c ****   * OF THIS SOFTWARE, EVEN IF ADVISED OF THE POSSIBILITY OF SUCH DAMAGE.
 103:Drivers/STM32F4xx_HAL_Driver/Src/stm32f4xx_hal_can.c ****   *
 104:Drivers/STM32F4xx_HAL_Driver/Src/stm32f4xx_hal_can.c ****   ******************************************************************************
 105:Drivers/STM32F4xx_HAL_Driver/Src/stm32f4xx_hal_can.c ****   */
 106:Drivers/STM32F4xx_HAL_Driver/Src/stm32f4xx_hal_can.c **** 
 107:Drivers/STM32F4xx_HAL_Driver/Src/stm32f4xx_hal_can.c **** /* Includes ------------------------------------------------------------------*/
 108:Drivers/STM32F4xx_HAL_Driver/Src/stm32f4xx_hal_can.c **** #include "stm32f4xx_hal.h"
 109:Drivers/STM32F4xx_HAL_Driver/Src/stm32f4xx_hal_can.c **** 
 110:Drivers/STM32F4xx_HAL_Driver/Src/stm32f4xx_hal_can.c **** /** @addtogroup STM32F4xx_HAL_Driver
 111:Drivers/STM32F4xx_HAL_Driver/Src/stm32f4xx_hal_can.c ****   * @{
 112:Drivers/STM32F4xx_HAL_Driver/Src/stm32f4xx_hal_can.c ****   */
 113:Drivers/STM32F4xx_HAL_Driver/Src/stm32f4xx_hal_can.c **** 
 114:Drivers/STM32F4xx_HAL_Driver/Src/stm32f4xx_hal_can.c **** /** @defgroup CAN CAN
 115:Drivers/STM32F4xx_HAL_Driver/Src/stm32f4xx_hal_can.c ****   * @brief CAN driver modules
 116:Drivers/STM32F4xx_HAL_Driver/Src/stm32f4xx_hal_can.c ****   * @{
 117:Drivers/STM32F4xx_HAL_Driver/Src/stm32f4xx_hal_can.c ****   */ 
 118:Drivers/STM32F4xx_HAL_Driver/Src/stm32f4xx_hal_can.c ****   
 119:Drivers/STM32F4xx_HAL_Driver/Src/stm32f4xx_hal_can.c **** #ifdef HAL_CAN_MODULE_ENABLED  
 120:Drivers/STM32F4xx_HAL_Driver/Src/stm32f4xx_hal_can.c **** 
 121:Drivers/STM32F4xx_HAL_Driver/Src/stm32f4xx_hal_can.c **** #if defined(STM32F405xx) || defined(STM32F415xx) || defined(STM32F407xx) || defined(STM32F417xx) ||
 122:Drivers/STM32F4xx_HAL_Driver/Src/stm32f4xx_hal_can.c ****     defined(STM32F427xx) || defined(STM32F437xx) || defined(STM32F429xx) || defined(STM32F439xx) ||
 123:Drivers/STM32F4xx_HAL_Driver/Src/stm32f4xx_hal_can.c ****     defined(STM32F446xx) || defined(STM32F469xx) || defined(STM32F479xx) || defined(STM32F412Zx) ||
 124:Drivers/STM32F4xx_HAL_Driver/Src/stm32f4xx_hal_can.c ****     defined(STM32F412Vx) || defined(STM32F412Rx) || defined(STM32F412Cx) || defined(STM32F413xx) ||
 125:Drivers/STM32F4xx_HAL_Driver/Src/stm32f4xx_hal_can.c ****     defined(STM32F423xx)  
 126:Drivers/STM32F4xx_HAL_Driver/Src/stm32f4xx_hal_can.c ****   
 127:Drivers/STM32F4xx_HAL_Driver/Src/stm32f4xx_hal_can.c **** /* Private typedef -----------------------------------------------------------*/
 128:Drivers/STM32F4xx_HAL_Driver/Src/stm32f4xx_hal_can.c **** /* Private define ------------------------------------------------------------*/
 129:Drivers/STM32F4xx_HAL_Driver/Src/stm32f4xx_hal_can.c **** /** @addtogroup CAN_Private_Constants
 130:Drivers/STM32F4xx_HAL_Driver/Src/stm32f4xx_hal_can.c ****   * @{
 131:Drivers/STM32F4xx_HAL_Driver/Src/stm32f4xx_hal_can.c ****   */
 132:Drivers/STM32F4xx_HAL_Driver/Src/stm32f4xx_hal_can.c **** #define CAN_TIMEOUT_VALUE  10U
 133:Drivers/STM32F4xx_HAL_Driver/Src/stm32f4xx_hal_can.c **** /**
 134:Drivers/STM32F4xx_HAL_Driver/Src/stm32f4xx_hal_can.c ****   * @}
 135:Drivers/STM32F4xx_HAL_Driver/Src/stm32f4xx_hal_can.c ****   */
 136:Drivers/STM32F4xx_HAL_Driver/Src/stm32f4xx_hal_can.c **** /* Private macro -------------------------------------------------------------*/
 137:Drivers/STM32F4xx_HAL_Driver/Src/stm32f4xx_hal_can.c **** /* Private variables ---------------------------------------------------------*/
 138:Drivers/STM32F4xx_HAL_Driver/Src/stm32f4xx_hal_can.c **** /* Private function prototypes -----------------------------------------------*/
 139:Drivers/STM32F4xx_HAL_Driver/Src/stm32f4xx_hal_can.c **** /** @addtogroup CAN_Private_Functions
 140:Drivers/STM32F4xx_HAL_Driver/Src/stm32f4xx_hal_can.c ****   * @{
 141:Drivers/STM32F4xx_HAL_Driver/Src/stm32f4xx_hal_can.c ****   */
 142:Drivers/STM32F4xx_HAL_Driver/Src/stm32f4xx_hal_can.c **** static HAL_StatusTypeDef CAN_Receive_IT(CAN_HandleTypeDef* hcan, uint8_t FIFONumber);
 143:Drivers/STM32F4xx_HAL_Driver/Src/stm32f4xx_hal_can.c **** static HAL_StatusTypeDef CAN_Transmit_IT(CAN_HandleTypeDef* hcan);
 144:Drivers/STM32F4xx_HAL_Driver/Src/stm32f4xx_hal_can.c **** /**
 145:Drivers/STM32F4xx_HAL_Driver/Src/stm32f4xx_hal_can.c ****   * @}
ARM GAS  /var/folders/7p/1_dhylqx7nl5s8914_0f_4w00000gn/T//ccPpXWzH.s 			page 4


 146:Drivers/STM32F4xx_HAL_Driver/Src/stm32f4xx_hal_can.c ****   */
 147:Drivers/STM32F4xx_HAL_Driver/Src/stm32f4xx_hal_can.c **** 
 148:Drivers/STM32F4xx_HAL_Driver/Src/stm32f4xx_hal_can.c **** /* Exported functions --------------------------------------------------------*/
 149:Drivers/STM32F4xx_HAL_Driver/Src/stm32f4xx_hal_can.c **** /** @defgroup CAN_Exported_Functions CAN Exported Functions
 150:Drivers/STM32F4xx_HAL_Driver/Src/stm32f4xx_hal_can.c ****   * @{
 151:Drivers/STM32F4xx_HAL_Driver/Src/stm32f4xx_hal_can.c ****   */
 152:Drivers/STM32F4xx_HAL_Driver/Src/stm32f4xx_hal_can.c **** 
 153:Drivers/STM32F4xx_HAL_Driver/Src/stm32f4xx_hal_can.c **** /** @defgroup CAN_Exported_Functions_Group1 Initialization and de-initialization functions 
 154:Drivers/STM32F4xx_HAL_Driver/Src/stm32f4xx_hal_can.c ****  *  @brief    Initialization and Configuration functions 
 155:Drivers/STM32F4xx_HAL_Driver/Src/stm32f4xx_hal_can.c ****  *
 156:Drivers/STM32F4xx_HAL_Driver/Src/stm32f4xx_hal_can.c **** @verbatim    
 157:Drivers/STM32F4xx_HAL_Driver/Src/stm32f4xx_hal_can.c ****   ==============================================================================
 158:Drivers/STM32F4xx_HAL_Driver/Src/stm32f4xx_hal_can.c ****               ##### Initialization and de-initialization functions #####
 159:Drivers/STM32F4xx_HAL_Driver/Src/stm32f4xx_hal_can.c ****   ==============================================================================
 160:Drivers/STM32F4xx_HAL_Driver/Src/stm32f4xx_hal_can.c ****     [..]  This section provides functions allowing to:
 161:Drivers/STM32F4xx_HAL_Driver/Src/stm32f4xx_hal_can.c ****       (+) Initialize and configure the CAN. 
 162:Drivers/STM32F4xx_HAL_Driver/Src/stm32f4xx_hal_can.c ****       (+) De-initialize the CAN. 
 163:Drivers/STM32F4xx_HAL_Driver/Src/stm32f4xx_hal_can.c ****          
 164:Drivers/STM32F4xx_HAL_Driver/Src/stm32f4xx_hal_can.c **** @endverbatim
 165:Drivers/STM32F4xx_HAL_Driver/Src/stm32f4xx_hal_can.c ****   * @{
 166:Drivers/STM32F4xx_HAL_Driver/Src/stm32f4xx_hal_can.c ****   */
 167:Drivers/STM32F4xx_HAL_Driver/Src/stm32f4xx_hal_can.c ****   
 168:Drivers/STM32F4xx_HAL_Driver/Src/stm32f4xx_hal_can.c **** /**
 169:Drivers/STM32F4xx_HAL_Driver/Src/stm32f4xx_hal_can.c ****   * @brief  Initializes the CAN peripheral according to the specified
 170:Drivers/STM32F4xx_HAL_Driver/Src/stm32f4xx_hal_can.c ****   *         parameters in the CAN_InitStruct.
 171:Drivers/STM32F4xx_HAL_Driver/Src/stm32f4xx_hal_can.c ****   * @param  hcan: pointer to a CAN_HandleTypeDef structure that contains
 172:Drivers/STM32F4xx_HAL_Driver/Src/stm32f4xx_hal_can.c ****   *         the configuration information for the specified CAN.  
 173:Drivers/STM32F4xx_HAL_Driver/Src/stm32f4xx_hal_can.c ****   * @retval HAL status
 174:Drivers/STM32F4xx_HAL_Driver/Src/stm32f4xx_hal_can.c ****   */
 175:Drivers/STM32F4xx_HAL_Driver/Src/stm32f4xx_hal_can.c **** HAL_StatusTypeDef HAL_CAN_Init(CAN_HandleTypeDef* hcan)
 176:Drivers/STM32F4xx_HAL_Driver/Src/stm32f4xx_hal_can.c **** {
 177:Drivers/STM32F4xx_HAL_Driver/Src/stm32f4xx_hal_can.c ****   uint32_t InitStatus = CAN_INITSTATUS_FAILED;
 178:Drivers/STM32F4xx_HAL_Driver/Src/stm32f4xx_hal_can.c ****   uint32_t tickstart = 0U;
 179:Drivers/STM32F4xx_HAL_Driver/Src/stm32f4xx_hal_can.c ****   
 180:Drivers/STM32F4xx_HAL_Driver/Src/stm32f4xx_hal_can.c ****   /* Check CAN handle */
 181:Drivers/STM32F4xx_HAL_Driver/Src/stm32f4xx_hal_can.c ****   if(hcan == NULL)
 182:Drivers/STM32F4xx_HAL_Driver/Src/stm32f4xx_hal_can.c ****   {
 183:Drivers/STM32F4xx_HAL_Driver/Src/stm32f4xx_hal_can.c ****      return HAL_ERROR;
 184:Drivers/STM32F4xx_HAL_Driver/Src/stm32f4xx_hal_can.c ****   }
 185:Drivers/STM32F4xx_HAL_Driver/Src/stm32f4xx_hal_can.c ****   
 186:Drivers/STM32F4xx_HAL_Driver/Src/stm32f4xx_hal_can.c ****   /* Check the parameters */
 187:Drivers/STM32F4xx_HAL_Driver/Src/stm32f4xx_hal_can.c ****   assert_param(IS_CAN_ALL_INSTANCE(hcan->Instance));
 188:Drivers/STM32F4xx_HAL_Driver/Src/stm32f4xx_hal_can.c ****   assert_param(IS_FUNCTIONAL_STATE(hcan->Init.TTCM));
 189:Drivers/STM32F4xx_HAL_Driver/Src/stm32f4xx_hal_can.c ****   assert_param(IS_FUNCTIONAL_STATE(hcan->Init.ABOM));
 190:Drivers/STM32F4xx_HAL_Driver/Src/stm32f4xx_hal_can.c ****   assert_param(IS_FUNCTIONAL_STATE(hcan->Init.AWUM));
 191:Drivers/STM32F4xx_HAL_Driver/Src/stm32f4xx_hal_can.c ****   assert_param(IS_FUNCTIONAL_STATE(hcan->Init.NART));
 192:Drivers/STM32F4xx_HAL_Driver/Src/stm32f4xx_hal_can.c ****   assert_param(IS_FUNCTIONAL_STATE(hcan->Init.RFLM));
 193:Drivers/STM32F4xx_HAL_Driver/Src/stm32f4xx_hal_can.c ****   assert_param(IS_FUNCTIONAL_STATE(hcan->Init.TXFP));
 194:Drivers/STM32F4xx_HAL_Driver/Src/stm32f4xx_hal_can.c ****   assert_param(IS_CAN_MODE(hcan->Init.Mode));
 195:Drivers/STM32F4xx_HAL_Driver/Src/stm32f4xx_hal_can.c ****   assert_param(IS_CAN_SJW(hcan->Init.SJW));
 196:Drivers/STM32F4xx_HAL_Driver/Src/stm32f4xx_hal_can.c ****   assert_param(IS_CAN_BS1(hcan->Init.BS1));
 197:Drivers/STM32F4xx_HAL_Driver/Src/stm32f4xx_hal_can.c ****   assert_param(IS_CAN_BS2(hcan->Init.BS2));
 198:Drivers/STM32F4xx_HAL_Driver/Src/stm32f4xx_hal_can.c ****   assert_param(IS_CAN_PRESCALER(hcan->Init.Prescaler));
 199:Drivers/STM32F4xx_HAL_Driver/Src/stm32f4xx_hal_can.c ****   
 200:Drivers/STM32F4xx_HAL_Driver/Src/stm32f4xx_hal_can.c **** 
 201:Drivers/STM32F4xx_HAL_Driver/Src/stm32f4xx_hal_can.c ****   if(hcan->State == HAL_CAN_STATE_RESET)
 202:Drivers/STM32F4xx_HAL_Driver/Src/stm32f4xx_hal_can.c ****   {
ARM GAS  /var/folders/7p/1_dhylqx7nl5s8914_0f_4w00000gn/T//ccPpXWzH.s 			page 5


 203:Drivers/STM32F4xx_HAL_Driver/Src/stm32f4xx_hal_can.c ****     /* Allocate lock resource and initialize it */
 204:Drivers/STM32F4xx_HAL_Driver/Src/stm32f4xx_hal_can.c ****     hcan->Lock = HAL_UNLOCKED;
 205:Drivers/STM32F4xx_HAL_Driver/Src/stm32f4xx_hal_can.c ****     /* Init the low level hardware */
 206:Drivers/STM32F4xx_HAL_Driver/Src/stm32f4xx_hal_can.c ****     HAL_CAN_MspInit(hcan);
 207:Drivers/STM32F4xx_HAL_Driver/Src/stm32f4xx_hal_can.c ****   }
 208:Drivers/STM32F4xx_HAL_Driver/Src/stm32f4xx_hal_can.c ****   
 209:Drivers/STM32F4xx_HAL_Driver/Src/stm32f4xx_hal_can.c ****   /* Initialize the CAN state*/
 210:Drivers/STM32F4xx_HAL_Driver/Src/stm32f4xx_hal_can.c ****   hcan->State = HAL_CAN_STATE_BUSY;
 211:Drivers/STM32F4xx_HAL_Driver/Src/stm32f4xx_hal_can.c ****   
 212:Drivers/STM32F4xx_HAL_Driver/Src/stm32f4xx_hal_can.c ****   /* Exit from sleep mode */
 213:Drivers/STM32F4xx_HAL_Driver/Src/stm32f4xx_hal_can.c ****   hcan->Instance->MCR &= (~(uint32_t)CAN_MCR_SLEEP);
 214:Drivers/STM32F4xx_HAL_Driver/Src/stm32f4xx_hal_can.c **** 
 215:Drivers/STM32F4xx_HAL_Driver/Src/stm32f4xx_hal_can.c ****   /* Request initialisation */
 216:Drivers/STM32F4xx_HAL_Driver/Src/stm32f4xx_hal_can.c ****   hcan->Instance->MCR |= CAN_MCR_INRQ ;
 217:Drivers/STM32F4xx_HAL_Driver/Src/stm32f4xx_hal_can.c ****   
 218:Drivers/STM32F4xx_HAL_Driver/Src/stm32f4xx_hal_can.c ****   /* Get tick */
 219:Drivers/STM32F4xx_HAL_Driver/Src/stm32f4xx_hal_can.c ****   tickstart = HAL_GetTick();
 220:Drivers/STM32F4xx_HAL_Driver/Src/stm32f4xx_hal_can.c **** 
 221:Drivers/STM32F4xx_HAL_Driver/Src/stm32f4xx_hal_can.c ****   /* Wait the acknowledge */
 222:Drivers/STM32F4xx_HAL_Driver/Src/stm32f4xx_hal_can.c ****   while((hcan->Instance->MSR & CAN_MSR_INAK) != CAN_MSR_INAK)
 223:Drivers/STM32F4xx_HAL_Driver/Src/stm32f4xx_hal_can.c ****   {
 224:Drivers/STM32F4xx_HAL_Driver/Src/stm32f4xx_hal_can.c ****     if((HAL_GetTick() - tickstart ) > CAN_TIMEOUT_VALUE)
 225:Drivers/STM32F4xx_HAL_Driver/Src/stm32f4xx_hal_can.c ****     {
 226:Drivers/STM32F4xx_HAL_Driver/Src/stm32f4xx_hal_can.c ****       hcan->State= HAL_CAN_STATE_TIMEOUT;
 227:Drivers/STM32F4xx_HAL_Driver/Src/stm32f4xx_hal_can.c ****       /* Process unlocked */
 228:Drivers/STM32F4xx_HAL_Driver/Src/stm32f4xx_hal_can.c ****       __HAL_UNLOCK(hcan);
 229:Drivers/STM32F4xx_HAL_Driver/Src/stm32f4xx_hal_can.c ****       return HAL_TIMEOUT;
 230:Drivers/STM32F4xx_HAL_Driver/Src/stm32f4xx_hal_can.c ****     }
 231:Drivers/STM32F4xx_HAL_Driver/Src/stm32f4xx_hal_can.c ****   }
 232:Drivers/STM32F4xx_HAL_Driver/Src/stm32f4xx_hal_can.c **** 
 233:Drivers/STM32F4xx_HAL_Driver/Src/stm32f4xx_hal_can.c ****   /* Check acknowledge */
 234:Drivers/STM32F4xx_HAL_Driver/Src/stm32f4xx_hal_can.c ****   if ((hcan->Instance->MSR & CAN_MSR_INAK) == CAN_MSR_INAK)
 235:Drivers/STM32F4xx_HAL_Driver/Src/stm32f4xx_hal_can.c ****   {
 236:Drivers/STM32F4xx_HAL_Driver/Src/stm32f4xx_hal_can.c ****     /* Set the time triggered communication mode */
 237:Drivers/STM32F4xx_HAL_Driver/Src/stm32f4xx_hal_can.c ****     if (hcan->Init.TTCM == ENABLE)
 238:Drivers/STM32F4xx_HAL_Driver/Src/stm32f4xx_hal_can.c ****     {
 239:Drivers/STM32F4xx_HAL_Driver/Src/stm32f4xx_hal_can.c ****       hcan->Instance->MCR |= CAN_MCR_TTCM;
 240:Drivers/STM32F4xx_HAL_Driver/Src/stm32f4xx_hal_can.c ****     }
 241:Drivers/STM32F4xx_HAL_Driver/Src/stm32f4xx_hal_can.c ****     else
 242:Drivers/STM32F4xx_HAL_Driver/Src/stm32f4xx_hal_can.c ****     {
 243:Drivers/STM32F4xx_HAL_Driver/Src/stm32f4xx_hal_can.c ****       hcan->Instance->MCR &= ~(uint32_t)CAN_MCR_TTCM;
 244:Drivers/STM32F4xx_HAL_Driver/Src/stm32f4xx_hal_can.c ****     }
 245:Drivers/STM32F4xx_HAL_Driver/Src/stm32f4xx_hal_can.c **** 
 246:Drivers/STM32F4xx_HAL_Driver/Src/stm32f4xx_hal_can.c ****     /* Set the automatic bus-off management */
 247:Drivers/STM32F4xx_HAL_Driver/Src/stm32f4xx_hal_can.c ****     if (hcan->Init.ABOM == ENABLE)
 248:Drivers/STM32F4xx_HAL_Driver/Src/stm32f4xx_hal_can.c ****     {
 249:Drivers/STM32F4xx_HAL_Driver/Src/stm32f4xx_hal_can.c ****       hcan->Instance->MCR |= CAN_MCR_ABOM;
 250:Drivers/STM32F4xx_HAL_Driver/Src/stm32f4xx_hal_can.c ****     }
 251:Drivers/STM32F4xx_HAL_Driver/Src/stm32f4xx_hal_can.c ****     else
 252:Drivers/STM32F4xx_HAL_Driver/Src/stm32f4xx_hal_can.c ****     {
 253:Drivers/STM32F4xx_HAL_Driver/Src/stm32f4xx_hal_can.c ****       hcan->Instance->MCR &= ~(uint32_t)CAN_MCR_ABOM;
 254:Drivers/STM32F4xx_HAL_Driver/Src/stm32f4xx_hal_can.c ****     }
 255:Drivers/STM32F4xx_HAL_Driver/Src/stm32f4xx_hal_can.c **** 
 256:Drivers/STM32F4xx_HAL_Driver/Src/stm32f4xx_hal_can.c ****     /* Set the automatic wake-up mode */
 257:Drivers/STM32F4xx_HAL_Driver/Src/stm32f4xx_hal_can.c ****     if (hcan->Init.AWUM == ENABLE)
 258:Drivers/STM32F4xx_HAL_Driver/Src/stm32f4xx_hal_can.c ****     {
 259:Drivers/STM32F4xx_HAL_Driver/Src/stm32f4xx_hal_can.c ****       hcan->Instance->MCR |= CAN_MCR_AWUM;
ARM GAS  /var/folders/7p/1_dhylqx7nl5s8914_0f_4w00000gn/T//ccPpXWzH.s 			page 6


 260:Drivers/STM32F4xx_HAL_Driver/Src/stm32f4xx_hal_can.c ****     }
 261:Drivers/STM32F4xx_HAL_Driver/Src/stm32f4xx_hal_can.c ****     else
 262:Drivers/STM32F4xx_HAL_Driver/Src/stm32f4xx_hal_can.c ****     {
 263:Drivers/STM32F4xx_HAL_Driver/Src/stm32f4xx_hal_can.c ****       hcan->Instance->MCR &= ~(uint32_t)CAN_MCR_AWUM;
 264:Drivers/STM32F4xx_HAL_Driver/Src/stm32f4xx_hal_can.c ****     }
 265:Drivers/STM32F4xx_HAL_Driver/Src/stm32f4xx_hal_can.c **** 
 266:Drivers/STM32F4xx_HAL_Driver/Src/stm32f4xx_hal_can.c ****     /* Set the no automatic retransmission */
 267:Drivers/STM32F4xx_HAL_Driver/Src/stm32f4xx_hal_can.c ****     if (hcan->Init.NART == ENABLE)
 268:Drivers/STM32F4xx_HAL_Driver/Src/stm32f4xx_hal_can.c ****     {
 269:Drivers/STM32F4xx_HAL_Driver/Src/stm32f4xx_hal_can.c ****       hcan->Instance->MCR |= CAN_MCR_NART;
 270:Drivers/STM32F4xx_HAL_Driver/Src/stm32f4xx_hal_can.c ****     }
 271:Drivers/STM32F4xx_HAL_Driver/Src/stm32f4xx_hal_can.c ****     else
 272:Drivers/STM32F4xx_HAL_Driver/Src/stm32f4xx_hal_can.c ****     {
 273:Drivers/STM32F4xx_HAL_Driver/Src/stm32f4xx_hal_can.c ****       hcan->Instance->MCR &= ~(uint32_t)CAN_MCR_NART;
 274:Drivers/STM32F4xx_HAL_Driver/Src/stm32f4xx_hal_can.c ****     }
 275:Drivers/STM32F4xx_HAL_Driver/Src/stm32f4xx_hal_can.c **** 
 276:Drivers/STM32F4xx_HAL_Driver/Src/stm32f4xx_hal_can.c ****     /* Set the receive FIFO locked mode */
 277:Drivers/STM32F4xx_HAL_Driver/Src/stm32f4xx_hal_can.c ****     if (hcan->Init.RFLM == ENABLE)
 278:Drivers/STM32F4xx_HAL_Driver/Src/stm32f4xx_hal_can.c ****     {
 279:Drivers/STM32F4xx_HAL_Driver/Src/stm32f4xx_hal_can.c ****       hcan->Instance->MCR |= CAN_MCR_RFLM;
 280:Drivers/STM32F4xx_HAL_Driver/Src/stm32f4xx_hal_can.c ****     }
 281:Drivers/STM32F4xx_HAL_Driver/Src/stm32f4xx_hal_can.c ****     else
 282:Drivers/STM32F4xx_HAL_Driver/Src/stm32f4xx_hal_can.c ****     {
 283:Drivers/STM32F4xx_HAL_Driver/Src/stm32f4xx_hal_can.c ****       hcan->Instance->MCR &= ~(uint32_t)CAN_MCR_RFLM;
 284:Drivers/STM32F4xx_HAL_Driver/Src/stm32f4xx_hal_can.c ****     }
 285:Drivers/STM32F4xx_HAL_Driver/Src/stm32f4xx_hal_can.c **** 
 286:Drivers/STM32F4xx_HAL_Driver/Src/stm32f4xx_hal_can.c ****     /* Set the transmit FIFO priority */
 287:Drivers/STM32F4xx_HAL_Driver/Src/stm32f4xx_hal_can.c ****     if (hcan->Init.TXFP == ENABLE)
 288:Drivers/STM32F4xx_HAL_Driver/Src/stm32f4xx_hal_can.c ****     {
 289:Drivers/STM32F4xx_HAL_Driver/Src/stm32f4xx_hal_can.c ****       hcan->Instance->MCR |= CAN_MCR_TXFP;
 290:Drivers/STM32F4xx_HAL_Driver/Src/stm32f4xx_hal_can.c ****     }
 291:Drivers/STM32F4xx_HAL_Driver/Src/stm32f4xx_hal_can.c ****     else
 292:Drivers/STM32F4xx_HAL_Driver/Src/stm32f4xx_hal_can.c ****     {
 293:Drivers/STM32F4xx_HAL_Driver/Src/stm32f4xx_hal_can.c ****       hcan->Instance->MCR &= ~(uint32_t)CAN_MCR_TXFP;
 294:Drivers/STM32F4xx_HAL_Driver/Src/stm32f4xx_hal_can.c ****     }
 295:Drivers/STM32F4xx_HAL_Driver/Src/stm32f4xx_hal_can.c **** 
 296:Drivers/STM32F4xx_HAL_Driver/Src/stm32f4xx_hal_can.c ****     /* Set the bit timing register */
 297:Drivers/STM32F4xx_HAL_Driver/Src/stm32f4xx_hal_can.c ****     hcan->Instance->BTR = (uint32_t)((uint32_t)hcan->Init.Mode) | \
 298:Drivers/STM32F4xx_HAL_Driver/Src/stm32f4xx_hal_can.c ****                 ((uint32_t)hcan->Init.SJW) | \
 299:Drivers/STM32F4xx_HAL_Driver/Src/stm32f4xx_hal_can.c ****                 ((uint32_t)hcan->Init.BS1) | \
 300:Drivers/STM32F4xx_HAL_Driver/Src/stm32f4xx_hal_can.c ****                 ((uint32_t)hcan->Init.BS2) | \
 301:Drivers/STM32F4xx_HAL_Driver/Src/stm32f4xx_hal_can.c ****                ((uint32_t)hcan->Init.Prescaler - 1U);
 302:Drivers/STM32F4xx_HAL_Driver/Src/stm32f4xx_hal_can.c **** 
 303:Drivers/STM32F4xx_HAL_Driver/Src/stm32f4xx_hal_can.c ****     /* Request leave initialisation */
 304:Drivers/STM32F4xx_HAL_Driver/Src/stm32f4xx_hal_can.c ****     hcan->Instance->MCR &= ~(uint32_t)CAN_MCR_INRQ;
 305:Drivers/STM32F4xx_HAL_Driver/Src/stm32f4xx_hal_can.c **** 
 306:Drivers/STM32F4xx_HAL_Driver/Src/stm32f4xx_hal_can.c ****   /* Get tick */
 307:Drivers/STM32F4xx_HAL_Driver/Src/stm32f4xx_hal_can.c ****   tickstart = HAL_GetTick();
 308:Drivers/STM32F4xx_HAL_Driver/Src/stm32f4xx_hal_can.c **** 
 309:Drivers/STM32F4xx_HAL_Driver/Src/stm32f4xx_hal_can.c ****    /* Wait the acknowledge */
 310:Drivers/STM32F4xx_HAL_Driver/Src/stm32f4xx_hal_can.c ****    while((hcan->Instance->MSR & CAN_MSR_INAK) == CAN_MSR_INAK)
 311:Drivers/STM32F4xx_HAL_Driver/Src/stm32f4xx_hal_can.c ****    {
 312:Drivers/STM32F4xx_HAL_Driver/Src/stm32f4xx_hal_can.c ****     if((HAL_GetTick() - tickstart ) > CAN_TIMEOUT_VALUE)
 313:Drivers/STM32F4xx_HAL_Driver/Src/stm32f4xx_hal_can.c ****      {
 314:Drivers/STM32F4xx_HAL_Driver/Src/stm32f4xx_hal_can.c ****        hcan->State= HAL_CAN_STATE_TIMEOUT;
 315:Drivers/STM32F4xx_HAL_Driver/Src/stm32f4xx_hal_can.c ****        /* Process unlocked */
 316:Drivers/STM32F4xx_HAL_Driver/Src/stm32f4xx_hal_can.c ****        __HAL_UNLOCK(hcan);
ARM GAS  /var/folders/7p/1_dhylqx7nl5s8914_0f_4w00000gn/T//ccPpXWzH.s 			page 7


 317:Drivers/STM32F4xx_HAL_Driver/Src/stm32f4xx_hal_can.c ****        return HAL_TIMEOUT;
 318:Drivers/STM32F4xx_HAL_Driver/Src/stm32f4xx_hal_can.c ****      }
 319:Drivers/STM32F4xx_HAL_Driver/Src/stm32f4xx_hal_can.c ****    }
 320:Drivers/STM32F4xx_HAL_Driver/Src/stm32f4xx_hal_can.c **** 
 321:Drivers/STM32F4xx_HAL_Driver/Src/stm32f4xx_hal_can.c ****     /* Check acknowledged */
 322:Drivers/STM32F4xx_HAL_Driver/Src/stm32f4xx_hal_can.c ****     if ((hcan->Instance->MSR & CAN_MSR_INAK) != CAN_MSR_INAK)
 323:Drivers/STM32F4xx_HAL_Driver/Src/stm32f4xx_hal_can.c ****     {
 324:Drivers/STM32F4xx_HAL_Driver/Src/stm32f4xx_hal_can.c ****       InitStatus = CAN_INITSTATUS_SUCCESS;
 325:Drivers/STM32F4xx_HAL_Driver/Src/stm32f4xx_hal_can.c ****     }
 326:Drivers/STM32F4xx_HAL_Driver/Src/stm32f4xx_hal_can.c ****   }
 327:Drivers/STM32F4xx_HAL_Driver/Src/stm32f4xx_hal_can.c ****  
 328:Drivers/STM32F4xx_HAL_Driver/Src/stm32f4xx_hal_can.c ****   if(InitStatus == CAN_INITSTATUS_SUCCESS)
 329:Drivers/STM32F4xx_HAL_Driver/Src/stm32f4xx_hal_can.c ****   {
 330:Drivers/STM32F4xx_HAL_Driver/Src/stm32f4xx_hal_can.c ****     /* Set CAN error code to none */
 331:Drivers/STM32F4xx_HAL_Driver/Src/stm32f4xx_hal_can.c ****     hcan->ErrorCode = HAL_CAN_ERROR_NONE;
 332:Drivers/STM32F4xx_HAL_Driver/Src/stm32f4xx_hal_can.c ****     
 333:Drivers/STM32F4xx_HAL_Driver/Src/stm32f4xx_hal_can.c ****     /* Initialize the CAN state */
 334:Drivers/STM32F4xx_HAL_Driver/Src/stm32f4xx_hal_can.c ****     hcan->State = HAL_CAN_STATE_READY;
 335:Drivers/STM32F4xx_HAL_Driver/Src/stm32f4xx_hal_can.c ****   
 336:Drivers/STM32F4xx_HAL_Driver/Src/stm32f4xx_hal_can.c ****     /* Return function status */
 337:Drivers/STM32F4xx_HAL_Driver/Src/stm32f4xx_hal_can.c ****     return HAL_OK;
 338:Drivers/STM32F4xx_HAL_Driver/Src/stm32f4xx_hal_can.c ****   }
 339:Drivers/STM32F4xx_HAL_Driver/Src/stm32f4xx_hal_can.c ****   else
 340:Drivers/STM32F4xx_HAL_Driver/Src/stm32f4xx_hal_can.c ****   {
 341:Drivers/STM32F4xx_HAL_Driver/Src/stm32f4xx_hal_can.c ****     /* Initialize the CAN state */
 342:Drivers/STM32F4xx_HAL_Driver/Src/stm32f4xx_hal_can.c ****     hcan->State = HAL_CAN_STATE_ERROR;
 343:Drivers/STM32F4xx_HAL_Driver/Src/stm32f4xx_hal_can.c ****     
 344:Drivers/STM32F4xx_HAL_Driver/Src/stm32f4xx_hal_can.c ****     /* Return function status */
 345:Drivers/STM32F4xx_HAL_Driver/Src/stm32f4xx_hal_can.c ****     return HAL_ERROR;
 346:Drivers/STM32F4xx_HAL_Driver/Src/stm32f4xx_hal_can.c ****   }
 347:Drivers/STM32F4xx_HAL_Driver/Src/stm32f4xx_hal_can.c **** }
 348:Drivers/STM32F4xx_HAL_Driver/Src/stm32f4xx_hal_can.c **** 
 349:Drivers/STM32F4xx_HAL_Driver/Src/stm32f4xx_hal_can.c **** /**
 350:Drivers/STM32F4xx_HAL_Driver/Src/stm32f4xx_hal_can.c ****   * @brief  Configures the CAN reception filter according to the specified
 351:Drivers/STM32F4xx_HAL_Driver/Src/stm32f4xx_hal_can.c ****   *         parameters in the CAN_FilterInitStruct.
 352:Drivers/STM32F4xx_HAL_Driver/Src/stm32f4xx_hal_can.c ****   * @param  hcan: pointer to a CAN_HandleTypeDef structure that contains
 353:Drivers/STM32F4xx_HAL_Driver/Src/stm32f4xx_hal_can.c ****   *         the configuration information for the specified CAN.
 354:Drivers/STM32F4xx_HAL_Driver/Src/stm32f4xx_hal_can.c ****   * @param  sFilterConfig: pointer to a CAN_FilterConfTypeDef structure that
 355:Drivers/STM32F4xx_HAL_Driver/Src/stm32f4xx_hal_can.c ****   *         contains the filter configuration information.
 356:Drivers/STM32F4xx_HAL_Driver/Src/stm32f4xx_hal_can.c ****   * @retval None
 357:Drivers/STM32F4xx_HAL_Driver/Src/stm32f4xx_hal_can.c ****   */
 358:Drivers/STM32F4xx_HAL_Driver/Src/stm32f4xx_hal_can.c **** HAL_StatusTypeDef HAL_CAN_ConfigFilter(CAN_HandleTypeDef* hcan, CAN_FilterConfTypeDef* sFilterConfi
 359:Drivers/STM32F4xx_HAL_Driver/Src/stm32f4xx_hal_can.c **** {
  28              		.loc 1 359 0
  29              		.cfi_startproc
  30              		@ args = 0, pretend = 0, frame = 0
  31              		@ frame_needed = 0, uses_anonymous_args = 0
  32              		@ link register save eliminated.
  33              	.LVL0:
  34 0000 70B4     		push	{r4, r5, r6}
  35              	.LCFI0:
  36              		.cfi_def_cfa_offset 12
  37              		.cfi_offset 4, -12
  38              		.cfi_offset 5, -8
  39              		.cfi_offset 6, -4
  40              	.LVL1:
 360:Drivers/STM32F4xx_HAL_Driver/Src/stm32f4xx_hal_can.c ****   uint32_t filternbrbitpos = 0U;
ARM GAS  /var/folders/7p/1_dhylqx7nl5s8914_0f_4w00000gn/T//ccPpXWzH.s 			page 8


 361:Drivers/STM32F4xx_HAL_Driver/Src/stm32f4xx_hal_can.c ****   CAN_TypeDef *can_ip;
 362:Drivers/STM32F4xx_HAL_Driver/Src/stm32f4xx_hal_can.c ****   
 363:Drivers/STM32F4xx_HAL_Driver/Src/stm32f4xx_hal_can.c ****   /* Prevent unused argument(s) compilation warning */
 364:Drivers/STM32F4xx_HAL_Driver/Src/stm32f4xx_hal_can.c ****   UNUSED(hcan);
 365:Drivers/STM32F4xx_HAL_Driver/Src/stm32f4xx_hal_can.c **** 
 366:Drivers/STM32F4xx_HAL_Driver/Src/stm32f4xx_hal_can.c ****   /* Check the parameters */
 367:Drivers/STM32F4xx_HAL_Driver/Src/stm32f4xx_hal_can.c ****   assert_param(IS_CAN_FILTER_NUMBER(sFilterConfig->FilterNumber));
 368:Drivers/STM32F4xx_HAL_Driver/Src/stm32f4xx_hal_can.c ****   assert_param(IS_CAN_FILTER_MODE(sFilterConfig->FilterMode));
 369:Drivers/STM32F4xx_HAL_Driver/Src/stm32f4xx_hal_can.c ****   assert_param(IS_CAN_FILTER_SCALE(sFilterConfig->FilterScale));
 370:Drivers/STM32F4xx_HAL_Driver/Src/stm32f4xx_hal_can.c ****   assert_param(IS_CAN_FILTER_FIFO(sFilterConfig->FilterFIFOAssignment));
 371:Drivers/STM32F4xx_HAL_Driver/Src/stm32f4xx_hal_can.c ****   assert_param(IS_FUNCTIONAL_STATE(sFilterConfig->FilterActivation));
 372:Drivers/STM32F4xx_HAL_Driver/Src/stm32f4xx_hal_can.c ****   assert_param(IS_CAN_BANKNUMBER(sFilterConfig->BankNumber));
 373:Drivers/STM32F4xx_HAL_Driver/Src/stm32f4xx_hal_can.c ****   
 374:Drivers/STM32F4xx_HAL_Driver/Src/stm32f4xx_hal_can.c ****   filternbrbitpos = 1U << sFilterConfig->FilterNumber;
  41              		.loc 1 374 0
  42 0002 4B69     		ldr	r3, [r1, #20]
  43 0004 0122     		movs	r2, #1
  44 0006 9A40     		lsls	r2, r2, r3
  45              	.LVL2:
 375:Drivers/STM32F4xx_HAL_Driver/Src/stm32f4xx_hal_can.c **** #if defined (CAN3)
 376:Drivers/STM32F4xx_HAL_Driver/Src/stm32f4xx_hal_can.c ****   /* Check the CAN instance */
 377:Drivers/STM32F4xx_HAL_Driver/Src/stm32f4xx_hal_can.c ****   if(hcan->Instance == CAN3)
 378:Drivers/STM32F4xx_HAL_Driver/Src/stm32f4xx_hal_can.c ****   {	
 379:Drivers/STM32F4xx_HAL_Driver/Src/stm32f4xx_hal_can.c ****     can_ip = CAN3;
 380:Drivers/STM32F4xx_HAL_Driver/Src/stm32f4xx_hal_can.c ****   }
 381:Drivers/STM32F4xx_HAL_Driver/Src/stm32f4xx_hal_can.c ****   else
 382:Drivers/STM32F4xx_HAL_Driver/Src/stm32f4xx_hal_can.c ****   {
 383:Drivers/STM32F4xx_HAL_Driver/Src/stm32f4xx_hal_can.c ****     can_ip = CAN1;    
 384:Drivers/STM32F4xx_HAL_Driver/Src/stm32f4xx_hal_can.c ****   }
 385:Drivers/STM32F4xx_HAL_Driver/Src/stm32f4xx_hal_can.c **** #else
 386:Drivers/STM32F4xx_HAL_Driver/Src/stm32f4xx_hal_can.c ****   can_ip = CAN1;
 387:Drivers/STM32F4xx_HAL_Driver/Src/stm32f4xx_hal_can.c **** #endif
 388:Drivers/STM32F4xx_HAL_Driver/Src/stm32f4xx_hal_can.c ****   
 389:Drivers/STM32F4xx_HAL_Driver/Src/stm32f4xx_hal_can.c ****   /* Initialisation mode for the filter */
 390:Drivers/STM32F4xx_HAL_Driver/Src/stm32f4xx_hal_can.c ****   can_ip->FMR |= (uint32_t)CAN_FMR_FINIT;
  46              		.loc 1 390 0
  47 0008 414B     		ldr	r3, .L13
  48 000a D3F80002 		ldr	r0, [r3, #512]
  49              	.LVL3:
  50 000e 40F00100 		orr	r0, r0, #1
  51 0012 C3F80002 		str	r0, [r3, #512]
 391:Drivers/STM32F4xx_HAL_Driver/Src/stm32f4xx_hal_can.c **** 
 392:Drivers/STM32F4xx_HAL_Driver/Src/stm32f4xx_hal_can.c **** #if defined (CAN2)  
 393:Drivers/STM32F4xx_HAL_Driver/Src/stm32f4xx_hal_can.c ****   /* Select the start slave bank */
 394:Drivers/STM32F4xx_HAL_Driver/Src/stm32f4xx_hal_can.c ****   can_ip->FMR &= ~((uint32_t)CAN_FMR_CAN2SB);
  52              		.loc 1 394 0
  53 0016 D3F80002 		ldr	r0, [r3, #512]
  54 001a 20F47C50 		bic	r0, r0, #16128
  55 001e C3F80002 		str	r0, [r3, #512]
 395:Drivers/STM32F4xx_HAL_Driver/Src/stm32f4xx_hal_can.c ****   can_ip->FMR |= (uint32_t)(sFilterConfig->BankNumber << 8U);
  56              		.loc 1 395 0
  57 0022 D3F80002 		ldr	r0, [r3, #512]
  58 0026 4C6A     		ldr	r4, [r1, #36]
  59 0028 40EA0420 		orr	r0, r0, r4, lsl #8
  60 002c C3F80002 		str	r0, [r3, #512]
 396:Drivers/STM32F4xx_HAL_Driver/Src/stm32f4xx_hal_can.c **** #endif
 397:Drivers/STM32F4xx_HAL_Driver/Src/stm32f4xx_hal_can.c ****      
ARM GAS  /var/folders/7p/1_dhylqx7nl5s8914_0f_4w00000gn/T//ccPpXWzH.s 			page 9


 398:Drivers/STM32F4xx_HAL_Driver/Src/stm32f4xx_hal_can.c ****   /* Filter Deactivation */
 399:Drivers/STM32F4xx_HAL_Driver/Src/stm32f4xx_hal_can.c ****   can_ip->FA1R &= ~(uint32_t)filternbrbitpos;
  61              		.loc 1 399 0
  62 0030 D3F81C42 		ldr	r4, [r3, #540]
  63 0034 D043     		mvns	r0, r2
  64 0036 0440     		ands	r4, r4, r0
  65 0038 C3F81C42 		str	r4, [r3, #540]
 400:Drivers/STM32F4xx_HAL_Driver/Src/stm32f4xx_hal_can.c **** 
 401:Drivers/STM32F4xx_HAL_Driver/Src/stm32f4xx_hal_can.c ****   /* Filter Scale */
 402:Drivers/STM32F4xx_HAL_Driver/Src/stm32f4xx_hal_can.c ****   if (sFilterConfig->FilterScale == CAN_FILTERSCALE_16BIT)
  66              		.loc 1 402 0
  67 003c CB69     		ldr	r3, [r1, #28]
  68 003e B3B9     		cbnz	r3, .L2
 403:Drivers/STM32F4xx_HAL_Driver/Src/stm32f4xx_hal_can.c ****   {
 404:Drivers/STM32F4xx_HAL_Driver/Src/stm32f4xx_hal_can.c ****     /* 16-bit scale for the filter */
 405:Drivers/STM32F4xx_HAL_Driver/Src/stm32f4xx_hal_can.c ****     can_ip->FS1R &= ~(uint32_t)filternbrbitpos;
  69              		.loc 1 405 0
  70 0040 334B     		ldr	r3, .L13
  71 0042 D3F80C42 		ldr	r4, [r3, #524]
  72 0046 0440     		ands	r4, r4, r0
  73 0048 C3F80C42 		str	r4, [r3, #524]
 406:Drivers/STM32F4xx_HAL_Driver/Src/stm32f4xx_hal_can.c **** 
 407:Drivers/STM32F4xx_HAL_Driver/Src/stm32f4xx_hal_can.c ****     /* First 16-bit identifier and First 16-bit mask */
 408:Drivers/STM32F4xx_HAL_Driver/Src/stm32f4xx_hal_can.c ****     /* Or First 16-bit identifier and Second 16-bit identifier */
 409:Drivers/STM32F4xx_HAL_Driver/Src/stm32f4xx_hal_can.c ****     can_ip->sFilterRegister[sFilterConfig->FilterNumber].FR1 = 
  74              		.loc 1 409 0
  75 004c 4C69     		ldr	r4, [r1, #20]
 410:Drivers/STM32F4xx_HAL_Driver/Src/stm32f4xx_hal_can.c ****        ((0x0000FFFFU & (uint32_t)sFilterConfig->FilterMaskIdLow) << 16U) |
  76              		.loc 1 410 0
  77 004e CE68     		ldr	r6, [r1, #12]
 411:Drivers/STM32F4xx_HAL_Driver/Src/stm32f4xx_hal_can.c ****         (0x0000FFFFU & (uint32_t)sFilterConfig->FilterIdLow);
  78              		.loc 1 411 0
  79 0050 8D88     		ldrh	r5, [r1, #4]
 410:Drivers/STM32F4xx_HAL_Driver/Src/stm32f4xx_hal_can.c ****        ((0x0000FFFFU & (uint32_t)sFilterConfig->FilterMaskIdLow) << 16U) |
  80              		.loc 1 410 0
  81 0052 45EA0645 		orr	r5, r5, r6, lsl #16
 409:Drivers/STM32F4xx_HAL_Driver/Src/stm32f4xx_hal_can.c ****        ((0x0000FFFFU & (uint32_t)sFilterConfig->FilterMaskIdLow) << 16U) |
  82              		.loc 1 409 0
  83 0056 4834     		adds	r4, r4, #72
  84 0058 43F83450 		str	r5, [r3, r4, lsl #3]
 412:Drivers/STM32F4xx_HAL_Driver/Src/stm32f4xx_hal_can.c **** 
 413:Drivers/STM32F4xx_HAL_Driver/Src/stm32f4xx_hal_can.c ****     /* Second 16-bit identifier and Second 16-bit mask */
 414:Drivers/STM32F4xx_HAL_Driver/Src/stm32f4xx_hal_can.c ****     /* Or Third 16-bit identifier and Fourth 16-bit identifier */
 415:Drivers/STM32F4xx_HAL_Driver/Src/stm32f4xx_hal_can.c ****     can_ip->sFilterRegister[sFilterConfig->FilterNumber].FR2 = 
  85              		.loc 1 415 0
  86 005c 4D69     		ldr	r5, [r1, #20]
 416:Drivers/STM32F4xx_HAL_Driver/Src/stm32f4xx_hal_can.c ****        ((0x0000FFFFU & (uint32_t)sFilterConfig->FilterMaskIdHigh) << 16U) |
  87              		.loc 1 416 0
  88 005e 8E68     		ldr	r6, [r1, #8]
 417:Drivers/STM32F4xx_HAL_Driver/Src/stm32f4xx_hal_can.c ****         (0x0000FFFFU & (uint32_t)sFilterConfig->FilterIdHigh);
  89              		.loc 1 417 0
  90 0060 0C88     		ldrh	r4, [r1]
 416:Drivers/STM32F4xx_HAL_Driver/Src/stm32f4xx_hal_can.c ****        ((0x0000FFFFU & (uint32_t)sFilterConfig->FilterMaskIdHigh) << 16U) |
  91              		.loc 1 416 0
  92 0062 44EA0644 		orr	r4, r4, r6, lsl #16
 415:Drivers/STM32F4xx_HAL_Driver/Src/stm32f4xx_hal_can.c ****        ((0x0000FFFFU & (uint32_t)sFilterConfig->FilterMaskIdHigh) << 16U) |
  93              		.loc 1 415 0
ARM GAS  /var/folders/7p/1_dhylqx7nl5s8914_0f_4w00000gn/T//ccPpXWzH.s 			page 10


  94 0066 4835     		adds	r5, r5, #72
  95 0068 03EBC503 		add	r3, r3, r5, lsl #3
  96 006c 5C60     		str	r4, [r3, #4]
  97              	.L2:
 418:Drivers/STM32F4xx_HAL_Driver/Src/stm32f4xx_hal_can.c ****   }
 419:Drivers/STM32F4xx_HAL_Driver/Src/stm32f4xx_hal_can.c **** 
 420:Drivers/STM32F4xx_HAL_Driver/Src/stm32f4xx_hal_can.c ****   if (sFilterConfig->FilterScale == CAN_FILTERSCALE_32BIT)
  98              		.loc 1 420 0
  99 006e CB69     		ldr	r3, [r1, #28]
 100 0070 012B     		cmp	r3, #1
 101 0072 20D0     		beq	.L10
 102              	.L3:
 421:Drivers/STM32F4xx_HAL_Driver/Src/stm32f4xx_hal_can.c ****   {
 422:Drivers/STM32F4xx_HAL_Driver/Src/stm32f4xx_hal_can.c ****     /* 32-bit scale for the filter */
 423:Drivers/STM32F4xx_HAL_Driver/Src/stm32f4xx_hal_can.c ****     can_ip->FS1R |= filternbrbitpos;
 424:Drivers/STM32F4xx_HAL_Driver/Src/stm32f4xx_hal_can.c ****     
 425:Drivers/STM32F4xx_HAL_Driver/Src/stm32f4xx_hal_can.c ****     /* 32-bit identifier or First 32-bit identifier */
 426:Drivers/STM32F4xx_HAL_Driver/Src/stm32f4xx_hal_can.c ****     can_ip->sFilterRegister[sFilterConfig->FilterNumber].FR1 = 
 427:Drivers/STM32F4xx_HAL_Driver/Src/stm32f4xx_hal_can.c ****        ((0x0000FFFFU & (uint32_t)sFilterConfig->FilterIdHigh) << 16U) |
 428:Drivers/STM32F4xx_HAL_Driver/Src/stm32f4xx_hal_can.c ****         (0x0000FFFFU & (uint32_t)sFilterConfig->FilterIdLow);
 429:Drivers/STM32F4xx_HAL_Driver/Src/stm32f4xx_hal_can.c ****     /* 32-bit mask or Second 32-bit identifier */
 430:Drivers/STM32F4xx_HAL_Driver/Src/stm32f4xx_hal_can.c ****     can_ip->sFilterRegister[sFilterConfig->FilterNumber].FR2 = 
 431:Drivers/STM32F4xx_HAL_Driver/Src/stm32f4xx_hal_can.c ****        ((0x0000FFFFU & (uint32_t)sFilterConfig->FilterMaskIdHigh) << 16U) |
 432:Drivers/STM32F4xx_HAL_Driver/Src/stm32f4xx_hal_can.c ****         (0x0000FFFFU & (uint32_t)sFilterConfig->FilterMaskIdLow);
 433:Drivers/STM32F4xx_HAL_Driver/Src/stm32f4xx_hal_can.c ****   }
 434:Drivers/STM32F4xx_HAL_Driver/Src/stm32f4xx_hal_can.c **** 
 435:Drivers/STM32F4xx_HAL_Driver/Src/stm32f4xx_hal_can.c ****   /* Filter Mode */
 436:Drivers/STM32F4xx_HAL_Driver/Src/stm32f4xx_hal_can.c ****   if (sFilterConfig->FilterMode == CAN_FILTERMODE_IDMASK)
 103              		.loc 1 436 0
 104 0074 8B69     		ldr	r3, [r1, #24]
 105 0076 002B     		cmp	r3, #0
 106 0078 35D1     		bne	.L4
 437:Drivers/STM32F4xx_HAL_Driver/Src/stm32f4xx_hal_can.c ****   {
 438:Drivers/STM32F4xx_HAL_Driver/Src/stm32f4xx_hal_can.c ****     /*Id/Mask mode for the filter*/
 439:Drivers/STM32F4xx_HAL_Driver/Src/stm32f4xx_hal_can.c ****     can_ip->FM1R &= ~(uint32_t)filternbrbitpos;
 107              		.loc 1 439 0
 108 007a 254C     		ldr	r4, .L13
 109 007c D4F80432 		ldr	r3, [r4, #516]
 110 0080 0340     		ands	r3, r3, r0
 111 0082 C4F80432 		str	r3, [r4, #516]
 112              	.L5:
 440:Drivers/STM32F4xx_HAL_Driver/Src/stm32f4xx_hal_can.c ****   }
 441:Drivers/STM32F4xx_HAL_Driver/Src/stm32f4xx_hal_can.c ****   else /* CAN_FilterInitStruct->CAN_FilterMode == CAN_FilterMode_IdList */
 442:Drivers/STM32F4xx_HAL_Driver/Src/stm32f4xx_hal_can.c ****   {
 443:Drivers/STM32F4xx_HAL_Driver/Src/stm32f4xx_hal_can.c ****     /*Identifier list mode for the filter*/
 444:Drivers/STM32F4xx_HAL_Driver/Src/stm32f4xx_hal_can.c ****     can_ip->FM1R |= (uint32_t)filternbrbitpos;
 445:Drivers/STM32F4xx_HAL_Driver/Src/stm32f4xx_hal_can.c ****   }
 446:Drivers/STM32F4xx_HAL_Driver/Src/stm32f4xx_hal_can.c **** 
 447:Drivers/STM32F4xx_HAL_Driver/Src/stm32f4xx_hal_can.c ****   /* Filter FIFO assignment */
 448:Drivers/STM32F4xx_HAL_Driver/Src/stm32f4xx_hal_can.c ****   if (sFilterConfig->FilterFIFOAssignment == CAN_FILTER_FIFO0)
 113              		.loc 1 448 0
 114 0086 0B69     		ldr	r3, [r1, #16]
 115 0088 2BB9     		cbnz	r3, .L6
 449:Drivers/STM32F4xx_HAL_Driver/Src/stm32f4xx_hal_can.c ****   {
 450:Drivers/STM32F4xx_HAL_Driver/Src/stm32f4xx_hal_can.c ****     /* FIFO 0 assignation for the filter */
 451:Drivers/STM32F4xx_HAL_Driver/Src/stm32f4xx_hal_can.c ****     can_ip->FFA1R &= ~(uint32_t)filternbrbitpos;
 116              		.loc 1 451 0
ARM GAS  /var/folders/7p/1_dhylqx7nl5s8914_0f_4w00000gn/T//ccPpXWzH.s 			page 11


 117 008a 214B     		ldr	r3, .L13
 118 008c D3F81442 		ldr	r4, [r3, #532]
 119 0090 2040     		ands	r0, r0, r4
 120 0092 C3F81402 		str	r0, [r3, #532]
 121              	.L6:
 452:Drivers/STM32F4xx_HAL_Driver/Src/stm32f4xx_hal_can.c ****   }
 453:Drivers/STM32F4xx_HAL_Driver/Src/stm32f4xx_hal_can.c **** 
 454:Drivers/STM32F4xx_HAL_Driver/Src/stm32f4xx_hal_can.c ****   if (sFilterConfig->FilterFIFOAssignment == CAN_FILTER_FIFO1)
 122              		.loc 1 454 0
 123 0096 0B69     		ldr	r3, [r1, #16]
 124 0098 012B     		cmp	r3, #1
 125 009a 2BD0     		beq	.L11
 126              	.L7:
 455:Drivers/STM32F4xx_HAL_Driver/Src/stm32f4xx_hal_can.c ****   {
 456:Drivers/STM32F4xx_HAL_Driver/Src/stm32f4xx_hal_can.c ****     /* FIFO 1 assignation for the filter */
 457:Drivers/STM32F4xx_HAL_Driver/Src/stm32f4xx_hal_can.c ****     can_ip->FFA1R |= (uint32_t)filternbrbitpos;
 458:Drivers/STM32F4xx_HAL_Driver/Src/stm32f4xx_hal_can.c ****   }
 459:Drivers/STM32F4xx_HAL_Driver/Src/stm32f4xx_hal_can.c ****   
 460:Drivers/STM32F4xx_HAL_Driver/Src/stm32f4xx_hal_can.c ****   /* Filter activation */
 461:Drivers/STM32F4xx_HAL_Driver/Src/stm32f4xx_hal_can.c ****   if (sFilterConfig->FilterActivation == ENABLE)
 127              		.loc 1 461 0
 128 009c 0B6A     		ldr	r3, [r1, #32]
 129 009e 012B     		cmp	r3, #1
 130 00a0 2FD0     		beq	.L12
 131              	.LVL4:
 132              	.L8:
 462:Drivers/STM32F4xx_HAL_Driver/Src/stm32f4xx_hal_can.c ****   {
 463:Drivers/STM32F4xx_HAL_Driver/Src/stm32f4xx_hal_can.c ****     can_ip->FA1R |= filternbrbitpos;
 464:Drivers/STM32F4xx_HAL_Driver/Src/stm32f4xx_hal_can.c ****   }
 465:Drivers/STM32F4xx_HAL_Driver/Src/stm32f4xx_hal_can.c **** 
 466:Drivers/STM32F4xx_HAL_Driver/Src/stm32f4xx_hal_can.c ****   /* Leave the initialisation mode for the filter */
 467:Drivers/STM32F4xx_HAL_Driver/Src/stm32f4xx_hal_can.c ****   can_ip->FMR &= ~((uint32_t)CAN_FMR_FINIT);
 133              		.loc 1 467 0
 134 00a2 1B4A     		ldr	r2, .L13
 135 00a4 D2F80032 		ldr	r3, [r2, #512]
 136 00a8 23F00103 		bic	r3, r3, #1
 137 00ac C2F80032 		str	r3, [r2, #512]
 468:Drivers/STM32F4xx_HAL_Driver/Src/stm32f4xx_hal_can.c ****   
 469:Drivers/STM32F4xx_HAL_Driver/Src/stm32f4xx_hal_can.c ****   /* Return function status */
 470:Drivers/STM32F4xx_HAL_Driver/Src/stm32f4xx_hal_can.c ****   return HAL_OK;
 471:Drivers/STM32F4xx_HAL_Driver/Src/stm32f4xx_hal_can.c **** }
 138              		.loc 1 471 0
 139 00b0 0020     		movs	r0, #0
 140 00b2 70BC     		pop	{r4, r5, r6}
 141              	.LCFI1:
 142              		.cfi_remember_state
 143              		.cfi_restore 6
 144              		.cfi_restore 5
 145              		.cfi_restore 4
 146              		.cfi_def_cfa_offset 0
 147 00b4 7047     		bx	lr
 148              	.LVL5:
 149              	.L10:
 150              	.LCFI2:
 151              		.cfi_restore_state
 423:Drivers/STM32F4xx_HAL_Driver/Src/stm32f4xx_hal_can.c ****     
 152              		.loc 1 423 0
ARM GAS  /var/folders/7p/1_dhylqx7nl5s8914_0f_4w00000gn/T//ccPpXWzH.s 			page 12


 153 00b6 164B     		ldr	r3, .L13
 154 00b8 D3F80C42 		ldr	r4, [r3, #524]
 155 00bc 1443     		orrs	r4, r4, r2
 156 00be C3F80C42 		str	r4, [r3, #524]
 426:Drivers/STM32F4xx_HAL_Driver/Src/stm32f4xx_hal_can.c ****        ((0x0000FFFFU & (uint32_t)sFilterConfig->FilterIdHigh) << 16U) |
 157              		.loc 1 426 0
 158 00c2 4C69     		ldr	r4, [r1, #20]
 427:Drivers/STM32F4xx_HAL_Driver/Src/stm32f4xx_hal_can.c ****         (0x0000FFFFU & (uint32_t)sFilterConfig->FilterIdLow);
 159              		.loc 1 427 0
 160 00c4 0E68     		ldr	r6, [r1]
 428:Drivers/STM32F4xx_HAL_Driver/Src/stm32f4xx_hal_can.c ****     /* 32-bit mask or Second 32-bit identifier */
 161              		.loc 1 428 0
 162 00c6 8D88     		ldrh	r5, [r1, #4]
 427:Drivers/STM32F4xx_HAL_Driver/Src/stm32f4xx_hal_can.c ****         (0x0000FFFFU & (uint32_t)sFilterConfig->FilterIdLow);
 163              		.loc 1 427 0
 164 00c8 45EA0645 		orr	r5, r5, r6, lsl #16
 426:Drivers/STM32F4xx_HAL_Driver/Src/stm32f4xx_hal_can.c ****        ((0x0000FFFFU & (uint32_t)sFilterConfig->FilterIdHigh) << 16U) |
 165              		.loc 1 426 0
 166 00cc 4834     		adds	r4, r4, #72
 167 00ce 43F83450 		str	r5, [r3, r4, lsl #3]
 430:Drivers/STM32F4xx_HAL_Driver/Src/stm32f4xx_hal_can.c ****        ((0x0000FFFFU & (uint32_t)sFilterConfig->FilterMaskIdHigh) << 16U) |
 168              		.loc 1 430 0
 169 00d2 4D69     		ldr	r5, [r1, #20]
 431:Drivers/STM32F4xx_HAL_Driver/Src/stm32f4xx_hal_can.c ****         (0x0000FFFFU & (uint32_t)sFilterConfig->FilterMaskIdLow);
 170              		.loc 1 431 0
 171 00d4 8E68     		ldr	r6, [r1, #8]
 432:Drivers/STM32F4xx_HAL_Driver/Src/stm32f4xx_hal_can.c ****   }
 172              		.loc 1 432 0
 173 00d6 8C89     		ldrh	r4, [r1, #12]
 431:Drivers/STM32F4xx_HAL_Driver/Src/stm32f4xx_hal_can.c ****         (0x0000FFFFU & (uint32_t)sFilterConfig->FilterMaskIdLow);
 174              		.loc 1 431 0
 175 00d8 44EA0644 		orr	r4, r4, r6, lsl #16
 430:Drivers/STM32F4xx_HAL_Driver/Src/stm32f4xx_hal_can.c ****        ((0x0000FFFFU & (uint32_t)sFilterConfig->FilterMaskIdHigh) << 16U) |
 176              		.loc 1 430 0
 177 00dc 4835     		adds	r5, r5, #72
 178 00de 03EBC503 		add	r3, r3, r5, lsl #3
 179 00e2 5C60     		str	r4, [r3, #4]
 180 00e4 C6E7     		b	.L3
 181              	.L4:
 444:Drivers/STM32F4xx_HAL_Driver/Src/stm32f4xx_hal_can.c ****   }
 182              		.loc 1 444 0
 183 00e6 0A4C     		ldr	r4, .L13
 184 00e8 D4F80432 		ldr	r3, [r4, #516]
 185 00ec 1343     		orrs	r3, r3, r2
 186 00ee C4F80432 		str	r3, [r4, #516]
 187 00f2 C8E7     		b	.L5
 188              	.L11:
 457:Drivers/STM32F4xx_HAL_Driver/Src/stm32f4xx_hal_can.c ****   }
 189              		.loc 1 457 0
 190 00f4 0648     		ldr	r0, .L13
 191 00f6 D0F81432 		ldr	r3, [r0, #532]
 192 00fa 1343     		orrs	r3, r3, r2
 193 00fc C0F81432 		str	r3, [r0, #532]
 194 0100 CCE7     		b	.L7
 195              	.L12:
 463:Drivers/STM32F4xx_HAL_Driver/Src/stm32f4xx_hal_can.c ****   }
 196              		.loc 1 463 0
ARM GAS  /var/folders/7p/1_dhylqx7nl5s8914_0f_4w00000gn/T//ccPpXWzH.s 			page 13


 197 0102 034B     		ldr	r3, .L13
 198 0104 D3F81C12 		ldr	r1, [r3, #540]
 199              	.LVL6:
 200 0108 0A43     		orrs	r2, r2, r1
 201              	.LVL7:
 202 010a C3F81C22 		str	r2, [r3, #540]
 203 010e C8E7     		b	.L8
 204              	.L14:
 205              		.align	2
 206              	.L13:
 207 0110 00640040 		.word	1073767424
 208              		.cfi_endproc
 209              	.LFE125:
 211              		.section	.text.HAL_CAN_MspInit,"ax",%progbits
 212              		.align	1
 213              		.weak	HAL_CAN_MspInit
 214              		.syntax unified
 215              		.thumb
 216              		.thumb_func
 217              		.fpu fpv4-sp-d16
 219              	HAL_CAN_MspInit:
 220              	.LFB127:
 472:Drivers/STM32F4xx_HAL_Driver/Src/stm32f4xx_hal_can.c **** 
 473:Drivers/STM32F4xx_HAL_Driver/Src/stm32f4xx_hal_can.c **** /**
 474:Drivers/STM32F4xx_HAL_Driver/Src/stm32f4xx_hal_can.c ****   * @brief  Deinitializes the CANx peripheral registers to their default reset values. 
 475:Drivers/STM32F4xx_HAL_Driver/Src/stm32f4xx_hal_can.c ****   * @param  hcan: pointer to a CAN_HandleTypeDef structure that contains
 476:Drivers/STM32F4xx_HAL_Driver/Src/stm32f4xx_hal_can.c ****   *         the configuration information for the specified CAN.  
 477:Drivers/STM32F4xx_HAL_Driver/Src/stm32f4xx_hal_can.c ****   * @retval HAL status
 478:Drivers/STM32F4xx_HAL_Driver/Src/stm32f4xx_hal_can.c ****   */
 479:Drivers/STM32F4xx_HAL_Driver/Src/stm32f4xx_hal_can.c **** HAL_StatusTypeDef HAL_CAN_DeInit(CAN_HandleTypeDef* hcan)
 480:Drivers/STM32F4xx_HAL_Driver/Src/stm32f4xx_hal_can.c **** {
 481:Drivers/STM32F4xx_HAL_Driver/Src/stm32f4xx_hal_can.c ****   /* Check CAN handle */
 482:Drivers/STM32F4xx_HAL_Driver/Src/stm32f4xx_hal_can.c ****   if(hcan == NULL)
 483:Drivers/STM32F4xx_HAL_Driver/Src/stm32f4xx_hal_can.c ****   {
 484:Drivers/STM32F4xx_HAL_Driver/Src/stm32f4xx_hal_can.c ****      return HAL_ERROR;
 485:Drivers/STM32F4xx_HAL_Driver/Src/stm32f4xx_hal_can.c ****   }
 486:Drivers/STM32F4xx_HAL_Driver/Src/stm32f4xx_hal_can.c ****   
 487:Drivers/STM32F4xx_HAL_Driver/Src/stm32f4xx_hal_can.c ****   /* Check the parameters */
 488:Drivers/STM32F4xx_HAL_Driver/Src/stm32f4xx_hal_can.c ****   assert_param(IS_CAN_ALL_INSTANCE(hcan->Instance));
 489:Drivers/STM32F4xx_HAL_Driver/Src/stm32f4xx_hal_can.c ****   
 490:Drivers/STM32F4xx_HAL_Driver/Src/stm32f4xx_hal_can.c ****   /* Change CAN state */
 491:Drivers/STM32F4xx_HAL_Driver/Src/stm32f4xx_hal_can.c ****   hcan->State = HAL_CAN_STATE_BUSY;
 492:Drivers/STM32F4xx_HAL_Driver/Src/stm32f4xx_hal_can.c ****   
 493:Drivers/STM32F4xx_HAL_Driver/Src/stm32f4xx_hal_can.c ****   /* DeInit the low level hardware */
 494:Drivers/STM32F4xx_HAL_Driver/Src/stm32f4xx_hal_can.c ****   HAL_CAN_MspDeInit(hcan);
 495:Drivers/STM32F4xx_HAL_Driver/Src/stm32f4xx_hal_can.c ****   
 496:Drivers/STM32F4xx_HAL_Driver/Src/stm32f4xx_hal_can.c ****   /* Change CAN state */
 497:Drivers/STM32F4xx_HAL_Driver/Src/stm32f4xx_hal_can.c ****   hcan->State = HAL_CAN_STATE_RESET;
 498:Drivers/STM32F4xx_HAL_Driver/Src/stm32f4xx_hal_can.c **** 
 499:Drivers/STM32F4xx_HAL_Driver/Src/stm32f4xx_hal_can.c ****   /* Release Lock */
 500:Drivers/STM32F4xx_HAL_Driver/Src/stm32f4xx_hal_can.c ****   __HAL_UNLOCK(hcan);
 501:Drivers/STM32F4xx_HAL_Driver/Src/stm32f4xx_hal_can.c **** 
 502:Drivers/STM32F4xx_HAL_Driver/Src/stm32f4xx_hal_can.c ****   /* Return function status */
 503:Drivers/STM32F4xx_HAL_Driver/Src/stm32f4xx_hal_can.c ****   return HAL_OK;
 504:Drivers/STM32F4xx_HAL_Driver/Src/stm32f4xx_hal_can.c **** }
 505:Drivers/STM32F4xx_HAL_Driver/Src/stm32f4xx_hal_can.c **** 
 506:Drivers/STM32F4xx_HAL_Driver/Src/stm32f4xx_hal_can.c **** /**
ARM GAS  /var/folders/7p/1_dhylqx7nl5s8914_0f_4w00000gn/T//ccPpXWzH.s 			page 14


 507:Drivers/STM32F4xx_HAL_Driver/Src/stm32f4xx_hal_can.c ****   * @brief  Initializes the CAN MSP.
 508:Drivers/STM32F4xx_HAL_Driver/Src/stm32f4xx_hal_can.c ****   * @param  hcan: pointer to a CAN_HandleTypeDef structure that contains
 509:Drivers/STM32F4xx_HAL_Driver/Src/stm32f4xx_hal_can.c ****   *         the configuration information for the specified CAN.  
 510:Drivers/STM32F4xx_HAL_Driver/Src/stm32f4xx_hal_can.c ****   * @retval None
 511:Drivers/STM32F4xx_HAL_Driver/Src/stm32f4xx_hal_can.c ****   */
 512:Drivers/STM32F4xx_HAL_Driver/Src/stm32f4xx_hal_can.c **** __weak void HAL_CAN_MspInit(CAN_HandleTypeDef* hcan)
 513:Drivers/STM32F4xx_HAL_Driver/Src/stm32f4xx_hal_can.c **** {
 221              		.loc 1 513 0
 222              		.cfi_startproc
 223              		@ args = 0, pretend = 0, frame = 0
 224              		@ frame_needed = 0, uses_anonymous_args = 0
 225              		@ link register save eliminated.
 226              	.LVL8:
 227 0000 7047     		bx	lr
 228              		.cfi_endproc
 229              	.LFE127:
 231              		.section	.text.HAL_CAN_Init,"ax",%progbits
 232              		.align	1
 233              		.global	HAL_CAN_Init
 234              		.syntax unified
 235              		.thumb
 236              		.thumb_func
 237              		.fpu fpv4-sp-d16
 239              	HAL_CAN_Init:
 240              	.LFB124:
 176:Drivers/STM32F4xx_HAL_Driver/Src/stm32f4xx_hal_can.c ****   uint32_t InitStatus = CAN_INITSTATUS_FAILED;
 241              		.loc 1 176 0
 242              		.cfi_startproc
 243              		@ args = 0, pretend = 0, frame = 0
 244              		@ frame_needed = 0, uses_anonymous_args = 0
 245              	.LVL9:
 181:Drivers/STM32F4xx_HAL_Driver/Src/stm32f4xx_hal_can.c ****   {
 246              		.loc 1 181 0
 247 0000 0028     		cmp	r0, #0
 248 0002 00F0BB80 		beq	.L37
 176:Drivers/STM32F4xx_HAL_Driver/Src/stm32f4xx_hal_can.c ****   uint32_t InitStatus = CAN_INITSTATUS_FAILED;
 249              		.loc 1 176 0
 250 0006 38B5     		push	{r3, r4, r5, lr}
 251              	.LCFI3:
 252              		.cfi_def_cfa_offset 16
 253              		.cfi_offset 3, -16
 254              		.cfi_offset 4, -12
 255              		.cfi_offset 5, -8
 256              		.cfi_offset 14, -4
 257 0008 0446     		mov	r4, r0
 201:Drivers/STM32F4xx_HAL_Driver/Src/stm32f4xx_hal_can.c ****   {
 258              		.loc 1 201 0
 259 000a 90F83C30 		ldrb	r3, [r0, #60]	@ zero_extendqisi2
 260 000e 03B3     		cbz	r3, .L44
 261              	.LVL10:
 262              	.L18:
 210:Drivers/STM32F4xx_HAL_Driver/Src/stm32f4xx_hal_can.c ****   
 263              		.loc 1 210 0
 264 0010 0223     		movs	r3, #2
 265 0012 84F83C30 		strb	r3, [r4, #60]
 213:Drivers/STM32F4xx_HAL_Driver/Src/stm32f4xx_hal_can.c **** 
 266              		.loc 1 213 0
ARM GAS  /var/folders/7p/1_dhylqx7nl5s8914_0f_4w00000gn/T//ccPpXWzH.s 			page 15


 267 0016 2268     		ldr	r2, [r4]
 268 0018 1368     		ldr	r3, [r2]
 269 001a 23F00203 		bic	r3, r3, #2
 270 001e 1360     		str	r3, [r2]
 216:Drivers/STM32F4xx_HAL_Driver/Src/stm32f4xx_hal_can.c ****   
 271              		.loc 1 216 0
 272 0020 2268     		ldr	r2, [r4]
 273 0022 1368     		ldr	r3, [r2]
 274 0024 43F00103 		orr	r3, r3, #1
 275 0028 1360     		str	r3, [r2]
 219:Drivers/STM32F4xx_HAL_Driver/Src/stm32f4xx_hal_can.c **** 
 276              		.loc 1 219 0
 277 002a FFF7FEFF 		bl	HAL_GetTick
 278              	.LVL11:
 279 002e 0546     		mov	r5, r0
 280              	.LVL12:
 281              	.L19:
 222:Drivers/STM32F4xx_HAL_Driver/Src/stm32f4xx_hal_can.c ****   {
 282              		.loc 1 222 0
 283 0030 2368     		ldr	r3, [r4]
 284 0032 5A68     		ldr	r2, [r3, #4]
 285 0034 12F0010F 		tst	r2, #1
 286 0038 10D1     		bne	.L45
 224:Drivers/STM32F4xx_HAL_Driver/Src/stm32f4xx_hal_can.c ****     {
 287              		.loc 1 224 0
 288 003a FFF7FEFF 		bl	HAL_GetTick
 289              	.LVL13:
 290 003e 401B     		subs	r0, r0, r5
 291 0040 0A28     		cmp	r0, #10
 292 0042 F5D9     		bls	.L19
 226:Drivers/STM32F4xx_HAL_Driver/Src/stm32f4xx_hal_can.c ****       /* Process unlocked */
 293              		.loc 1 226 0
 294 0044 0320     		movs	r0, #3
 295 0046 84F83C00 		strb	r0, [r4, #60]
 228:Drivers/STM32F4xx_HAL_Driver/Src/stm32f4xx_hal_can.c ****       return HAL_TIMEOUT;
 296              		.loc 1 228 0
 297 004a 0023     		movs	r3, #0
 298 004c 84F83D30 		strb	r3, [r4, #61]
 229:Drivers/STM32F4xx_HAL_Driver/Src/stm32f4xx_hal_can.c ****     }
 299              		.loc 1 229 0
 300 0050 38BD     		pop	{r3, r4, r5, pc}
 301              	.LVL14:
 302              	.L44:
 204:Drivers/STM32F4xx_HAL_Driver/Src/stm32f4xx_hal_can.c ****     /* Init the low level hardware */
 303              		.loc 1 204 0
 304 0052 80F83D30 		strb	r3, [r0, #61]
 206:Drivers/STM32F4xx_HAL_Driver/Src/stm32f4xx_hal_can.c ****   }
 305              		.loc 1 206 0
 306 0056 FFF7FEFF 		bl	HAL_CAN_MspInit
 307              	.LVL15:
 308 005a D9E7     		b	.L18
 309              	.LVL16:
 310              	.L45:
 234:Drivers/STM32F4xx_HAL_Driver/Src/stm32f4xx_hal_can.c ****   {
 311              		.loc 1 234 0
 312 005c 5A68     		ldr	r2, [r3, #4]
 313 005e 12F0010F 		tst	r2, #1
ARM GAS  /var/folders/7p/1_dhylqx7nl5s8914_0f_4w00000gn/T//ccPpXWzH.s 			page 16


 314 0062 7CD0     		beq	.L38
 237:Drivers/STM32F4xx_HAL_Driver/Src/stm32f4xx_hal_can.c ****     {
 315              		.loc 1 237 0
 316 0064 A269     		ldr	r2, [r4, #24]
 317 0066 012A     		cmp	r2, #1
 318 0068 50D0     		beq	.L46
 243:Drivers/STM32F4xx_HAL_Driver/Src/stm32f4xx_hal_can.c ****     }
 319              		.loc 1 243 0
 320 006a 1A68     		ldr	r2, [r3]
 321 006c 22F08002 		bic	r2, r2, #128
 322 0070 1A60     		str	r2, [r3]
 323              	.L23:
 247:Drivers/STM32F4xx_HAL_Driver/Src/stm32f4xx_hal_can.c ****     {
 324              		.loc 1 247 0
 325 0072 E369     		ldr	r3, [r4, #28]
 326 0074 012B     		cmp	r3, #1
 327 0076 4ED0     		beq	.L47
 253:Drivers/STM32F4xx_HAL_Driver/Src/stm32f4xx_hal_can.c ****     }
 328              		.loc 1 253 0
 329 0078 2268     		ldr	r2, [r4]
 330 007a 1368     		ldr	r3, [r2]
 331 007c 23F04003 		bic	r3, r3, #64
 332 0080 1360     		str	r3, [r2]
 333              	.L25:
 257:Drivers/STM32F4xx_HAL_Driver/Src/stm32f4xx_hal_can.c ****     {
 334              		.loc 1 257 0
 335 0082 236A     		ldr	r3, [r4, #32]
 336 0084 012B     		cmp	r3, #1
 337 0086 4CD0     		beq	.L48
 263:Drivers/STM32F4xx_HAL_Driver/Src/stm32f4xx_hal_can.c ****     }
 338              		.loc 1 263 0
 339 0088 2268     		ldr	r2, [r4]
 340 008a 1368     		ldr	r3, [r2]
 341 008c 23F02003 		bic	r3, r3, #32
 342 0090 1360     		str	r3, [r2]
 343              	.L27:
 267:Drivers/STM32F4xx_HAL_Driver/Src/stm32f4xx_hal_can.c ****     {
 344              		.loc 1 267 0
 345 0092 636A     		ldr	r3, [r4, #36]
 346 0094 012B     		cmp	r3, #1
 347 0096 4AD0     		beq	.L49
 273:Drivers/STM32F4xx_HAL_Driver/Src/stm32f4xx_hal_can.c ****     }
 348              		.loc 1 273 0
 349 0098 2268     		ldr	r2, [r4]
 350 009a 1368     		ldr	r3, [r2]
 351 009c 23F01003 		bic	r3, r3, #16
 352 00a0 1360     		str	r3, [r2]
 353              	.L29:
 277:Drivers/STM32F4xx_HAL_Driver/Src/stm32f4xx_hal_can.c ****     {
 354              		.loc 1 277 0
 355 00a2 A36A     		ldr	r3, [r4, #40]
 356 00a4 012B     		cmp	r3, #1
 357 00a6 48D0     		beq	.L50
 283:Drivers/STM32F4xx_HAL_Driver/Src/stm32f4xx_hal_can.c ****     }
 358              		.loc 1 283 0
 359 00a8 2268     		ldr	r2, [r4]
 360 00aa 1368     		ldr	r3, [r2]
ARM GAS  /var/folders/7p/1_dhylqx7nl5s8914_0f_4w00000gn/T//ccPpXWzH.s 			page 17


 361 00ac 23F00803 		bic	r3, r3, #8
 362 00b0 1360     		str	r3, [r2]
 363              	.L31:
 287:Drivers/STM32F4xx_HAL_Driver/Src/stm32f4xx_hal_can.c ****     {
 364              		.loc 1 287 0
 365 00b2 E36A     		ldr	r3, [r4, #44]
 366 00b4 012B     		cmp	r3, #1
 367 00b6 46D0     		beq	.L51
 293:Drivers/STM32F4xx_HAL_Driver/Src/stm32f4xx_hal_can.c ****     }
 368              		.loc 1 293 0
 369 00b8 2268     		ldr	r2, [r4]
 370 00ba 1368     		ldr	r3, [r2]
 371 00bc 23F00403 		bic	r3, r3, #4
 372 00c0 1360     		str	r3, [r2]
 373              	.L33:
 297:Drivers/STM32F4xx_HAL_Driver/Src/stm32f4xx_hal_can.c ****                 ((uint32_t)hcan->Init.SJW) | \
 374              		.loc 1 297 0
 375 00c2 2168     		ldr	r1, [r4]
 376 00c4 A368     		ldr	r3, [r4, #8]
 298:Drivers/STM32F4xx_HAL_Driver/Src/stm32f4xx_hal_can.c ****                 ((uint32_t)hcan->Init.BS1) | \
 377              		.loc 1 298 0
 378 00c6 E268     		ldr	r2, [r4, #12]
 297:Drivers/STM32F4xx_HAL_Driver/Src/stm32f4xx_hal_can.c ****                 ((uint32_t)hcan->Init.SJW) | \
 379              		.loc 1 297 0
 380 00c8 1343     		orrs	r3, r3, r2
 299:Drivers/STM32F4xx_HAL_Driver/Src/stm32f4xx_hal_can.c ****                 ((uint32_t)hcan->Init.BS2) | \
 381              		.loc 1 299 0
 382 00ca 2269     		ldr	r2, [r4, #16]
 298:Drivers/STM32F4xx_HAL_Driver/Src/stm32f4xx_hal_can.c ****                 ((uint32_t)hcan->Init.BS1) | \
 383              		.loc 1 298 0
 384 00cc 1343     		orrs	r3, r3, r2
 300:Drivers/STM32F4xx_HAL_Driver/Src/stm32f4xx_hal_can.c ****                ((uint32_t)hcan->Init.Prescaler - 1U);
 385              		.loc 1 300 0
 386 00ce 6269     		ldr	r2, [r4, #20]
 299:Drivers/STM32F4xx_HAL_Driver/Src/stm32f4xx_hal_can.c ****                 ((uint32_t)hcan->Init.BS2) | \
 387              		.loc 1 299 0
 388 00d0 1343     		orrs	r3, r3, r2
 301:Drivers/STM32F4xx_HAL_Driver/Src/stm32f4xx_hal_can.c **** 
 389              		.loc 1 301 0
 390 00d2 6268     		ldr	r2, [r4, #4]
 391 00d4 013A     		subs	r2, r2, #1
 300:Drivers/STM32F4xx_HAL_Driver/Src/stm32f4xx_hal_can.c ****                ((uint32_t)hcan->Init.Prescaler - 1U);
 392              		.loc 1 300 0
 393 00d6 1343     		orrs	r3, r3, r2
 297:Drivers/STM32F4xx_HAL_Driver/Src/stm32f4xx_hal_can.c ****                 ((uint32_t)hcan->Init.SJW) | \
 394              		.loc 1 297 0
 395 00d8 CB61     		str	r3, [r1, #28]
 304:Drivers/STM32F4xx_HAL_Driver/Src/stm32f4xx_hal_can.c **** 
 396              		.loc 1 304 0
 397 00da 2268     		ldr	r2, [r4]
 398 00dc 1368     		ldr	r3, [r2]
 399 00de 23F00103 		bic	r3, r3, #1
 400 00e2 1360     		str	r3, [r2]
 307:Drivers/STM32F4xx_HAL_Driver/Src/stm32f4xx_hal_can.c **** 
 401              		.loc 1 307 0
 402 00e4 FFF7FEFF 		bl	HAL_GetTick
 403              	.LVL17:
ARM GAS  /var/folders/7p/1_dhylqx7nl5s8914_0f_4w00000gn/T//ccPpXWzH.s 			page 18


 404 00e8 0546     		mov	r5, r0
 405              	.LVL18:
 406              	.L34:
 310:Drivers/STM32F4xx_HAL_Driver/Src/stm32f4xx_hal_can.c ****    {
 407              		.loc 1 310 0
 408 00ea 2368     		ldr	r3, [r4]
 409 00ec 5A68     		ldr	r2, [r3, #4]
 410 00ee 12F0010F 		tst	r2, #1
 411 00f2 2ED0     		beq	.L52
 312:Drivers/STM32F4xx_HAL_Driver/Src/stm32f4xx_hal_can.c ****      {
 412              		.loc 1 312 0
 413 00f4 FFF7FEFF 		bl	HAL_GetTick
 414              	.LVL19:
 415 00f8 401B     		subs	r0, r0, r5
 416 00fa 0A28     		cmp	r0, #10
 417 00fc F5D9     		bls	.L34
 314:Drivers/STM32F4xx_HAL_Driver/Src/stm32f4xx_hal_can.c ****        /* Process unlocked */
 418              		.loc 1 314 0
 419 00fe 0320     		movs	r0, #3
 420 0100 84F83C00 		strb	r0, [r4, #60]
 316:Drivers/STM32F4xx_HAL_Driver/Src/stm32f4xx_hal_can.c ****        return HAL_TIMEOUT;
 421              		.loc 1 316 0
 422 0104 0023     		movs	r3, #0
 423 0106 84F83D30 		strb	r3, [r4, #61]
 317:Drivers/STM32F4xx_HAL_Driver/Src/stm32f4xx_hal_can.c ****      }
 424              		.loc 1 317 0
 425 010a 38BD     		pop	{r3, r4, r5, pc}
 426              	.LVL20:
 427              	.L46:
 239:Drivers/STM32F4xx_HAL_Driver/Src/stm32f4xx_hal_can.c ****     }
 428              		.loc 1 239 0
 429 010c 1A68     		ldr	r2, [r3]
 430 010e 42F08002 		orr	r2, r2, #128
 431 0112 1A60     		str	r2, [r3]
 432 0114 ADE7     		b	.L23
 433              	.L47:
 249:Drivers/STM32F4xx_HAL_Driver/Src/stm32f4xx_hal_can.c ****     }
 434              		.loc 1 249 0
 435 0116 2268     		ldr	r2, [r4]
 436 0118 1368     		ldr	r3, [r2]
 437 011a 43F04003 		orr	r3, r3, #64
 438 011e 1360     		str	r3, [r2]
 439 0120 AFE7     		b	.L25
 440              	.L48:
 259:Drivers/STM32F4xx_HAL_Driver/Src/stm32f4xx_hal_can.c ****     }
 441              		.loc 1 259 0
 442 0122 2268     		ldr	r2, [r4]
 443 0124 1368     		ldr	r3, [r2]
 444 0126 43F02003 		orr	r3, r3, #32
 445 012a 1360     		str	r3, [r2]
 446 012c B1E7     		b	.L27
 447              	.L49:
 269:Drivers/STM32F4xx_HAL_Driver/Src/stm32f4xx_hal_can.c ****     }
 448              		.loc 1 269 0
 449 012e 2268     		ldr	r2, [r4]
 450 0130 1368     		ldr	r3, [r2]
 451 0132 43F01003 		orr	r3, r3, #16
ARM GAS  /var/folders/7p/1_dhylqx7nl5s8914_0f_4w00000gn/T//ccPpXWzH.s 			page 19


 452 0136 1360     		str	r3, [r2]
 453 0138 B3E7     		b	.L29
 454              	.L50:
 279:Drivers/STM32F4xx_HAL_Driver/Src/stm32f4xx_hal_can.c ****     }
 455              		.loc 1 279 0
 456 013a 2268     		ldr	r2, [r4]
 457 013c 1368     		ldr	r3, [r2]
 458 013e 43F00803 		orr	r3, r3, #8
 459 0142 1360     		str	r3, [r2]
 460 0144 B5E7     		b	.L31
 461              	.L51:
 289:Drivers/STM32F4xx_HAL_Driver/Src/stm32f4xx_hal_can.c ****     }
 462              		.loc 1 289 0
 463 0146 2268     		ldr	r2, [r4]
 464 0148 1368     		ldr	r3, [r2]
 465 014a 43F00403 		orr	r3, r3, #4
 466 014e 1360     		str	r3, [r2]
 467 0150 B7E7     		b	.L33
 468              	.L52:
 322:Drivers/STM32F4xx_HAL_Driver/Src/stm32f4xx_hal_can.c ****     {
 469              		.loc 1 322 0
 470 0152 5B68     		ldr	r3, [r3, #4]
 471 0154 13F0010F 		tst	r3, #1
 472 0158 08D0     		beq	.L39
 177:Drivers/STM32F4xx_HAL_Driver/Src/stm32f4xx_hal_can.c ****   uint32_t tickstart = 0U;
 473              		.loc 1 177 0
 474 015a 0023     		movs	r3, #0
 475 015c 00E0     		b	.L21
 476              	.L38:
 477 015e 0023     		movs	r3, #0
 478              	.L21:
 479              	.LVL21:
 328:Drivers/STM32F4xx_HAL_Driver/Src/stm32f4xx_hal_can.c ****   {
 480              		.loc 1 328 0
 481 0160 33B9     		cbnz	r3, .L53
 342:Drivers/STM32F4xx_HAL_Driver/Src/stm32f4xx_hal_can.c ****     
 482              		.loc 1 342 0
 483 0162 0423     		movs	r3, #4
 484              	.LVL22:
 485 0164 84F83C30 		strb	r3, [r4, #60]
 345:Drivers/STM32F4xx_HAL_Driver/Src/stm32f4xx_hal_can.c ****   }
 486              		.loc 1 345 0
 487 0168 0120     		movs	r0, #1
 488 016a 38BD     		pop	{r3, r4, r5, pc}
 489              	.LVL23:
 490              	.L39:
 324:Drivers/STM32F4xx_HAL_Driver/Src/stm32f4xx_hal_can.c ****     }
 491              		.loc 1 324 0
 492 016c 0123     		movs	r3, #1
 493 016e F7E7     		b	.L21
 494              	.LVL24:
 495              	.L53:
 331:Drivers/STM32F4xx_HAL_Driver/Src/stm32f4xx_hal_can.c ****     
 496              		.loc 1 331 0
 497 0170 0020     		movs	r0, #0
 498 0172 2064     		str	r0, [r4, #64]
 334:Drivers/STM32F4xx_HAL_Driver/Src/stm32f4xx_hal_can.c ****   
ARM GAS  /var/folders/7p/1_dhylqx7nl5s8914_0f_4w00000gn/T//ccPpXWzH.s 			page 20


 499              		.loc 1 334 0
 500 0174 0123     		movs	r3, #1
 501              	.LVL25:
 502 0176 84F83C30 		strb	r3, [r4, #60]
 337:Drivers/STM32F4xx_HAL_Driver/Src/stm32f4xx_hal_can.c ****   }
 503              		.loc 1 337 0
 504 017a 38BD     		pop	{r3, r4, r5, pc}
 505              	.LVL26:
 506              	.L37:
 507              	.LCFI4:
 508              		.cfi_def_cfa_offset 0
 509              		.cfi_restore 3
 510              		.cfi_restore 4
 511              		.cfi_restore 5
 512              		.cfi_restore 14
 183:Drivers/STM32F4xx_HAL_Driver/Src/stm32f4xx_hal_can.c ****   }
 513              		.loc 1 183 0
 514 017c 0120     		movs	r0, #1
 515              	.LVL27:
 516 017e 7047     		bx	lr
 517              		.cfi_endproc
 518              	.LFE124:
 520              		.section	.text.HAL_CAN_MspDeInit,"ax",%progbits
 521              		.align	1
 522              		.weak	HAL_CAN_MspDeInit
 523              		.syntax unified
 524              		.thumb
 525              		.thumb_func
 526              		.fpu fpv4-sp-d16
 528              	HAL_CAN_MspDeInit:
 529              	.LFB128:
 514:Drivers/STM32F4xx_HAL_Driver/Src/stm32f4xx_hal_can.c ****   /* Prevent unused argument(s) compilation warning */
 515:Drivers/STM32F4xx_HAL_Driver/Src/stm32f4xx_hal_can.c ****   UNUSED(hcan);
 516:Drivers/STM32F4xx_HAL_Driver/Src/stm32f4xx_hal_can.c ****   /* NOTE : This function Should not be modified, when the callback is needed,
 517:Drivers/STM32F4xx_HAL_Driver/Src/stm32f4xx_hal_can.c ****             the HAL_CAN_MspInit could be implemented in the user file
 518:Drivers/STM32F4xx_HAL_Driver/Src/stm32f4xx_hal_can.c ****    */ 
 519:Drivers/STM32F4xx_HAL_Driver/Src/stm32f4xx_hal_can.c **** }
 520:Drivers/STM32F4xx_HAL_Driver/Src/stm32f4xx_hal_can.c **** 
 521:Drivers/STM32F4xx_HAL_Driver/Src/stm32f4xx_hal_can.c **** /**
 522:Drivers/STM32F4xx_HAL_Driver/Src/stm32f4xx_hal_can.c ****   * @brief  DeInitializes the CAN MSP.
 523:Drivers/STM32F4xx_HAL_Driver/Src/stm32f4xx_hal_can.c ****   * @param  hcan: pointer to a CAN_HandleTypeDef structure that contains
 524:Drivers/STM32F4xx_HAL_Driver/Src/stm32f4xx_hal_can.c ****   *         the configuration information for the specified CAN.  
 525:Drivers/STM32F4xx_HAL_Driver/Src/stm32f4xx_hal_can.c ****   * @retval None
 526:Drivers/STM32F4xx_HAL_Driver/Src/stm32f4xx_hal_can.c ****   */
 527:Drivers/STM32F4xx_HAL_Driver/Src/stm32f4xx_hal_can.c **** __weak void HAL_CAN_MspDeInit(CAN_HandleTypeDef* hcan)
 528:Drivers/STM32F4xx_HAL_Driver/Src/stm32f4xx_hal_can.c **** {
 530              		.loc 1 528 0
 531              		.cfi_startproc
 532              		@ args = 0, pretend = 0, frame = 0
 533              		@ frame_needed = 0, uses_anonymous_args = 0
 534              		@ link register save eliminated.
 535              	.LVL28:
 536 0000 7047     		bx	lr
 537              		.cfi_endproc
 538              	.LFE128:
 540              		.section	.text.HAL_CAN_DeInit,"ax",%progbits
 541              		.align	1
ARM GAS  /var/folders/7p/1_dhylqx7nl5s8914_0f_4w00000gn/T//ccPpXWzH.s 			page 21


 542              		.global	HAL_CAN_DeInit
 543              		.syntax unified
 544              		.thumb
 545              		.thumb_func
 546              		.fpu fpv4-sp-d16
 548              	HAL_CAN_DeInit:
 549              	.LFB126:
 480:Drivers/STM32F4xx_HAL_Driver/Src/stm32f4xx_hal_can.c ****   /* Check CAN handle */
 550              		.loc 1 480 0
 551              		.cfi_startproc
 552              		@ args = 0, pretend = 0, frame = 0
 553              		@ frame_needed = 0, uses_anonymous_args = 0
 554              	.LVL29:
 482:Drivers/STM32F4xx_HAL_Driver/Src/stm32f4xx_hal_can.c ****   {
 555              		.loc 1 482 0
 556 0000 60B1     		cbz	r0, .L57
 480:Drivers/STM32F4xx_HAL_Driver/Src/stm32f4xx_hal_can.c ****   /* Check CAN handle */
 557              		.loc 1 480 0
 558 0002 10B5     		push	{r4, lr}
 559              	.LCFI5:
 560              		.cfi_def_cfa_offset 8
 561              		.cfi_offset 4, -8
 562              		.cfi_offset 14, -4
 563 0004 0446     		mov	r4, r0
 491:Drivers/STM32F4xx_HAL_Driver/Src/stm32f4xx_hal_can.c ****   
 564              		.loc 1 491 0
 565 0006 0223     		movs	r3, #2
 566 0008 80F83C30 		strb	r3, [r0, #60]
 494:Drivers/STM32F4xx_HAL_Driver/Src/stm32f4xx_hal_can.c ****   
 567              		.loc 1 494 0
 568 000c FFF7FEFF 		bl	HAL_CAN_MspDeInit
 569              	.LVL30:
 497:Drivers/STM32F4xx_HAL_Driver/Src/stm32f4xx_hal_can.c **** 
 570              		.loc 1 497 0
 571 0010 0020     		movs	r0, #0
 572 0012 84F83C00 		strb	r0, [r4, #60]
 500:Drivers/STM32F4xx_HAL_Driver/Src/stm32f4xx_hal_can.c **** 
 573              		.loc 1 500 0
 574 0016 84F83D00 		strb	r0, [r4, #61]
 503:Drivers/STM32F4xx_HAL_Driver/Src/stm32f4xx_hal_can.c **** }
 575              		.loc 1 503 0
 576 001a 10BD     		pop	{r4, pc}
 577              	.LVL31:
 578              	.L57:
 579              	.LCFI6:
 580              		.cfi_def_cfa_offset 0
 581              		.cfi_restore 4
 582              		.cfi_restore 14
 484:Drivers/STM32F4xx_HAL_Driver/Src/stm32f4xx_hal_can.c ****   }
 583              		.loc 1 484 0
 584 001c 0120     		movs	r0, #1
 585              	.LVL32:
 586 001e 7047     		bx	lr
 587              		.cfi_endproc
 588              	.LFE126:
 590              		.section	.text.HAL_CAN_Transmit,"ax",%progbits
 591              		.align	1
ARM GAS  /var/folders/7p/1_dhylqx7nl5s8914_0f_4w00000gn/T//ccPpXWzH.s 			page 22


 592              		.global	HAL_CAN_Transmit
 593              		.syntax unified
 594              		.thumb
 595              		.thumb_func
 596              		.fpu fpv4-sp-d16
 598              	HAL_CAN_Transmit:
 599              	.LFB129:
 529:Drivers/STM32F4xx_HAL_Driver/Src/stm32f4xx_hal_can.c ****   /* Prevent unused argument(s) compilation warning */
 530:Drivers/STM32F4xx_HAL_Driver/Src/stm32f4xx_hal_can.c ****   UNUSED(hcan);
 531:Drivers/STM32F4xx_HAL_Driver/Src/stm32f4xx_hal_can.c ****   /* NOTE : This function Should not be modified, when the callback is needed,
 532:Drivers/STM32F4xx_HAL_Driver/Src/stm32f4xx_hal_can.c ****             the HAL_CAN_MspDeInit could be implemented in the user file
 533:Drivers/STM32F4xx_HAL_Driver/Src/stm32f4xx_hal_can.c ****    */ 
 534:Drivers/STM32F4xx_HAL_Driver/Src/stm32f4xx_hal_can.c **** }
 535:Drivers/STM32F4xx_HAL_Driver/Src/stm32f4xx_hal_can.c **** 
 536:Drivers/STM32F4xx_HAL_Driver/Src/stm32f4xx_hal_can.c **** /**
 537:Drivers/STM32F4xx_HAL_Driver/Src/stm32f4xx_hal_can.c ****   * @}
 538:Drivers/STM32F4xx_HAL_Driver/Src/stm32f4xx_hal_can.c ****   */
 539:Drivers/STM32F4xx_HAL_Driver/Src/stm32f4xx_hal_can.c **** 
 540:Drivers/STM32F4xx_HAL_Driver/Src/stm32f4xx_hal_can.c **** /** @defgroup CAN_Exported_Functions_Group2 IO operation functions
 541:Drivers/STM32F4xx_HAL_Driver/Src/stm32f4xx_hal_can.c ****  *  @brief    IO operation functions 
 542:Drivers/STM32F4xx_HAL_Driver/Src/stm32f4xx_hal_can.c ****  *
 543:Drivers/STM32F4xx_HAL_Driver/Src/stm32f4xx_hal_can.c **** @verbatim   
 544:Drivers/STM32F4xx_HAL_Driver/Src/stm32f4xx_hal_can.c ****   ==============================================================================
 545:Drivers/STM32F4xx_HAL_Driver/Src/stm32f4xx_hal_can.c ****                       ##### IO operation functions #####
 546:Drivers/STM32F4xx_HAL_Driver/Src/stm32f4xx_hal_can.c ****   ==============================================================================
 547:Drivers/STM32F4xx_HAL_Driver/Src/stm32f4xx_hal_can.c ****     [..]  This section provides functions allowing to:
 548:Drivers/STM32F4xx_HAL_Driver/Src/stm32f4xx_hal_can.c ****       (+) Transmit a CAN frame message.
 549:Drivers/STM32F4xx_HAL_Driver/Src/stm32f4xx_hal_can.c ****       (+) Receive a CAN frame message.
 550:Drivers/STM32F4xx_HAL_Driver/Src/stm32f4xx_hal_can.c ****       (+) Enter CAN peripheral in sleep mode. 
 551:Drivers/STM32F4xx_HAL_Driver/Src/stm32f4xx_hal_can.c ****       (+) Wake up the CAN peripheral from sleep mode.
 552:Drivers/STM32F4xx_HAL_Driver/Src/stm32f4xx_hal_can.c ****                
 553:Drivers/STM32F4xx_HAL_Driver/Src/stm32f4xx_hal_can.c **** @endverbatim
 554:Drivers/STM32F4xx_HAL_Driver/Src/stm32f4xx_hal_can.c ****   * @{
 555:Drivers/STM32F4xx_HAL_Driver/Src/stm32f4xx_hal_can.c ****   */
 556:Drivers/STM32F4xx_HAL_Driver/Src/stm32f4xx_hal_can.c **** 
 557:Drivers/STM32F4xx_HAL_Driver/Src/stm32f4xx_hal_can.c **** /**
 558:Drivers/STM32F4xx_HAL_Driver/Src/stm32f4xx_hal_can.c ****   * @brief  Initiates and transmits a CAN frame message.
 559:Drivers/STM32F4xx_HAL_Driver/Src/stm32f4xx_hal_can.c ****   * @param  hcan: pointer to a CAN_HandleTypeDef structure that contains
 560:Drivers/STM32F4xx_HAL_Driver/Src/stm32f4xx_hal_can.c ****   *         the configuration information for the specified CAN.  
 561:Drivers/STM32F4xx_HAL_Driver/Src/stm32f4xx_hal_can.c ****   * @param  Timeout: Specify Timeout value   
 562:Drivers/STM32F4xx_HAL_Driver/Src/stm32f4xx_hal_can.c ****   * @retval HAL status
 563:Drivers/STM32F4xx_HAL_Driver/Src/stm32f4xx_hal_can.c ****   */
 564:Drivers/STM32F4xx_HAL_Driver/Src/stm32f4xx_hal_can.c **** HAL_StatusTypeDef HAL_CAN_Transmit(CAN_HandleTypeDef* hcan, uint32_t Timeout)
 565:Drivers/STM32F4xx_HAL_Driver/Src/stm32f4xx_hal_can.c **** {
 600              		.loc 1 565 0
 601              		.cfi_startproc
 602              		@ args = 0, pretend = 0, frame = 0
 603              		@ frame_needed = 0, uses_anonymous_args = 0
 604              	.LVL33:
 605 0000 F8B5     		push	{r3, r4, r5, r6, r7, lr}
 606              	.LCFI7:
 607              		.cfi_def_cfa_offset 24
 608              		.cfi_offset 3, -24
 609              		.cfi_offset 4, -20
 610              		.cfi_offset 5, -16
 611              		.cfi_offset 6, -12
 612              		.cfi_offset 7, -8
ARM GAS  /var/folders/7p/1_dhylqx7nl5s8914_0f_4w00000gn/T//ccPpXWzH.s 			page 23


 613              		.cfi_offset 14, -4
 614              	.LVL34:
 566:Drivers/STM32F4xx_HAL_Driver/Src/stm32f4xx_hal_can.c ****   uint32_t transmitmailbox = CAN_TXSTATUS_NOMAILBOX;
 567:Drivers/STM32F4xx_HAL_Driver/Src/stm32f4xx_hal_can.c ****   uint32_t tickstart = 0U;
 568:Drivers/STM32F4xx_HAL_Driver/Src/stm32f4xx_hal_can.c **** 
 569:Drivers/STM32F4xx_HAL_Driver/Src/stm32f4xx_hal_can.c ****   /* Check the parameters */
 570:Drivers/STM32F4xx_HAL_Driver/Src/stm32f4xx_hal_can.c ****   assert_param(IS_CAN_IDTYPE(hcan->pTxMsg->IDE));
 571:Drivers/STM32F4xx_HAL_Driver/Src/stm32f4xx_hal_can.c ****   assert_param(IS_CAN_RTR(hcan->pTxMsg->RTR));
 572:Drivers/STM32F4xx_HAL_Driver/Src/stm32f4xx_hal_can.c ****   assert_param(IS_CAN_DLC(hcan->pTxMsg->DLC));
 573:Drivers/STM32F4xx_HAL_Driver/Src/stm32f4xx_hal_can.c **** 
 574:Drivers/STM32F4xx_HAL_Driver/Src/stm32f4xx_hal_can.c ****   if(((hcan->Instance->TSR&CAN_TSR_TME0) == CAN_TSR_TME0) || \
 615              		.loc 1 574 0
 616 0002 0368     		ldr	r3, [r0]
 617 0004 9A68     		ldr	r2, [r3, #8]
 618 0006 12F0806F 		tst	r2, #67108864
 619 000a 08D1     		bne	.L63
 575:Drivers/STM32F4xx_HAL_Driver/Src/stm32f4xx_hal_can.c ****      ((hcan->Instance->TSR&CAN_TSR_TME1) == CAN_TSR_TME1) || \
 620              		.loc 1 575 0 discriminator 1
 621 000c 9A68     		ldr	r2, [r3, #8]
 574:Drivers/STM32F4xx_HAL_Driver/Src/stm32f4xx_hal_can.c ****      ((hcan->Instance->TSR&CAN_TSR_TME1) == CAN_TSR_TME1) || \
 622              		.loc 1 574 0 discriminator 1
 623 000e 12F0006F 		tst	r2, #134217728
 624 0012 04D1     		bne	.L63
 576:Drivers/STM32F4xx_HAL_Driver/Src/stm32f4xx_hal_can.c ****      ((hcan->Instance->TSR&CAN_TSR_TME2) == CAN_TSR_TME2))
 625              		.loc 1 576 0
 626 0014 9A68     		ldr	r2, [r3, #8]
 575:Drivers/STM32F4xx_HAL_Driver/Src/stm32f4xx_hal_can.c ****      ((hcan->Instance->TSR&CAN_TSR_TME1) == CAN_TSR_TME1) || \
 627              		.loc 1 575 0
 628 0016 12F0805F 		tst	r2, #268435456
 629 001a 00F0EC80 		beq	.L64
 630              	.L63:
 577:Drivers/STM32F4xx_HAL_Driver/Src/stm32f4xx_hal_can.c ****   {  
 578:Drivers/STM32F4xx_HAL_Driver/Src/stm32f4xx_hal_can.c ****     /* Process locked */
 579:Drivers/STM32F4xx_HAL_Driver/Src/stm32f4xx_hal_can.c ****     __HAL_LOCK(hcan);
 631              		.loc 1 579 0
 632 001e 90F83D20 		ldrb	r2, [r0, #61]	@ zero_extendqisi2
 633 0022 012A     		cmp	r2, #1
 634 0024 00F0EC80 		beq	.L89
 635              		.loc 1 579 0 is_stmt 0 discriminator 2
 636 0028 0122     		movs	r2, #1
 637 002a 80F83D20 		strb	r2, [r0, #61]
 580:Drivers/STM32F4xx_HAL_Driver/Src/stm32f4xx_hal_can.c ****   
 581:Drivers/STM32F4xx_HAL_Driver/Src/stm32f4xx_hal_can.c ****     /* Change CAN state */
 582:Drivers/STM32F4xx_HAL_Driver/Src/stm32f4xx_hal_can.c ****     switch(hcan->State)
 638              		.loc 1 582 0 is_stmt 1 discriminator 2
 639 002e 90F83C20 		ldrb	r2, [r0, #60]	@ zero_extendqisi2
 640 0032 D2B2     		uxtb	r2, r2
 641 0034 322A     		cmp	r2, #50
 642 0036 14D0     		beq	.L67
 643 0038 622A     		cmp	r2, #98
 644 003a 16D0     		beq	.L68
 645 003c 222A     		cmp	r2, #34
 646 003e 03D0     		beq	.L95
 583:Drivers/STM32F4xx_HAL_Driver/Src/stm32f4xx_hal_can.c ****     {
 584:Drivers/STM32F4xx_HAL_Driver/Src/stm32f4xx_hal_can.c ****       case(HAL_CAN_STATE_BUSY_RX0):
 585:Drivers/STM32F4xx_HAL_Driver/Src/stm32f4xx_hal_can.c ****           hcan->State = HAL_CAN_STATE_BUSY_TX_RX0;
 586:Drivers/STM32F4xx_HAL_Driver/Src/stm32f4xx_hal_can.c ****           break;
ARM GAS  /var/folders/7p/1_dhylqx7nl5s8914_0f_4w00000gn/T//ccPpXWzH.s 			page 24


 587:Drivers/STM32F4xx_HAL_Driver/Src/stm32f4xx_hal_can.c ****       case(HAL_CAN_STATE_BUSY_RX1):
 588:Drivers/STM32F4xx_HAL_Driver/Src/stm32f4xx_hal_can.c ****           hcan->State = HAL_CAN_STATE_BUSY_TX_RX1;
 589:Drivers/STM32F4xx_HAL_Driver/Src/stm32f4xx_hal_can.c ****           break;
 590:Drivers/STM32F4xx_HAL_Driver/Src/stm32f4xx_hal_can.c ****       case(HAL_CAN_STATE_BUSY_RX0_RX1):
 591:Drivers/STM32F4xx_HAL_Driver/Src/stm32f4xx_hal_can.c ****           hcan->State = HAL_CAN_STATE_BUSY_TX_RX0_RX1;
 592:Drivers/STM32F4xx_HAL_Driver/Src/stm32f4xx_hal_can.c ****           break;
 593:Drivers/STM32F4xx_HAL_Driver/Src/stm32f4xx_hal_can.c ****       default: /* HAL_CAN_STATE_READY */
 594:Drivers/STM32F4xx_HAL_Driver/Src/stm32f4xx_hal_can.c ****           hcan->State = HAL_CAN_STATE_BUSY_TX;
 647              		.loc 1 594 0
 648 0040 1222     		movs	r2, #18
 649 0042 80F83C20 		strb	r2, [r0, #60]
 595:Drivers/STM32F4xx_HAL_Driver/Src/stm32f4xx_hal_can.c ****           break;
 650              		.loc 1 595 0
 651 0046 02E0     		b	.L70
 652              	.L95:
 585:Drivers/STM32F4xx_HAL_Driver/Src/stm32f4xx_hal_can.c ****           break;
 653              		.loc 1 585 0
 654 0048 4222     		movs	r2, #66
 655 004a 80F83C20 		strb	r2, [r0, #60]
 656              	.L70:
 596:Drivers/STM32F4xx_HAL_Driver/Src/stm32f4xx_hal_can.c ****     }
 597:Drivers/STM32F4xx_HAL_Driver/Src/stm32f4xx_hal_can.c ****   
 598:Drivers/STM32F4xx_HAL_Driver/Src/stm32f4xx_hal_can.c ****     /* Select one empty transmit mailbox */
 599:Drivers/STM32F4xx_HAL_Driver/Src/stm32f4xx_hal_can.c ****     if ((hcan->Instance->TSR&CAN_TSR_TME0) == CAN_TSR_TME0)
 657              		.loc 1 599 0
 658 004e 9A68     		ldr	r2, [r3, #8]
 659 0050 12F0806F 		tst	r2, #67108864
 660 0054 0DD1     		bne	.L90
 600:Drivers/STM32F4xx_HAL_Driver/Src/stm32f4xx_hal_can.c ****     {
 601:Drivers/STM32F4xx_HAL_Driver/Src/stm32f4xx_hal_can.c ****       transmitmailbox = CAN_TXMAILBOX_0;
 602:Drivers/STM32F4xx_HAL_Driver/Src/stm32f4xx_hal_can.c ****     }
 603:Drivers/STM32F4xx_HAL_Driver/Src/stm32f4xx_hal_can.c ****     else if ((hcan->Instance->TSR&CAN_TSR_TME1) == CAN_TSR_TME1)
 661              		.loc 1 603 0
 662 0056 9A68     		ldr	r2, [r3, #8]
 663 0058 12F0006F 		tst	r2, #134217728
 664 005c 61D0     		beq	.L91
 604:Drivers/STM32F4xx_HAL_Driver/Src/stm32f4xx_hal_can.c ****     {
 605:Drivers/STM32F4xx_HAL_Driver/Src/stm32f4xx_hal_can.c ****       transmitmailbox = CAN_TXMAILBOX_1;
 665              		.loc 1 605 0
 666 005e 0125     		movs	r5, #1
 667 0060 08E0     		b	.L71
 668              	.L67:
 588:Drivers/STM32F4xx_HAL_Driver/Src/stm32f4xx_hal_can.c ****           break;
 669              		.loc 1 588 0
 670 0062 5222     		movs	r2, #82
 671 0064 80F83C20 		strb	r2, [r0, #60]
 589:Drivers/STM32F4xx_HAL_Driver/Src/stm32f4xx_hal_can.c ****       case(HAL_CAN_STATE_BUSY_RX0_RX1):
 672              		.loc 1 589 0
 673 0068 F1E7     		b	.L70
 674              	.L68:
 591:Drivers/STM32F4xx_HAL_Driver/Src/stm32f4xx_hal_can.c ****           break;
 675              		.loc 1 591 0
 676 006a 7222     		movs	r2, #114
 677 006c 80F83C20 		strb	r2, [r0, #60]
 592:Drivers/STM32F4xx_HAL_Driver/Src/stm32f4xx_hal_can.c ****       default: /* HAL_CAN_STATE_READY */
 678              		.loc 1 592 0
 679 0070 EDE7     		b	.L70
ARM GAS  /var/folders/7p/1_dhylqx7nl5s8914_0f_4w00000gn/T//ccPpXWzH.s 			page 25


 680              	.L90:
 601:Drivers/STM32F4xx_HAL_Driver/Src/stm32f4xx_hal_can.c ****     }
 681              		.loc 1 601 0
 682 0072 0025     		movs	r5, #0
 683              	.L71:
 684              	.LVL35:
 606:Drivers/STM32F4xx_HAL_Driver/Src/stm32f4xx_hal_can.c ****     }
 607:Drivers/STM32F4xx_HAL_Driver/Src/stm32f4xx_hal_can.c ****     else
 608:Drivers/STM32F4xx_HAL_Driver/Src/stm32f4xx_hal_can.c ****     {
 609:Drivers/STM32F4xx_HAL_Driver/Src/stm32f4xx_hal_can.c ****       transmitmailbox = CAN_TXMAILBOX_2;
 610:Drivers/STM32F4xx_HAL_Driver/Src/stm32f4xx_hal_can.c ****     }
 611:Drivers/STM32F4xx_HAL_Driver/Src/stm32f4xx_hal_can.c **** 
 612:Drivers/STM32F4xx_HAL_Driver/Src/stm32f4xx_hal_can.c ****     /* Set up the Id */
 613:Drivers/STM32F4xx_HAL_Driver/Src/stm32f4xx_hal_can.c ****     hcan->Instance->sTxMailBox[transmitmailbox].TIR &= CAN_TI0R_TXRQ;
 685              		.loc 1 613 0
 686 0074 05F11802 		add	r2, r5, #24
 687 0078 1201     		lsls	r2, r2, #4
 688 007a 9C58     		ldr	r4, [r3, r2]
 689 007c 04F00104 		and	r4, r4, #1
 690 0080 9C50     		str	r4, [r3, r2]
 614:Drivers/STM32F4xx_HAL_Driver/Src/stm32f4xx_hal_can.c ****     if (hcan->pTxMsg->IDE == CAN_ID_STD)
 691              		.loc 1 614 0
 692 0082 026B     		ldr	r2, [r0, #48]
 693 0084 9368     		ldr	r3, [r2, #8]
 694 0086 002B     		cmp	r3, #0
 695 0088 4DD1     		bne	.L72
 615:Drivers/STM32F4xx_HAL_Driver/Src/stm32f4xx_hal_can.c ****     {
 616:Drivers/STM32F4xx_HAL_Driver/Src/stm32f4xx_hal_can.c ****       assert_param(IS_CAN_STDID(hcan->pTxMsg->StdId));  
 617:Drivers/STM32F4xx_HAL_Driver/Src/stm32f4xx_hal_can.c ****       hcan->Instance->sTxMailBox[transmitmailbox].TIR |= ((hcan->pTxMsg->StdId << 21U) | \
 696              		.loc 1 617 0
 697 008a 0668     		ldr	r6, [r0]
 698 008c 05F11803 		add	r3, r5, #24
 699 0090 1B01     		lsls	r3, r3, #4
 700 0092 F458     		ldr	r4, [r6, r3]
 701 0094 1768     		ldr	r7, [r2]
 618:Drivers/STM32F4xx_HAL_Driver/Src/stm32f4xx_hal_can.c ****                                                   hcan->pTxMsg->RTR);
 702              		.loc 1 618 0
 703 0096 D268     		ldr	r2, [r2, #12]
 617:Drivers/STM32F4xx_HAL_Driver/Src/stm32f4xx_hal_can.c ****                                                   hcan->pTxMsg->RTR);
 704              		.loc 1 617 0
 705 0098 42EA4752 		orr	r2, r2, r7, lsl #21
 706 009c 2243     		orrs	r2, r2, r4
 707 009e F250     		str	r2, [r6, r3]
 708              	.L73:
 709 00a0 0E46     		mov	r6, r1
 710 00a2 0446     		mov	r4, r0
 619:Drivers/STM32F4xx_HAL_Driver/Src/stm32f4xx_hal_can.c ****     }
 620:Drivers/STM32F4xx_HAL_Driver/Src/stm32f4xx_hal_can.c ****     else
 621:Drivers/STM32F4xx_HAL_Driver/Src/stm32f4xx_hal_can.c ****     {
 622:Drivers/STM32F4xx_HAL_Driver/Src/stm32f4xx_hal_can.c ****       assert_param(IS_CAN_EXTID(hcan->pTxMsg->ExtId));
 623:Drivers/STM32F4xx_HAL_Driver/Src/stm32f4xx_hal_can.c ****       hcan->Instance->sTxMailBox[transmitmailbox].TIR |= ((hcan->pTxMsg->ExtId << 3U) | \
 624:Drivers/STM32F4xx_HAL_Driver/Src/stm32f4xx_hal_can.c ****                                                   hcan->pTxMsg->IDE | \
 625:Drivers/STM32F4xx_HAL_Driver/Src/stm32f4xx_hal_can.c ****                                                   hcan->pTxMsg->RTR);
 626:Drivers/STM32F4xx_HAL_Driver/Src/stm32f4xx_hal_can.c ****     }
 627:Drivers/STM32F4xx_HAL_Driver/Src/stm32f4xx_hal_can.c ****     
 628:Drivers/STM32F4xx_HAL_Driver/Src/stm32f4xx_hal_can.c ****     /* Set up the DLC */
 629:Drivers/STM32F4xx_HAL_Driver/Src/stm32f4xx_hal_can.c ****     hcan->pTxMsg->DLC &= (uint8_t)0x0000000F;
ARM GAS  /var/folders/7p/1_dhylqx7nl5s8914_0f_4w00000gn/T//ccPpXWzH.s 			page 26


 711              		.loc 1 629 0
 712 00a4 026B     		ldr	r2, [r0, #48]
 713 00a6 1369     		ldr	r3, [r2, #16]
 714 00a8 03F00F03 		and	r3, r3, #15
 715 00ac 1361     		str	r3, [r2, #16]
 630:Drivers/STM32F4xx_HAL_Driver/Src/stm32f4xx_hal_can.c ****     hcan->Instance->sTxMailBox[transmitmailbox].TDTR &= (uint32_t)0xFFFFFFF0U;
 716              		.loc 1 630 0
 717 00ae 0368     		ldr	r3, [r0]
 718 00b0 05F11801 		add	r1, r5, #24
 719              	.LVL36:
 720 00b4 0901     		lsls	r1, r1, #4
 721 00b6 0B44     		add	r3, r3, r1
 722 00b8 5A68     		ldr	r2, [r3, #4]
 723 00ba 22F00F02 		bic	r2, r2, #15
 724 00be 5A60     		str	r2, [r3, #4]
 631:Drivers/STM32F4xx_HAL_Driver/Src/stm32f4xx_hal_can.c ****     hcan->Instance->sTxMailBox[transmitmailbox].TDTR |= hcan->pTxMsg->DLC;
 725              		.loc 1 631 0
 726 00c0 0368     		ldr	r3, [r0]
 727 00c2 0B44     		add	r3, r3, r1
 728 00c4 5A68     		ldr	r2, [r3, #4]
 729 00c6 006B     		ldr	r0, [r0, #48]
 730              	.LVL37:
 731 00c8 0069     		ldr	r0, [r0, #16]
 732 00ca 0243     		orrs	r2, r2, r0
 733 00cc 5A60     		str	r2, [r3, #4]
 632:Drivers/STM32F4xx_HAL_Driver/Src/stm32f4xx_hal_can.c **** 
 633:Drivers/STM32F4xx_HAL_Driver/Src/stm32f4xx_hal_can.c ****     /* Set up the data field */
 634:Drivers/STM32F4xx_HAL_Driver/Src/stm32f4xx_hal_can.c ****     hcan->Instance->sTxMailBox[transmitmailbox].TDLR = (((uint32_t)hcan->pTxMsg->Data[3U] << 24U) |
 734              		.loc 1 634 0
 735 00ce 2268     		ldr	r2, [r4]
 736 00d0 206B     		ldr	r0, [r4, #48]
 737 00d2 C77D     		ldrb	r7, [r0, #23]	@ zero_extendqisi2
 635:Drivers/STM32F4xx_HAL_Driver/Src/stm32f4xx_hal_can.c ****                                              ((uint32_t)hcan->pTxMsg->Data[2U] << 16U) |
 738              		.loc 1 635 0
 739 00d4 837D     		ldrb	r3, [r0, #22]	@ zero_extendqisi2
 740 00d6 1B04     		lsls	r3, r3, #16
 634:Drivers/STM32F4xx_HAL_Driver/Src/stm32f4xx_hal_can.c ****                                              ((uint32_t)hcan->pTxMsg->Data[2U] << 16U) |
 741              		.loc 1 634 0
 742 00d8 43EA0763 		orr	r3, r3, r7, lsl #24
 636:Drivers/STM32F4xx_HAL_Driver/Src/stm32f4xx_hal_can.c ****                                              ((uint32_t)hcan->pTxMsg->Data[1U] << 8U) | 
 743              		.loc 1 636 0
 744 00dc 477D     		ldrb	r7, [r0, #21]	@ zero_extendqisi2
 635:Drivers/STM32F4xx_HAL_Driver/Src/stm32f4xx_hal_can.c ****                                              ((uint32_t)hcan->pTxMsg->Data[2U] << 16U) |
 745              		.loc 1 635 0
 746 00de 43EA0723 		orr	r3, r3, r7, lsl #8
 637:Drivers/STM32F4xx_HAL_Driver/Src/stm32f4xx_hal_can.c ****                                              ((uint32_t)hcan->pTxMsg->Data[0U]));
 747              		.loc 1 637 0
 748 00e2 007D     		ldrb	r0, [r0, #20]	@ zero_extendqisi2
 636:Drivers/STM32F4xx_HAL_Driver/Src/stm32f4xx_hal_can.c ****                                              ((uint32_t)hcan->pTxMsg->Data[1U] << 8U) | 
 749              		.loc 1 636 0
 750 00e4 0343     		orrs	r3, r3, r0
 634:Drivers/STM32F4xx_HAL_Driver/Src/stm32f4xx_hal_can.c ****                                              ((uint32_t)hcan->pTxMsg->Data[2U] << 16U) |
 751              		.loc 1 634 0
 752 00e6 2F01     		lsls	r7, r5, #4
 753 00e8 3A44     		add	r2, r2, r7
 754 00ea C2F88831 		str	r3, [r2, #392]
 638:Drivers/STM32F4xx_HAL_Driver/Src/stm32f4xx_hal_can.c ****     hcan->Instance->sTxMailBox[transmitmailbox].TDHR = (((uint32_t)hcan->pTxMsg->Data[7U] << 24U) |
ARM GAS  /var/folders/7p/1_dhylqx7nl5s8914_0f_4w00000gn/T//ccPpXWzH.s 			page 27


 755              		.loc 1 638 0
 756 00ee 2268     		ldr	r2, [r4]
 757 00f0 206B     		ldr	r0, [r4, #48]
 758 00f2 90F81BE0 		ldrb	lr, [r0, #27]	@ zero_extendqisi2
 639:Drivers/STM32F4xx_HAL_Driver/Src/stm32f4xx_hal_can.c ****                                              ((uint32_t)hcan->pTxMsg->Data[6U] << 16U) |
 759              		.loc 1 639 0
 760 00f6 837E     		ldrb	r3, [r0, #26]	@ zero_extendqisi2
 761 00f8 1B04     		lsls	r3, r3, #16
 638:Drivers/STM32F4xx_HAL_Driver/Src/stm32f4xx_hal_can.c ****     hcan->Instance->sTxMailBox[transmitmailbox].TDHR = (((uint32_t)hcan->pTxMsg->Data[7U] << 24U) |
 762              		.loc 1 638 0
 763 00fa 43EA0E63 		orr	r3, r3, lr, lsl #24
 640:Drivers/STM32F4xx_HAL_Driver/Src/stm32f4xx_hal_can.c ****                                              ((uint32_t)hcan->pTxMsg->Data[5U] << 8U) |
 764              		.loc 1 640 0
 765 00fe 90F819E0 		ldrb	lr, [r0, #25]	@ zero_extendqisi2
 639:Drivers/STM32F4xx_HAL_Driver/Src/stm32f4xx_hal_can.c ****                                              ((uint32_t)hcan->pTxMsg->Data[6U] << 16U) |
 766              		.loc 1 639 0
 767 0102 43EA0E23 		orr	r3, r3, lr, lsl #8
 641:Drivers/STM32F4xx_HAL_Driver/Src/stm32f4xx_hal_can.c ****                                              ((uint32_t)hcan->pTxMsg->Data[4U]));
 768              		.loc 1 641 0
 769 0106 007E     		ldrb	r0, [r0, #24]	@ zero_extendqisi2
 640:Drivers/STM32F4xx_HAL_Driver/Src/stm32f4xx_hal_can.c ****                                              ((uint32_t)hcan->pTxMsg->Data[5U] << 8U) |
 770              		.loc 1 640 0
 771 0108 0343     		orrs	r3, r3, r0
 638:Drivers/STM32F4xx_HAL_Driver/Src/stm32f4xx_hal_can.c ****                                              ((uint32_t)hcan->pTxMsg->Data[6U] << 16U) |
 772              		.loc 1 638 0
 773 010a 3A44     		add	r2, r2, r7
 774 010c C2F88C31 		str	r3, [r2, #396]
 642:Drivers/STM32F4xx_HAL_Driver/Src/stm32f4xx_hal_can.c ****     /* Request transmission */
 643:Drivers/STM32F4xx_HAL_Driver/Src/stm32f4xx_hal_can.c ****     hcan->Instance->sTxMailBox[transmitmailbox].TIR |= CAN_TI0R_TXRQ;
 775              		.loc 1 643 0
 776 0110 2268     		ldr	r2, [r4]
 777 0112 5358     		ldr	r3, [r2, r1]
 778 0114 43F00103 		orr	r3, r3, #1
 779 0118 5350     		str	r3, [r2, r1]
 644:Drivers/STM32F4xx_HAL_Driver/Src/stm32f4xx_hal_can.c ****   
 645:Drivers/STM32F4xx_HAL_Driver/Src/stm32f4xx_hal_can.c ****     /* Get tick */
 646:Drivers/STM32F4xx_HAL_Driver/Src/stm32f4xx_hal_can.c ****     tickstart = HAL_GetTick();
 780              		.loc 1 646 0
 781 011a FFF7FEFF 		bl	HAL_GetTick
 782              	.LVL38:
 783 011e 0746     		mov	r7, r0
 784              	.LVL39:
 647:Drivers/STM32F4xx_HAL_Driver/Src/stm32f4xx_hal_can.c ****   
 648:Drivers/STM32F4xx_HAL_Driver/Src/stm32f4xx_hal_can.c ****     /* Check End of transmission flag */
 649:Drivers/STM32F4xx_HAL_Driver/Src/stm32f4xx_hal_can.c ****     while(!(__HAL_CAN_TRANSMIT_STATUS(hcan, transmitmailbox)))
 785              		.loc 1 649 0
 786 0120 3BE0     		b	.L75
 787              	.LVL40:
 788              	.L91:
 609:Drivers/STM32F4xx_HAL_Driver/Src/stm32f4xx_hal_can.c ****     }
 789              		.loc 1 609 0
 790 0122 0225     		movs	r5, #2
 791 0124 A6E7     		b	.L71
 792              	.LVL41:
 793              	.L72:
 623:Drivers/STM32F4xx_HAL_Driver/Src/stm32f4xx_hal_can.c ****                                                   hcan->pTxMsg->IDE | \
 794              		.loc 1 623 0
ARM GAS  /var/folders/7p/1_dhylqx7nl5s8914_0f_4w00000gn/T//ccPpXWzH.s 			page 28


 795 0126 0768     		ldr	r7, [r0]
 796 0128 05F11804 		add	r4, r5, #24
 797 012c 2401     		lsls	r4, r4, #4
 798 012e 57F804E0 		ldr	lr, [r7, r4]
 799 0132 5668     		ldr	r6, [r2, #4]
 800 0134 43EAC603 		orr	r3, r3, r6, lsl #3
 625:Drivers/STM32F4xx_HAL_Driver/Src/stm32f4xx_hal_can.c ****     }
 801              		.loc 1 625 0
 802 0138 D268     		ldr	r2, [r2, #12]
 624:Drivers/STM32F4xx_HAL_Driver/Src/stm32f4xx_hal_can.c ****                                                   hcan->pTxMsg->RTR);
 803              		.loc 1 624 0
 804 013a 1343     		orrs	r3, r3, r2
 623:Drivers/STM32F4xx_HAL_Driver/Src/stm32f4xx_hal_can.c ****                                                   hcan->pTxMsg->IDE | \
 805              		.loc 1 623 0
 806 013c 43EA0E03 		orr	r3, r3, lr
 807 0140 3B51     		str	r3, [r7, r4]
 808 0142 ADE7     		b	.L73
 809              	.LVL42:
 810              	.L99:
 650:Drivers/STM32F4xx_HAL_Driver/Src/stm32f4xx_hal_can.c ****     {
 651:Drivers/STM32F4xx_HAL_Driver/Src/stm32f4xx_hal_can.c ****       /* Check for the Timeout */
 652:Drivers/STM32F4xx_HAL_Driver/Src/stm32f4xx_hal_can.c ****       if(Timeout != HAL_MAX_DELAY)
 653:Drivers/STM32F4xx_HAL_Driver/Src/stm32f4xx_hal_can.c ****       {
 654:Drivers/STM32F4xx_HAL_Driver/Src/stm32f4xx_hal_can.c ****        if((Timeout == 0U)||((HAL_GetTick() - tickstart ) > Timeout))
 811              		.loc 1 654 0
 812 0144 26B1     		cbz	r6, .L76
 813              		.loc 1 654 0 is_stmt 0 discriminator 1
 814 0146 FFF7FEFF 		bl	HAL_GetTick
 815              	.LVL43:
 816 014a C01B     		subs	r0, r0, r7
 817 014c 8642     		cmp	r6, r0
 818 014e 24D2     		bcs	.L75
 819              	.L76:
 655:Drivers/STM32F4xx_HAL_Driver/Src/stm32f4xx_hal_can.c ****        {
 656:Drivers/STM32F4xx_HAL_Driver/Src/stm32f4xx_hal_can.c ****          hcan->State = HAL_CAN_STATE_TIMEOUT;
 820              		.loc 1 656 0 is_stmt 1
 821 0150 0323     		movs	r3, #3
 822 0152 84F83C30 		strb	r3, [r4, #60]
 657:Drivers/STM32F4xx_HAL_Driver/Src/stm32f4xx_hal_can.c **** 
 658:Drivers/STM32F4xx_HAL_Driver/Src/stm32f4xx_hal_can.c ****          __HAL_CAN_CANCEL_TRANSMIT(hcan, transmitmailbox);
 823              		.loc 1 658 0
 824 0156 3DB9     		cbnz	r5, .L77
 825              		.loc 1 658 0 is_stmt 0 discriminator 1
 826 0158 2368     		ldr	r3, [r4]
 827 015a 8022     		movs	r2, #128
 828 015c 9A60     		str	r2, [r3, #8]
 829              	.L78:
 659:Drivers/STM32F4xx_HAL_Driver/Src/stm32f4xx_hal_can.c **** 
 660:Drivers/STM32F4xx_HAL_Driver/Src/stm32f4xx_hal_can.c ****          /* Process unlocked */
 661:Drivers/STM32F4xx_HAL_Driver/Src/stm32f4xx_hal_can.c ****          __HAL_UNLOCK(hcan);
 830              		.loc 1 661 0 is_stmt 1
 831 015e 0023     		movs	r3, #0
 832 0160 84F83D30 		strb	r3, [r4, #61]
 662:Drivers/STM32F4xx_HAL_Driver/Src/stm32f4xx_hal_can.c ****          return HAL_TIMEOUT;
 833              		.loc 1 662 0
 834 0164 0320     		movs	r0, #3
 835 0166 F8BD     		pop	{r3, r4, r5, r6, r7, pc}
ARM GAS  /var/folders/7p/1_dhylqx7nl5s8914_0f_4w00000gn/T//ccPpXWzH.s 			page 29


 836              	.LVL44:
 837              	.L77:
 658:Drivers/STM32F4xx_HAL_Driver/Src/stm32f4xx_hal_can.c **** 
 838              		.loc 1 658 0 discriminator 2
 839 0168 012D     		cmp	r5, #1
 840 016a 04D0     		beq	.L96
 658:Drivers/STM32F4xx_HAL_Driver/Src/stm32f4xx_hal_can.c **** 
 841              		.loc 1 658 0 is_stmt 0 discriminator 4
 842 016c 2368     		ldr	r3, [r4]
 843 016e 4FF40002 		mov	r2, #8388608
 844 0172 9A60     		str	r2, [r3, #8]
 845 0174 F3E7     		b	.L78
 846              	.L96:
 658:Drivers/STM32F4xx_HAL_Driver/Src/stm32f4xx_hal_can.c **** 
 847              		.loc 1 658 0 discriminator 3
 848 0176 2368     		ldr	r3, [r4]
 849 0178 4FF40042 		mov	r2, #32768
 850 017c 9A60     		str	r2, [r3, #8]
 851 017e EEE7     		b	.L78
 852              	.L80:
 649:Drivers/STM32F4xx_HAL_Driver/Src/stm32f4xx_hal_can.c ****     {
 853              		.loc 1 649 0 is_stmt 1 discriminator 2
 854 0180 012D     		cmp	r5, #1
 855 0182 14D0     		beq	.L97
 649:Drivers/STM32F4xx_HAL_Driver/Src/stm32f4xx_hal_can.c ****     {
 856              		.loc 1 649 0 is_stmt 0 discriminator 5
 857 0184 2368     		ldr	r3, [r4]
 858 0186 9A68     		ldr	r2, [r3, #8]
 859 0188 1E4B     		ldr	r3, .L101
 860 018a 9343     		bics	r3, r3, r2
 861 018c 14BF     		ite	ne
 862 018e 0123     		movne	r3, #1
 863 0190 0023     		moveq	r3, #0
 864              	.L81:
 649:Drivers/STM32F4xx_HAL_Driver/Src/stm32f4xx_hal_can.c ****     {
 865              		.loc 1 649 0 discriminator 8
 866 0192 A3B1     		cbz	r3, .L98
 652:Drivers/STM32F4xx_HAL_Driver/Src/stm32f4xx_hal_can.c ****       {
 867              		.loc 1 652 0 is_stmt 1
 868 0194 B6F1FF3F 		cmp	r6, #-1
 869 0198 D4D1     		bne	.L99
 870              	.L75:
 649:Drivers/STM32F4xx_HAL_Driver/Src/stm32f4xx_hal_can.c ****     {
 871              		.loc 1 649 0
 872 019a 002D     		cmp	r5, #0
 873 019c F0D1     		bne	.L80
 649:Drivers/STM32F4xx_HAL_Driver/Src/stm32f4xx_hal_can.c ****     {
 874              		.loc 1 649 0 is_stmt 0 discriminator 1
 875 019e 2368     		ldr	r3, [r4]
 876 01a0 9A68     		ldr	r2, [r3, #8]
 877 01a2 194B     		ldr	r3, .L101+4
 878 01a4 9343     		bics	r3, r3, r2
 879 01a6 14BF     		ite	ne
 880 01a8 0123     		movne	r3, #1
 881 01aa 0023     		moveq	r3, #0
 882 01ac F1E7     		b	.L81
 883              	.L97:
ARM GAS  /var/folders/7p/1_dhylqx7nl5s8914_0f_4w00000gn/T//ccPpXWzH.s 			page 30


 649:Drivers/STM32F4xx_HAL_Driver/Src/stm32f4xx_hal_can.c ****     {
 884              		.loc 1 649 0 discriminator 4
 885 01ae 2368     		ldr	r3, [r4]
 886 01b0 9A68     		ldr	r2, [r3, #8]
 887 01b2 164B     		ldr	r3, .L101+8
 888 01b4 9343     		bics	r3, r3, r2
 889 01b6 14BF     		ite	ne
 890 01b8 0123     		movne	r3, #1
 891 01ba 0023     		moveq	r3, #0
 892 01bc E9E7     		b	.L81
 893              	.L98:
 663:Drivers/STM32F4xx_HAL_Driver/Src/stm32f4xx_hal_can.c ****         }
 664:Drivers/STM32F4xx_HAL_Driver/Src/stm32f4xx_hal_can.c ****       }
 665:Drivers/STM32F4xx_HAL_Driver/Src/stm32f4xx_hal_can.c ****     }
 666:Drivers/STM32F4xx_HAL_Driver/Src/stm32f4xx_hal_can.c **** 
 667:Drivers/STM32F4xx_HAL_Driver/Src/stm32f4xx_hal_can.c ****     /* Change CAN state */
 668:Drivers/STM32F4xx_HAL_Driver/Src/stm32f4xx_hal_can.c ****     switch(hcan->State)
 894              		.loc 1 668 0 is_stmt 1
 895 01be 94F83C30 		ldrb	r3, [r4, #60]	@ zero_extendqisi2
 896 01c2 DBB2     		uxtb	r3, r3
 897 01c4 522B     		cmp	r3, #82
 898 01c6 0ED0     		beq	.L85
 899 01c8 722B     		cmp	r3, #114
 900 01ca 10D0     		beq	.L86
 901 01cc 422B     		cmp	r3, #66
 902 01ce 03D0     		beq	.L100
 669:Drivers/STM32F4xx_HAL_Driver/Src/stm32f4xx_hal_can.c ****     {
 670:Drivers/STM32F4xx_HAL_Driver/Src/stm32f4xx_hal_can.c ****       case(HAL_CAN_STATE_BUSY_TX_RX0):
 671:Drivers/STM32F4xx_HAL_Driver/Src/stm32f4xx_hal_can.c ****           hcan->State = HAL_CAN_STATE_BUSY_RX0;
 672:Drivers/STM32F4xx_HAL_Driver/Src/stm32f4xx_hal_can.c ****           break;
 673:Drivers/STM32F4xx_HAL_Driver/Src/stm32f4xx_hal_can.c ****       case(HAL_CAN_STATE_BUSY_TX_RX1):
 674:Drivers/STM32F4xx_HAL_Driver/Src/stm32f4xx_hal_can.c ****           hcan->State = HAL_CAN_STATE_BUSY_RX1;
 675:Drivers/STM32F4xx_HAL_Driver/Src/stm32f4xx_hal_can.c ****           break;
 676:Drivers/STM32F4xx_HAL_Driver/Src/stm32f4xx_hal_can.c ****       case(HAL_CAN_STATE_BUSY_TX_RX0_RX1):
 677:Drivers/STM32F4xx_HAL_Driver/Src/stm32f4xx_hal_can.c ****           hcan->State = HAL_CAN_STATE_BUSY_RX0_RX1;
 678:Drivers/STM32F4xx_HAL_Driver/Src/stm32f4xx_hal_can.c ****           break;
 679:Drivers/STM32F4xx_HAL_Driver/Src/stm32f4xx_hal_can.c ****       default: /* HAL_CAN_STATE_BUSY_TX */
 680:Drivers/STM32F4xx_HAL_Driver/Src/stm32f4xx_hal_can.c ****           hcan->State = HAL_CAN_STATE_READY;
 903              		.loc 1 680 0
 904 01d0 0123     		movs	r3, #1
 905 01d2 84F83C30 		strb	r3, [r4, #60]
 681:Drivers/STM32F4xx_HAL_Driver/Src/stm32f4xx_hal_can.c ****           break;
 906              		.loc 1 681 0
 907 01d6 02E0     		b	.L88
 908              	.L100:
 671:Drivers/STM32F4xx_HAL_Driver/Src/stm32f4xx_hal_can.c ****           break;
 909              		.loc 1 671 0
 910 01d8 2223     		movs	r3, #34
 911 01da 84F83C30 		strb	r3, [r4, #60]
 912              	.L88:
 682:Drivers/STM32F4xx_HAL_Driver/Src/stm32f4xx_hal_can.c ****     }
 683:Drivers/STM32F4xx_HAL_Driver/Src/stm32f4xx_hal_can.c **** 
 684:Drivers/STM32F4xx_HAL_Driver/Src/stm32f4xx_hal_can.c ****     /* Process unlocked */
 685:Drivers/STM32F4xx_HAL_Driver/Src/stm32f4xx_hal_can.c ****     __HAL_UNLOCK(hcan);
 913              		.loc 1 685 0
 914 01de 0020     		movs	r0, #0
 915 01e0 84F83D00 		strb	r0, [r4, #61]
ARM GAS  /var/folders/7p/1_dhylqx7nl5s8914_0f_4w00000gn/T//ccPpXWzH.s 			page 31


 686:Drivers/STM32F4xx_HAL_Driver/Src/stm32f4xx_hal_can.c ****     
 687:Drivers/STM32F4xx_HAL_Driver/Src/stm32f4xx_hal_can.c ****     /* Return function status */
 688:Drivers/STM32F4xx_HAL_Driver/Src/stm32f4xx_hal_can.c ****     return HAL_OK;
 916              		.loc 1 688 0
 917 01e4 F8BD     		pop	{r3, r4, r5, r6, r7, pc}
 918              	.LVL45:
 919              	.L85:
 674:Drivers/STM32F4xx_HAL_Driver/Src/stm32f4xx_hal_can.c ****           break;
 920              		.loc 1 674 0
 921 01e6 3223     		movs	r3, #50
 922 01e8 84F83C30 		strb	r3, [r4, #60]
 675:Drivers/STM32F4xx_HAL_Driver/Src/stm32f4xx_hal_can.c ****       case(HAL_CAN_STATE_BUSY_TX_RX0_RX1):
 923              		.loc 1 675 0
 924 01ec F7E7     		b	.L88
 925              	.L86:
 677:Drivers/STM32F4xx_HAL_Driver/Src/stm32f4xx_hal_can.c ****           break;
 926              		.loc 1 677 0
 927 01ee 6223     		movs	r3, #98
 928 01f0 84F83C30 		strb	r3, [r4, #60]
 678:Drivers/STM32F4xx_HAL_Driver/Src/stm32f4xx_hal_can.c ****       default: /* HAL_CAN_STATE_BUSY_TX */
 929              		.loc 1 678 0
 930 01f4 F3E7     		b	.L88
 931              	.LVL46:
 932              	.L64:
 689:Drivers/STM32F4xx_HAL_Driver/Src/stm32f4xx_hal_can.c ****   }
 690:Drivers/STM32F4xx_HAL_Driver/Src/stm32f4xx_hal_can.c ****   else
 691:Drivers/STM32F4xx_HAL_Driver/Src/stm32f4xx_hal_can.c ****   {
 692:Drivers/STM32F4xx_HAL_Driver/Src/stm32f4xx_hal_can.c ****     /* Change CAN state */
 693:Drivers/STM32F4xx_HAL_Driver/Src/stm32f4xx_hal_can.c ****     hcan->State = HAL_CAN_STATE_ERROR; 
 933              		.loc 1 693 0
 934 01f6 0423     		movs	r3, #4
 935 01f8 80F83C30 		strb	r3, [r0, #60]
 694:Drivers/STM32F4xx_HAL_Driver/Src/stm32f4xx_hal_can.c **** 
 695:Drivers/STM32F4xx_HAL_Driver/Src/stm32f4xx_hal_can.c ****     /* Return function status */
 696:Drivers/STM32F4xx_HAL_Driver/Src/stm32f4xx_hal_can.c ****     return HAL_ERROR;
 936              		.loc 1 696 0
 937 01fc 0120     		movs	r0, #1
 938              	.LVL47:
 939 01fe F8BD     		pop	{r3, r4, r5, r6, r7, pc}
 940              	.LVL48:
 941              	.L89:
 579:Drivers/STM32F4xx_HAL_Driver/Src/stm32f4xx_hal_can.c ****   
 942              		.loc 1 579 0
 943 0200 0220     		movs	r0, #2
 944              	.LVL49:
 697:Drivers/STM32F4xx_HAL_Driver/Src/stm32f4xx_hal_can.c ****   }
 698:Drivers/STM32F4xx_HAL_Driver/Src/stm32f4xx_hal_can.c **** }
 945              		.loc 1 698 0
 946 0202 F8BD     		pop	{r3, r4, r5, r6, r7, pc}
 947              	.L102:
 948              		.align	2
 949              	.L101:
 950 0204 00000310 		.word	268632064
 951 0208 03000004 		.word	67108867
 952 020c 00030008 		.word	134218496
 953              		.cfi_endproc
 954              	.LFE129:
ARM GAS  /var/folders/7p/1_dhylqx7nl5s8914_0f_4w00000gn/T//ccPpXWzH.s 			page 32


 956              		.section	.text.HAL_CAN_Transmit_IT,"ax",%progbits
 957              		.align	1
 958              		.global	HAL_CAN_Transmit_IT
 959              		.syntax unified
 960              		.thumb
 961              		.thumb_func
 962              		.fpu fpv4-sp-d16
 964              	HAL_CAN_Transmit_IT:
 965              	.LFB130:
 699:Drivers/STM32F4xx_HAL_Driver/Src/stm32f4xx_hal_can.c **** 
 700:Drivers/STM32F4xx_HAL_Driver/Src/stm32f4xx_hal_can.c **** /**
 701:Drivers/STM32F4xx_HAL_Driver/Src/stm32f4xx_hal_can.c ****   * @brief  Initiates and transmits a CAN frame message.
 702:Drivers/STM32F4xx_HAL_Driver/Src/stm32f4xx_hal_can.c ****   * @param  hcan: pointer to a CAN_HandleTypeDef structure that contains
 703:Drivers/STM32F4xx_HAL_Driver/Src/stm32f4xx_hal_can.c ****   *         the configuration information for the specified CAN.  
 704:Drivers/STM32F4xx_HAL_Driver/Src/stm32f4xx_hal_can.c ****   * @retval HAL status
 705:Drivers/STM32F4xx_HAL_Driver/Src/stm32f4xx_hal_can.c ****   */
 706:Drivers/STM32F4xx_HAL_Driver/Src/stm32f4xx_hal_can.c **** HAL_StatusTypeDef HAL_CAN_Transmit_IT(CAN_HandleTypeDef* hcan)
 707:Drivers/STM32F4xx_HAL_Driver/Src/stm32f4xx_hal_can.c **** {
 966              		.loc 1 707 0
 967              		.cfi_startproc
 968              		@ args = 0, pretend = 0, frame = 0
 969              		@ frame_needed = 0, uses_anonymous_args = 0
 970              		@ link register save eliminated.
 971              	.LVL50:
 708:Drivers/STM32F4xx_HAL_Driver/Src/stm32f4xx_hal_can.c ****   uint32_t  transmitmailbox = CAN_TXSTATUS_NOMAILBOX;
 709:Drivers/STM32F4xx_HAL_Driver/Src/stm32f4xx_hal_can.c ****   
 710:Drivers/STM32F4xx_HAL_Driver/Src/stm32f4xx_hal_can.c ****   /* Check the parameters */
 711:Drivers/STM32F4xx_HAL_Driver/Src/stm32f4xx_hal_can.c ****   assert_param(IS_CAN_IDTYPE(hcan->pTxMsg->IDE));
 712:Drivers/STM32F4xx_HAL_Driver/Src/stm32f4xx_hal_can.c ****   assert_param(IS_CAN_RTR(hcan->pTxMsg->RTR));
 713:Drivers/STM32F4xx_HAL_Driver/Src/stm32f4xx_hal_can.c ****   assert_param(IS_CAN_DLC(hcan->pTxMsg->DLC));
 714:Drivers/STM32F4xx_HAL_Driver/Src/stm32f4xx_hal_can.c ****   
 715:Drivers/STM32F4xx_HAL_Driver/Src/stm32f4xx_hal_can.c ****   if(((hcan->Instance->TSR&CAN_TSR_TME0) == CAN_TSR_TME0) || \
 972              		.loc 1 715 0
 973 0000 0268     		ldr	r2, [r0]
 974 0002 9368     		ldr	r3, [r2, #8]
 975 0004 13F0806F 		tst	r3, #67108864
 976 0008 08D1     		bne	.L104
 716:Drivers/STM32F4xx_HAL_Driver/Src/stm32f4xx_hal_can.c ****      ((hcan->Instance->TSR&CAN_TSR_TME1) == CAN_TSR_TME1) || \
 977              		.loc 1 716 0 discriminator 1
 978 000a 9368     		ldr	r3, [r2, #8]
 715:Drivers/STM32F4xx_HAL_Driver/Src/stm32f4xx_hal_can.c ****      ((hcan->Instance->TSR&CAN_TSR_TME1) == CAN_TSR_TME1) || \
 979              		.loc 1 715 0 discriminator 1
 980 000c 13F0006F 		tst	r3, #134217728
 981 0010 04D1     		bne	.L104
 717:Drivers/STM32F4xx_HAL_Driver/Src/stm32f4xx_hal_can.c ****      ((hcan->Instance->TSR&CAN_TSR_TME2) == CAN_TSR_TME2))
 982              		.loc 1 717 0
 983 0012 9368     		ldr	r3, [r2, #8]
 716:Drivers/STM32F4xx_HAL_Driver/Src/stm32f4xx_hal_can.c ****      ((hcan->Instance->TSR&CAN_TSR_TME1) == CAN_TSR_TME1) || \
 984              		.loc 1 716 0
 985 0014 13F0805F 		tst	r3, #268435456
 986 0018 00F09A80 		beq	.L105
 987              	.L104:
 718:Drivers/STM32F4xx_HAL_Driver/Src/stm32f4xx_hal_can.c ****   {
 719:Drivers/STM32F4xx_HAL_Driver/Src/stm32f4xx_hal_can.c ****     /* Process Locked */
 720:Drivers/STM32F4xx_HAL_Driver/Src/stm32f4xx_hal_can.c ****     __HAL_LOCK(hcan);
 988              		.loc 1 720 0
 989 001c 90F83D30 		ldrb	r3, [r0, #61]	@ zero_extendqisi2
ARM GAS  /var/folders/7p/1_dhylqx7nl5s8914_0f_4w00000gn/T//ccPpXWzH.s 			page 33


 990 0020 012B     		cmp	r3, #1
 991 0022 00F09A80 		beq	.L115
 707:Drivers/STM32F4xx_HAL_Driver/Src/stm32f4xx_hal_can.c ****   uint32_t  transmitmailbox = CAN_TXSTATUS_NOMAILBOX;
 992              		.loc 1 707 0 discriminator 2
 993 0026 F0B4     		push	{r4, r5, r6, r7}
 994              	.LCFI8:
 995              		.cfi_def_cfa_offset 16
 996              		.cfi_offset 4, -16
 997              		.cfi_offset 5, -12
 998              		.cfi_offset 6, -8
 999              		.cfi_offset 7, -4
 1000              		.loc 1 720 0 discriminator 2
 1001 0028 0123     		movs	r3, #1
 1002 002a 80F83D30 		strb	r3, [r0, #61]
 721:Drivers/STM32F4xx_HAL_Driver/Src/stm32f4xx_hal_can.c **** 
 722:Drivers/STM32F4xx_HAL_Driver/Src/stm32f4xx_hal_can.c ****     /* Select one empty transmit mailbox */
 723:Drivers/STM32F4xx_HAL_Driver/Src/stm32f4xx_hal_can.c ****     if((hcan->Instance->TSR&CAN_TSR_TME0) == CAN_TSR_TME0)
 1003              		.loc 1 723 0 discriminator 2
 1004 002e 9368     		ldr	r3, [r2, #8]
 1005 0030 13F0806F 		tst	r3, #67108864
 1006 0034 05D1     		bne	.L116
 724:Drivers/STM32F4xx_HAL_Driver/Src/stm32f4xx_hal_can.c ****     {
 725:Drivers/STM32F4xx_HAL_Driver/Src/stm32f4xx_hal_can.c ****       transmitmailbox = CAN_TXMAILBOX_0;
 726:Drivers/STM32F4xx_HAL_Driver/Src/stm32f4xx_hal_can.c ****     }
 727:Drivers/STM32F4xx_HAL_Driver/Src/stm32f4xx_hal_can.c ****     else if((hcan->Instance->TSR&CAN_TSR_TME1) == CAN_TSR_TME1)
 1007              		.loc 1 727 0
 1008 0036 9368     		ldr	r3, [r2, #8]
 1009 0038 13F0006F 		tst	r3, #134217728
 1010 003c 59D0     		beq	.L117
 728:Drivers/STM32F4xx_HAL_Driver/Src/stm32f4xx_hal_can.c ****     {
 729:Drivers/STM32F4xx_HAL_Driver/Src/stm32f4xx_hal_can.c ****       transmitmailbox = CAN_TXMAILBOX_1;
 1011              		.loc 1 729 0
 1012 003e 0123     		movs	r3, #1
 1013 0040 00E0     		b	.L107
 1014              	.L116:
 725:Drivers/STM32F4xx_HAL_Driver/Src/stm32f4xx_hal_can.c ****     }
 1015              		.loc 1 725 0
 1016 0042 0023     		movs	r3, #0
 1017              	.L107:
 1018              	.LVL51:
 730:Drivers/STM32F4xx_HAL_Driver/Src/stm32f4xx_hal_can.c ****     }
 731:Drivers/STM32F4xx_HAL_Driver/Src/stm32f4xx_hal_can.c ****     else
 732:Drivers/STM32F4xx_HAL_Driver/Src/stm32f4xx_hal_can.c ****     {
 733:Drivers/STM32F4xx_HAL_Driver/Src/stm32f4xx_hal_can.c ****       transmitmailbox = CAN_TXMAILBOX_2;
 734:Drivers/STM32F4xx_HAL_Driver/Src/stm32f4xx_hal_can.c ****     }
 735:Drivers/STM32F4xx_HAL_Driver/Src/stm32f4xx_hal_can.c **** 
 736:Drivers/STM32F4xx_HAL_Driver/Src/stm32f4xx_hal_can.c ****     /* Set up the Id */
 737:Drivers/STM32F4xx_HAL_Driver/Src/stm32f4xx_hal_can.c ****     hcan->Instance->sTxMailBox[transmitmailbox].TIR &= CAN_TI0R_TXRQ;
 1019              		.loc 1 737 0
 1020 0044 03F11801 		add	r1, r3, #24
 1021 0048 0901     		lsls	r1, r1, #4
 1022 004a 5458     		ldr	r4, [r2, r1]
 1023 004c 04F00104 		and	r4, r4, #1
 1024 0050 5450     		str	r4, [r2, r1]
 738:Drivers/STM32F4xx_HAL_Driver/Src/stm32f4xx_hal_can.c ****     if(hcan->pTxMsg->IDE == CAN_ID_STD)
 1025              		.loc 1 738 0
 1026 0052 016B     		ldr	r1, [r0, #48]
ARM GAS  /var/folders/7p/1_dhylqx7nl5s8914_0f_4w00000gn/T//ccPpXWzH.s 			page 34


 1027 0054 8A68     		ldr	r2, [r1, #8]
 1028 0056 002A     		cmp	r2, #0
 1029 0058 4DD1     		bne	.L108
 739:Drivers/STM32F4xx_HAL_Driver/Src/stm32f4xx_hal_can.c ****     {
 740:Drivers/STM32F4xx_HAL_Driver/Src/stm32f4xx_hal_can.c ****       assert_param(IS_CAN_STDID(hcan->pTxMsg->StdId));  
 741:Drivers/STM32F4xx_HAL_Driver/Src/stm32f4xx_hal_can.c ****       hcan->Instance->sTxMailBox[transmitmailbox].TIR |= ((hcan->pTxMsg->StdId << 21U) | \
 1030              		.loc 1 741 0
 1031 005a 0568     		ldr	r5, [r0]
 1032 005c 03F11802 		add	r2, r3, #24
 1033 0060 1201     		lsls	r2, r2, #4
 1034 0062 AC58     		ldr	r4, [r5, r2]
 1035 0064 0E68     		ldr	r6, [r1]
 742:Drivers/STM32F4xx_HAL_Driver/Src/stm32f4xx_hal_can.c ****                                                 hcan->pTxMsg->RTR);
 1036              		.loc 1 742 0
 1037 0066 C968     		ldr	r1, [r1, #12]
 741:Drivers/STM32F4xx_HAL_Driver/Src/stm32f4xx_hal_can.c ****                                                 hcan->pTxMsg->RTR);
 1038              		.loc 1 741 0
 1039 0068 41EA4651 		orr	r1, r1, r6, lsl #21
 1040 006c 2143     		orrs	r1, r1, r4
 1041 006e A950     		str	r1, [r5, r2]
 1042              	.L109:
 743:Drivers/STM32F4xx_HAL_Driver/Src/stm32f4xx_hal_can.c ****     }
 744:Drivers/STM32F4xx_HAL_Driver/Src/stm32f4xx_hal_can.c ****     else
 745:Drivers/STM32F4xx_HAL_Driver/Src/stm32f4xx_hal_can.c ****     {
 746:Drivers/STM32F4xx_HAL_Driver/Src/stm32f4xx_hal_can.c ****       assert_param(IS_CAN_EXTID(hcan->pTxMsg->ExtId));
 747:Drivers/STM32F4xx_HAL_Driver/Src/stm32f4xx_hal_can.c ****       hcan->Instance->sTxMailBox[transmitmailbox].TIR |= ((hcan->pTxMsg->ExtId << 3U) | \
 748:Drivers/STM32F4xx_HAL_Driver/Src/stm32f4xx_hal_can.c ****                                                 hcan->pTxMsg->IDE | \
 749:Drivers/STM32F4xx_HAL_Driver/Src/stm32f4xx_hal_can.c ****                                                 hcan->pTxMsg->RTR);
 750:Drivers/STM32F4xx_HAL_Driver/Src/stm32f4xx_hal_can.c ****     }
 751:Drivers/STM32F4xx_HAL_Driver/Src/stm32f4xx_hal_can.c ****     
 752:Drivers/STM32F4xx_HAL_Driver/Src/stm32f4xx_hal_can.c ****     /* Set up the DLC */
 753:Drivers/STM32F4xx_HAL_Driver/Src/stm32f4xx_hal_can.c ****     hcan->pTxMsg->DLC &= (uint8_t)0x0000000F;
 1043              		.loc 1 753 0
 1044 0070 016B     		ldr	r1, [r0, #48]
 1045 0072 0A69     		ldr	r2, [r1, #16]
 1046 0074 02F00F02 		and	r2, r2, #15
 1047 0078 0A61     		str	r2, [r1, #16]
 754:Drivers/STM32F4xx_HAL_Driver/Src/stm32f4xx_hal_can.c ****     hcan->Instance->sTxMailBox[transmitmailbox].TDTR &= (uint32_t)0xFFFFFFF0U;
 1048              		.loc 1 754 0
 1049 007a 0468     		ldr	r4, [r0]
 1050 007c 03F11802 		add	r2, r3, #24
 1051 0080 1101     		lsls	r1, r2, #4
 1052 0082 6218     		adds	r2, r4, r1
 1053 0084 5468     		ldr	r4, [r2, #4]
 1054 0086 24F00F04 		bic	r4, r4, #15
 1055 008a 5460     		str	r4, [r2, #4]
 755:Drivers/STM32F4xx_HAL_Driver/Src/stm32f4xx_hal_can.c ****     hcan->Instance->sTxMailBox[transmitmailbox].TDTR |= hcan->pTxMsg->DLC;
 1056              		.loc 1 755 0
 1057 008c 0268     		ldr	r2, [r0]
 1058 008e 0A44     		add	r2, r2, r1
 1059 0090 5168     		ldr	r1, [r2, #4]
 1060 0092 046B     		ldr	r4, [r0, #48]
 1061 0094 2469     		ldr	r4, [r4, #16]
 1062 0096 2143     		orrs	r1, r1, r4
 1063 0098 5160     		str	r1, [r2, #4]
 756:Drivers/STM32F4xx_HAL_Driver/Src/stm32f4xx_hal_can.c **** 
 757:Drivers/STM32F4xx_HAL_Driver/Src/stm32f4xx_hal_can.c ****     /* Set up the data field */
ARM GAS  /var/folders/7p/1_dhylqx7nl5s8914_0f_4w00000gn/T//ccPpXWzH.s 			page 35


 758:Drivers/STM32F4xx_HAL_Driver/Src/stm32f4xx_hal_can.c ****     hcan->Instance->sTxMailBox[transmitmailbox].TDLR = (((uint32_t)hcan->pTxMsg->Data[3U] << 24U) |
 1064              		.loc 1 758 0
 1065 009a 0468     		ldr	r4, [r0]
 1066 009c 016B     		ldr	r1, [r0, #48]
 1067 009e CD7D     		ldrb	r5, [r1, #23]	@ zero_extendqisi2
 759:Drivers/STM32F4xx_HAL_Driver/Src/stm32f4xx_hal_can.c ****                                            ((uint32_t)hcan->pTxMsg->Data[2U] << 16U) |
 1068              		.loc 1 759 0
 1069 00a0 8A7D     		ldrb	r2, [r1, #22]	@ zero_extendqisi2
 1070 00a2 1204     		lsls	r2, r2, #16
 758:Drivers/STM32F4xx_HAL_Driver/Src/stm32f4xx_hal_can.c ****                                            ((uint32_t)hcan->pTxMsg->Data[2U] << 16U) |
 1071              		.loc 1 758 0
 1072 00a4 42EA0562 		orr	r2, r2, r5, lsl #24
 760:Drivers/STM32F4xx_HAL_Driver/Src/stm32f4xx_hal_can.c ****                                            ((uint32_t)hcan->pTxMsg->Data[1U] << 8U) | 
 1073              		.loc 1 760 0
 1074 00a8 4D7D     		ldrb	r5, [r1, #21]	@ zero_extendqisi2
 759:Drivers/STM32F4xx_HAL_Driver/Src/stm32f4xx_hal_can.c ****                                            ((uint32_t)hcan->pTxMsg->Data[2U] << 16U) |
 1075              		.loc 1 759 0
 1076 00aa 42EA0522 		orr	r2, r2, r5, lsl #8
 761:Drivers/STM32F4xx_HAL_Driver/Src/stm32f4xx_hal_can.c ****                                            ((uint32_t)hcan->pTxMsg->Data[0U]));
 1077              		.loc 1 761 0
 1078 00ae 097D     		ldrb	r1, [r1, #20]	@ zero_extendqisi2
 760:Drivers/STM32F4xx_HAL_Driver/Src/stm32f4xx_hal_can.c ****                                            ((uint32_t)hcan->pTxMsg->Data[1U] << 8U) | 
 1079              		.loc 1 760 0
 1080 00b0 0A43     		orrs	r2, r2, r1
 758:Drivers/STM32F4xx_HAL_Driver/Src/stm32f4xx_hal_can.c ****                                            ((uint32_t)hcan->pTxMsg->Data[2U] << 16U) |
 1081              		.loc 1 758 0
 1082 00b2 1D01     		lsls	r5, r3, #4
 1083 00b4 2C44     		add	r4, r4, r5
 1084 00b6 C4F88821 		str	r2, [r4, #392]
 762:Drivers/STM32F4xx_HAL_Driver/Src/stm32f4xx_hal_can.c ****     hcan->Instance->sTxMailBox[transmitmailbox].TDHR = (((uint32_t)hcan->pTxMsg->Data[7U] << 24U) |
 1085              		.loc 1 762 0
 1086 00ba 0168     		ldr	r1, [r0]
 1087 00bc 046B     		ldr	r4, [r0, #48]
 1088 00be E67E     		ldrb	r6, [r4, #27]	@ zero_extendqisi2
 763:Drivers/STM32F4xx_HAL_Driver/Src/stm32f4xx_hal_can.c ****                                            ((uint32_t)hcan->pTxMsg->Data[6U] << 16U) |
 1089              		.loc 1 763 0
 1090 00c0 A27E     		ldrb	r2, [r4, #26]	@ zero_extendqisi2
 1091 00c2 1204     		lsls	r2, r2, #16
 762:Drivers/STM32F4xx_HAL_Driver/Src/stm32f4xx_hal_can.c ****     hcan->Instance->sTxMailBox[transmitmailbox].TDHR = (((uint32_t)hcan->pTxMsg->Data[7U] << 24U) |
 1092              		.loc 1 762 0
 1093 00c4 42EA0662 		orr	r2, r2, r6, lsl #24
 764:Drivers/STM32F4xx_HAL_Driver/Src/stm32f4xx_hal_can.c ****                                            ((uint32_t)hcan->pTxMsg->Data[5U] << 8U) |
 1094              		.loc 1 764 0
 1095 00c8 667E     		ldrb	r6, [r4, #25]	@ zero_extendqisi2
 763:Drivers/STM32F4xx_HAL_Driver/Src/stm32f4xx_hal_can.c ****                                            ((uint32_t)hcan->pTxMsg->Data[6U] << 16U) |
 1096              		.loc 1 763 0
 1097 00ca 42EA0622 		orr	r2, r2, r6, lsl #8
 765:Drivers/STM32F4xx_HAL_Driver/Src/stm32f4xx_hal_can.c ****                                            ((uint32_t)hcan->pTxMsg->Data[4U]));
 1098              		.loc 1 765 0
 1099 00ce 247E     		ldrb	r4, [r4, #24]	@ zero_extendqisi2
 764:Drivers/STM32F4xx_HAL_Driver/Src/stm32f4xx_hal_can.c ****                                            ((uint32_t)hcan->pTxMsg->Data[5U] << 8U) |
 1100              		.loc 1 764 0
 1101 00d0 2243     		orrs	r2, r2, r4
 762:Drivers/STM32F4xx_HAL_Driver/Src/stm32f4xx_hal_can.c ****                                            ((uint32_t)hcan->pTxMsg->Data[6U] << 16U) |
 1102              		.loc 1 762 0
 1103 00d2 2944     		add	r1, r1, r5
 1104 00d4 C1F88C21 		str	r2, [r1, #396]
ARM GAS  /var/folders/7p/1_dhylqx7nl5s8914_0f_4w00000gn/T//ccPpXWzH.s 			page 36


 766:Drivers/STM32F4xx_HAL_Driver/Src/stm32f4xx_hal_can.c **** 
 767:Drivers/STM32F4xx_HAL_Driver/Src/stm32f4xx_hal_can.c ****     /* Change CAN state */
 768:Drivers/STM32F4xx_HAL_Driver/Src/stm32f4xx_hal_can.c ****     switch(hcan->State)
 1105              		.loc 1 768 0
 1106 00d8 90F83C20 		ldrb	r2, [r0, #60]	@ zero_extendqisi2
 1107 00dc D2B2     		uxtb	r2, r2
 1108 00de 322A     		cmp	r2, #50
 1109 00e0 2ED0     		beq	.L111
 1110 00e2 622A     		cmp	r2, #98
 1111 00e4 30D0     		beq	.L112
 1112 00e6 222A     		cmp	r2, #34
 1113 00e8 12D0     		beq	.L123
 769:Drivers/STM32F4xx_HAL_Driver/Src/stm32f4xx_hal_can.c ****     {
 770:Drivers/STM32F4xx_HAL_Driver/Src/stm32f4xx_hal_can.c ****       case(HAL_CAN_STATE_BUSY_RX0):
 771:Drivers/STM32F4xx_HAL_Driver/Src/stm32f4xx_hal_can.c ****           hcan->State = HAL_CAN_STATE_BUSY_TX_RX0;
 772:Drivers/STM32F4xx_HAL_Driver/Src/stm32f4xx_hal_can.c ****           break;
 773:Drivers/STM32F4xx_HAL_Driver/Src/stm32f4xx_hal_can.c ****       case(HAL_CAN_STATE_BUSY_RX1):
 774:Drivers/STM32F4xx_HAL_Driver/Src/stm32f4xx_hal_can.c ****           hcan->State = HAL_CAN_STATE_BUSY_TX_RX1;
 775:Drivers/STM32F4xx_HAL_Driver/Src/stm32f4xx_hal_can.c ****           break;
 776:Drivers/STM32F4xx_HAL_Driver/Src/stm32f4xx_hal_can.c ****       case(HAL_CAN_STATE_BUSY_RX0_RX1):
 777:Drivers/STM32F4xx_HAL_Driver/Src/stm32f4xx_hal_can.c ****           hcan->State = HAL_CAN_STATE_BUSY_TX_RX0_RX1;
 778:Drivers/STM32F4xx_HAL_Driver/Src/stm32f4xx_hal_can.c ****           break;
 779:Drivers/STM32F4xx_HAL_Driver/Src/stm32f4xx_hal_can.c ****       default: /* HAL_CAN_STATE_READY */
 780:Drivers/STM32F4xx_HAL_Driver/Src/stm32f4xx_hal_can.c ****           hcan->State = HAL_CAN_STATE_BUSY_TX;
 1114              		.loc 1 780 0
 1115 00ea 1222     		movs	r2, #18
 1116 00ec 80F83C20 		strb	r2, [r0, #60]
 781:Drivers/STM32F4xx_HAL_Driver/Src/stm32f4xx_hal_can.c ****           break;
 1117              		.loc 1 781 0
 1118 00f0 11E0     		b	.L114
 1119              	.LVL52:
 1120              	.L117:
 733:Drivers/STM32F4xx_HAL_Driver/Src/stm32f4xx_hal_can.c ****     }
 1121              		.loc 1 733 0
 1122 00f2 0223     		movs	r3, #2
 1123 00f4 A6E7     		b	.L107
 1124              	.LVL53:
 1125              	.L108:
 747:Drivers/STM32F4xx_HAL_Driver/Src/stm32f4xx_hal_can.c ****                                                 hcan->pTxMsg->IDE | \
 1126              		.loc 1 747 0
 1127 00f6 0668     		ldr	r6, [r0]
 1128 00f8 03F11804 		add	r4, r3, #24
 1129 00fc 2401     		lsls	r4, r4, #4
 1130 00fe 3559     		ldr	r5, [r6, r4]
 1131 0100 4F68     		ldr	r7, [r1, #4]
 1132 0102 42EAC702 		orr	r2, r2, r7, lsl #3
 749:Drivers/STM32F4xx_HAL_Driver/Src/stm32f4xx_hal_can.c ****     }
 1133              		.loc 1 749 0
 1134 0106 C968     		ldr	r1, [r1, #12]
 748:Drivers/STM32F4xx_HAL_Driver/Src/stm32f4xx_hal_can.c ****                                                 hcan->pTxMsg->RTR);
 1135              		.loc 1 748 0
 1136 0108 0A43     		orrs	r2, r2, r1
 747:Drivers/STM32F4xx_HAL_Driver/Src/stm32f4xx_hal_can.c ****                                                 hcan->pTxMsg->IDE | \
 1137              		.loc 1 747 0
 1138 010a 2A43     		orrs	r2, r2, r5
 1139 010c 3251     		str	r2, [r6, r4]
 1140 010e AFE7     		b	.L109
ARM GAS  /var/folders/7p/1_dhylqx7nl5s8914_0f_4w00000gn/T//ccPpXWzH.s 			page 37


 1141              	.L123:
 771:Drivers/STM32F4xx_HAL_Driver/Src/stm32f4xx_hal_can.c ****           break;
 1142              		.loc 1 771 0
 1143 0110 4222     		movs	r2, #66
 1144 0112 80F83C20 		strb	r2, [r0, #60]
 1145              	.L114:
 782:Drivers/STM32F4xx_HAL_Driver/Src/stm32f4xx_hal_can.c ****     }
 783:Drivers/STM32F4xx_HAL_Driver/Src/stm32f4xx_hal_can.c **** 
 784:Drivers/STM32F4xx_HAL_Driver/Src/stm32f4xx_hal_can.c ****     /* Set CAN error code to none */
 785:Drivers/STM32F4xx_HAL_Driver/Src/stm32f4xx_hal_can.c ****     hcan->ErrorCode = HAL_CAN_ERROR_NONE;
 1146              		.loc 1 785 0
 1147 0116 0022     		movs	r2, #0
 1148 0118 0264     		str	r2, [r0, #64]
 786:Drivers/STM32F4xx_HAL_Driver/Src/stm32f4xx_hal_can.c **** 
 787:Drivers/STM32F4xx_HAL_Driver/Src/stm32f4xx_hal_can.c ****     /* Process Unlocked */
 788:Drivers/STM32F4xx_HAL_Driver/Src/stm32f4xx_hal_can.c ****     __HAL_UNLOCK(hcan);
 1149              		.loc 1 788 0
 1150 011a 80F83D20 		strb	r2, [r0, #61]
 789:Drivers/STM32F4xx_HAL_Driver/Src/stm32f4xx_hal_can.c **** 
 790:Drivers/STM32F4xx_HAL_Driver/Src/stm32f4xx_hal_can.c ****     /* Request transmission */
 791:Drivers/STM32F4xx_HAL_Driver/Src/stm32f4xx_hal_can.c ****     hcan->Instance->sTxMailBox[transmitmailbox].TIR |= CAN_TI0R_TXRQ;
 1151              		.loc 1 791 0
 1152 011e 0468     		ldr	r4, [r0]
 1153 0120 1833     		adds	r3, r3, #24
 1154              	.LVL54:
 1155 0122 1B01     		lsls	r3, r3, #4
 1156              	.LVL55:
 1157 0124 E158     		ldr	r1, [r4, r3]
 1158 0126 41F00101 		orr	r1, r1, #1
 1159 012a E150     		str	r1, [r4, r3]
 792:Drivers/STM32F4xx_HAL_Driver/Src/stm32f4xx_hal_can.c **** 
 793:Drivers/STM32F4xx_HAL_Driver/Src/stm32f4xx_hal_can.c ****     /* Enable Error warning, Error passive, Bus-off,
 794:Drivers/STM32F4xx_HAL_Driver/Src/stm32f4xx_hal_can.c ****        Last error and Error Interrupts */
 795:Drivers/STM32F4xx_HAL_Driver/Src/stm32f4xx_hal_can.c ****     __HAL_CAN_ENABLE_IT(hcan, CAN_IT_EWG |
 1160              		.loc 1 795 0
 1161 012c 0168     		ldr	r1, [r0]
 1162 012e 4B69     		ldr	r3, [r1, #20]
 1163 0130 43F40F43 		orr	r3, r3, #36608
 1164 0134 43F00103 		orr	r3, r3, #1
 1165 0138 4B61     		str	r3, [r1, #20]
 796:Drivers/STM32F4xx_HAL_Driver/Src/stm32f4xx_hal_can.c ****                               CAN_IT_EPV |
 797:Drivers/STM32F4xx_HAL_Driver/Src/stm32f4xx_hal_can.c ****                               CAN_IT_BOF |
 798:Drivers/STM32F4xx_HAL_Driver/Src/stm32f4xx_hal_can.c ****                               CAN_IT_LEC |
 799:Drivers/STM32F4xx_HAL_Driver/Src/stm32f4xx_hal_can.c ****                               CAN_IT_ERR |
 800:Drivers/STM32F4xx_HAL_Driver/Src/stm32f4xx_hal_can.c ****                               CAN_IT_TME);
 801:Drivers/STM32F4xx_HAL_Driver/Src/stm32f4xx_hal_can.c ****   }
 802:Drivers/STM32F4xx_HAL_Driver/Src/stm32f4xx_hal_can.c ****   else
 803:Drivers/STM32F4xx_HAL_Driver/Src/stm32f4xx_hal_can.c ****   {
 804:Drivers/STM32F4xx_HAL_Driver/Src/stm32f4xx_hal_can.c ****     /* Change CAN state */
 805:Drivers/STM32F4xx_HAL_Driver/Src/stm32f4xx_hal_can.c ****     hcan->State = HAL_CAN_STATE_ERROR; 
 806:Drivers/STM32F4xx_HAL_Driver/Src/stm32f4xx_hal_can.c **** 
 807:Drivers/STM32F4xx_HAL_Driver/Src/stm32f4xx_hal_can.c ****     /* Return function status */
 808:Drivers/STM32F4xx_HAL_Driver/Src/stm32f4xx_hal_can.c ****     return HAL_ERROR;
 809:Drivers/STM32F4xx_HAL_Driver/Src/stm32f4xx_hal_can.c ****   }
 810:Drivers/STM32F4xx_HAL_Driver/Src/stm32f4xx_hal_can.c ****   
 811:Drivers/STM32F4xx_HAL_Driver/Src/stm32f4xx_hal_can.c ****   return HAL_OK;
 1166              		.loc 1 811 0
ARM GAS  /var/folders/7p/1_dhylqx7nl5s8914_0f_4w00000gn/T//ccPpXWzH.s 			page 38


 1167 013a 1046     		mov	r0, r2
 1168              	.LVL56:
 812:Drivers/STM32F4xx_HAL_Driver/Src/stm32f4xx_hal_can.c **** }
 1169              		.loc 1 812 0
 1170 013c F0BC     		pop	{r4, r5, r6, r7}
 1171              	.LCFI9:
 1172              		.cfi_remember_state
 1173              		.cfi_restore 7
 1174              		.cfi_restore 6
 1175              		.cfi_restore 5
 1176              		.cfi_restore 4
 1177              		.cfi_def_cfa_offset 0
 1178 013e 7047     		bx	lr
 1179              	.LVL57:
 1180              	.L111:
 1181              	.LCFI10:
 1182              		.cfi_restore_state
 774:Drivers/STM32F4xx_HAL_Driver/Src/stm32f4xx_hal_can.c ****           break;
 1183              		.loc 1 774 0
 1184 0140 5222     		movs	r2, #82
 1185 0142 80F83C20 		strb	r2, [r0, #60]
 775:Drivers/STM32F4xx_HAL_Driver/Src/stm32f4xx_hal_can.c ****       case(HAL_CAN_STATE_BUSY_RX0_RX1):
 1186              		.loc 1 775 0
 1187 0146 E6E7     		b	.L114
 1188              	.L112:
 777:Drivers/STM32F4xx_HAL_Driver/Src/stm32f4xx_hal_can.c ****           break;
 1189              		.loc 1 777 0
 1190 0148 7222     		movs	r2, #114
 1191 014a 80F83C20 		strb	r2, [r0, #60]
 778:Drivers/STM32F4xx_HAL_Driver/Src/stm32f4xx_hal_can.c ****       default: /* HAL_CAN_STATE_READY */
 1192              		.loc 1 778 0
 1193 014e E2E7     		b	.L114
 1194              	.LVL58:
 1195              	.L105:
 1196              	.LCFI11:
 1197              		.cfi_def_cfa_offset 0
 1198              		.cfi_restore 4
 1199              		.cfi_restore 5
 1200              		.cfi_restore 6
 1201              		.cfi_restore 7
 805:Drivers/STM32F4xx_HAL_Driver/Src/stm32f4xx_hal_can.c **** 
 1202              		.loc 1 805 0
 1203 0150 0423     		movs	r3, #4
 1204 0152 80F83C30 		strb	r3, [r0, #60]
 808:Drivers/STM32F4xx_HAL_Driver/Src/stm32f4xx_hal_can.c ****   }
 1205              		.loc 1 808 0
 1206 0156 0120     		movs	r0, #1
 1207              	.LVL59:
 1208 0158 7047     		bx	lr
 1209              	.LVL60:
 1210              	.L115:
 720:Drivers/STM32F4xx_HAL_Driver/Src/stm32f4xx_hal_can.c **** 
 1211              		.loc 1 720 0
 1212 015a 0220     		movs	r0, #2
 1213              	.LVL61:
 1214 015c 7047     		bx	lr
 1215              		.cfi_endproc
ARM GAS  /var/folders/7p/1_dhylqx7nl5s8914_0f_4w00000gn/T//ccPpXWzH.s 			page 39


 1216              	.LFE130:
 1218              		.section	.text.HAL_CAN_Receive,"ax",%progbits
 1219              		.align	1
 1220              		.global	HAL_CAN_Receive
 1221              		.syntax unified
 1222              		.thumb
 1223              		.thumb_func
 1224              		.fpu fpv4-sp-d16
 1226              	HAL_CAN_Receive:
 1227              	.LFB131:
 813:Drivers/STM32F4xx_HAL_Driver/Src/stm32f4xx_hal_can.c **** 
 814:Drivers/STM32F4xx_HAL_Driver/Src/stm32f4xx_hal_can.c **** /**
 815:Drivers/STM32F4xx_HAL_Driver/Src/stm32f4xx_hal_can.c ****   * @brief  Receives a correct CAN frame.
 816:Drivers/STM32F4xx_HAL_Driver/Src/stm32f4xx_hal_can.c ****   * @param  hcan: pointer to a CAN_HandleTypeDef structure that contains
 817:Drivers/STM32F4xx_HAL_Driver/Src/stm32f4xx_hal_can.c ****   *         the configuration information for the specified CAN.  
 818:Drivers/STM32F4xx_HAL_Driver/Src/stm32f4xx_hal_can.c ****   * @param  FIFONumber: FIFO Number value
 819:Drivers/STM32F4xx_HAL_Driver/Src/stm32f4xx_hal_can.c ****   * @param  Timeout: Specify Timeout value 
 820:Drivers/STM32F4xx_HAL_Driver/Src/stm32f4xx_hal_can.c ****   * @retval HAL status
 821:Drivers/STM32F4xx_HAL_Driver/Src/stm32f4xx_hal_can.c ****   */
 822:Drivers/STM32F4xx_HAL_Driver/Src/stm32f4xx_hal_can.c **** HAL_StatusTypeDef HAL_CAN_Receive(CAN_HandleTypeDef* hcan, uint8_t FIFONumber, uint32_t Timeout)
 823:Drivers/STM32F4xx_HAL_Driver/Src/stm32f4xx_hal_can.c **** {
 1228              		.loc 1 823 0
 1229              		.cfi_startproc
 1230              		@ args = 0, pretend = 0, frame = 0
 1231              		@ frame_needed = 0, uses_anonymous_args = 0
 1232              	.LVL62:
 1233 0000 F8B5     		push	{r3, r4, r5, r6, r7, lr}
 1234              	.LCFI12:
 1235              		.cfi_def_cfa_offset 24
 1236              		.cfi_offset 3, -24
 1237              		.cfi_offset 4, -20
 1238              		.cfi_offset 5, -16
 1239              		.cfi_offset 6, -12
 1240              		.cfi_offset 7, -8
 1241              		.cfi_offset 14, -4
 1242              	.LVL63:
 824:Drivers/STM32F4xx_HAL_Driver/Src/stm32f4xx_hal_can.c ****   uint32_t tickstart = 0U;
 825:Drivers/STM32F4xx_HAL_Driver/Src/stm32f4xx_hal_can.c ****   CanRxMsgTypeDef* pRxMsg = NULL;
 826:Drivers/STM32F4xx_HAL_Driver/Src/stm32f4xx_hal_can.c ****  
 827:Drivers/STM32F4xx_HAL_Driver/Src/stm32f4xx_hal_can.c ****   /* Check the parameters */
 828:Drivers/STM32F4xx_HAL_Driver/Src/stm32f4xx_hal_can.c ****   assert_param(IS_CAN_FIFO(FIFONumber));
 829:Drivers/STM32F4xx_HAL_Driver/Src/stm32f4xx_hal_can.c **** 
 830:Drivers/STM32F4xx_HAL_Driver/Src/stm32f4xx_hal_can.c ****   /* Check if CAN state is not busy for RX FIFO0 */
 831:Drivers/STM32F4xx_HAL_Driver/Src/stm32f4xx_hal_can.c ****   if ((FIFONumber == CAN_FIFO0) && ((hcan->State == HAL_CAN_STATE_BUSY_RX0) ||         \
 1243              		.loc 1 831 0
 1244 0002 0D46     		mov	r5, r1
 1245 0004 B9B9     		cbnz	r1, .L125
 1246              		.loc 1 831 0 is_stmt 0 discriminator 1
 1247 0006 90F83C30 		ldrb	r3, [r0, #60]	@ zero_extendqisi2
 1248 000a DBB2     		uxtb	r3, r3
 1249 000c 222B     		cmp	r3, #34
 1250 000e 00F02F81 		beq	.L160
 832:Drivers/STM32F4xx_HAL_Driver/Src/stm32f4xx_hal_can.c ****                                     (hcan->State == HAL_CAN_STATE_BUSY_TX_RX0) ||      \
 1251              		.loc 1 832 0 is_stmt 1 discriminator 2
 1252 0012 90F83C30 		ldrb	r3, [r0, #60]	@ zero_extendqisi2
 1253 0016 DBB2     		uxtb	r3, r3
 831:Drivers/STM32F4xx_HAL_Driver/Src/stm32f4xx_hal_can.c ****                                     (hcan->State == HAL_CAN_STATE_BUSY_TX_RX0) ||      \
ARM GAS  /var/folders/7p/1_dhylqx7nl5s8914_0f_4w00000gn/T//ccPpXWzH.s 			page 40


 1254              		.loc 1 831 0 discriminator 2
 1255 0018 422B     		cmp	r3, #66
 1256 001a 00F02B81 		beq	.L161
 833:Drivers/STM32F4xx_HAL_Driver/Src/stm32f4xx_hal_can.c ****                                     (hcan->State == HAL_CAN_STATE_BUSY_RX0_RX1) ||     \
 1257              		.loc 1 833 0
 1258 001e 90F83C30 		ldrb	r3, [r0, #60]	@ zero_extendqisi2
 1259 0022 DBB2     		uxtb	r3, r3
 832:Drivers/STM32F4xx_HAL_Driver/Src/stm32f4xx_hal_can.c ****                                     (hcan->State == HAL_CAN_STATE_BUSY_TX_RX0) ||      \
 1260              		.loc 1 832 0
 1261 0024 622B     		cmp	r3, #98
 1262 0026 00F02781 		beq	.L162
 834:Drivers/STM32F4xx_HAL_Driver/Src/stm32f4xx_hal_can.c ****                                     (hcan->State == HAL_CAN_STATE_BUSY_TX_RX0_RX1)))
 1263              		.loc 1 834 0
 1264 002a 90F83C30 		ldrb	r3, [r0, #60]	@ zero_extendqisi2
 1265 002e DBB2     		uxtb	r3, r3
 833:Drivers/STM32F4xx_HAL_Driver/Src/stm32f4xx_hal_can.c ****                                     (hcan->State == HAL_CAN_STATE_BUSY_RX0_RX1) ||     \
 1266              		.loc 1 833 0
 1267 0030 722B     		cmp	r3, #114
 1268 0032 00F02381 		beq	.L163
 1269              	.L125:
 835:Drivers/STM32F4xx_HAL_Driver/Src/stm32f4xx_hal_can.c ****   {
 836:Drivers/STM32F4xx_HAL_Driver/Src/stm32f4xx_hal_can.c ****     return HAL_BUSY;
 837:Drivers/STM32F4xx_HAL_Driver/Src/stm32f4xx_hal_can.c ****   }
 838:Drivers/STM32F4xx_HAL_Driver/Src/stm32f4xx_hal_can.c **** 
 839:Drivers/STM32F4xx_HAL_Driver/Src/stm32f4xx_hal_can.c ****   /* Check if CAN state is not busy for RX FIFO1 */
 840:Drivers/STM32F4xx_HAL_Driver/Src/stm32f4xx_hal_can.c ****   if ((FIFONumber == CAN_FIFO1) && ((hcan->State == HAL_CAN_STATE_BUSY_RX1) ||         \
 1270              		.loc 1 840 0
 1271 0036 012D     		cmp	r5, #1
 1272 0038 15D0     		beq	.L174
 1273              	.L127:
 841:Drivers/STM32F4xx_HAL_Driver/Src/stm32f4xx_hal_can.c ****                                     (hcan->State == HAL_CAN_STATE_BUSY_TX_RX1) ||      \
 842:Drivers/STM32F4xx_HAL_Driver/Src/stm32f4xx_hal_can.c ****                                     (hcan->State == HAL_CAN_STATE_BUSY_RX0_RX1) ||     \
 843:Drivers/STM32F4xx_HAL_Driver/Src/stm32f4xx_hal_can.c ****                                     (hcan->State == HAL_CAN_STATE_BUSY_TX_RX0_RX1)))
 844:Drivers/STM32F4xx_HAL_Driver/Src/stm32f4xx_hal_can.c ****   {
 845:Drivers/STM32F4xx_HAL_Driver/Src/stm32f4xx_hal_can.c ****     return HAL_BUSY;
 846:Drivers/STM32F4xx_HAL_Driver/Src/stm32f4xx_hal_can.c ****   }
 847:Drivers/STM32F4xx_HAL_Driver/Src/stm32f4xx_hal_can.c **** 
 848:Drivers/STM32F4xx_HAL_Driver/Src/stm32f4xx_hal_can.c ****   /* Process locked */
 849:Drivers/STM32F4xx_HAL_Driver/Src/stm32f4xx_hal_can.c ****   __HAL_LOCK(hcan);
 1274              		.loc 1 849 0
 1275 003a 90F83D30 		ldrb	r3, [r0, #61]	@ zero_extendqisi2
 1276 003e 012B     		cmp	r3, #1
 1277 0040 00F02481 		beq	.L168
 1278              		.loc 1 849 0 is_stmt 0 discriminator 2
 1279 0044 0123     		movs	r3, #1
 1280 0046 80F83D30 		strb	r3, [r0, #61]
 850:Drivers/STM32F4xx_HAL_Driver/Src/stm32f4xx_hal_can.c **** 
 851:Drivers/STM32F4xx_HAL_Driver/Src/stm32f4xx_hal_can.c ****   /* Change CAN state */
 852:Drivers/STM32F4xx_HAL_Driver/Src/stm32f4xx_hal_can.c ****   if (FIFONumber == CAN_FIFO0)
 1281              		.loc 1 852 0 is_stmt 1 discriminator 2
 1282 004a B5BB     		cbnz	r5, .L128
 853:Drivers/STM32F4xx_HAL_Driver/Src/stm32f4xx_hal_can.c ****   {
 854:Drivers/STM32F4xx_HAL_Driver/Src/stm32f4xx_hal_can.c ****     switch(hcan->State)
 1283              		.loc 1 854 0
 1284 004c 90F83C30 		ldrb	r3, [r0, #60]	@ zero_extendqisi2
 1285 0050 DBB2     		uxtb	r3, r3
 1286 0052 322B     		cmp	r3, #50
ARM GAS  /var/folders/7p/1_dhylqx7nl5s8914_0f_4w00000gn/T//ccPpXWzH.s 			page 41


 1287 0054 29D0     		beq	.L130
 1288 0056 522B     		cmp	r3, #82
 1289 0058 2BD0     		beq	.L131
 1290 005a 122B     		cmp	r3, #18
 1291 005c 1CD0     		beq	.L175
 855:Drivers/STM32F4xx_HAL_Driver/Src/stm32f4xx_hal_can.c ****     {
 856:Drivers/STM32F4xx_HAL_Driver/Src/stm32f4xx_hal_can.c ****       case(HAL_CAN_STATE_BUSY_TX):
 857:Drivers/STM32F4xx_HAL_Driver/Src/stm32f4xx_hal_can.c ****         hcan->State = HAL_CAN_STATE_BUSY_TX_RX0;
 858:Drivers/STM32F4xx_HAL_Driver/Src/stm32f4xx_hal_can.c ****         break;
 859:Drivers/STM32F4xx_HAL_Driver/Src/stm32f4xx_hal_can.c ****       case(HAL_CAN_STATE_BUSY_RX1):
 860:Drivers/STM32F4xx_HAL_Driver/Src/stm32f4xx_hal_can.c ****         hcan->State = HAL_CAN_STATE_BUSY_RX0_RX1;
 861:Drivers/STM32F4xx_HAL_Driver/Src/stm32f4xx_hal_can.c ****         break;
 862:Drivers/STM32F4xx_HAL_Driver/Src/stm32f4xx_hal_can.c ****       case(HAL_CAN_STATE_BUSY_TX_RX1):
 863:Drivers/STM32F4xx_HAL_Driver/Src/stm32f4xx_hal_can.c ****         hcan->State = HAL_CAN_STATE_BUSY_TX_RX0_RX1;
 864:Drivers/STM32F4xx_HAL_Driver/Src/stm32f4xx_hal_can.c ****         break;
 865:Drivers/STM32F4xx_HAL_Driver/Src/stm32f4xx_hal_can.c ****       default: /* HAL_CAN_STATE_READY */
 866:Drivers/STM32F4xx_HAL_Driver/Src/stm32f4xx_hal_can.c ****         hcan->State = HAL_CAN_STATE_BUSY_RX0;
 1292              		.loc 1 866 0
 1293 005e 2223     		movs	r3, #34
 1294 0060 80F83C30 		strb	r3, [r0, #60]
 867:Drivers/STM32F4xx_HAL_Driver/Src/stm32f4xx_hal_can.c ****         break;
 1295              		.loc 1 867 0
 1296 0064 1BE0     		b	.L133
 1297              	.L174:
 840:Drivers/STM32F4xx_HAL_Driver/Src/stm32f4xx_hal_can.c ****                                     (hcan->State == HAL_CAN_STATE_BUSY_TX_RX1) ||      \
 1298              		.loc 1 840 0 discriminator 1
 1299 0066 90F83C30 		ldrb	r3, [r0, #60]	@ zero_extendqisi2
 1300 006a DBB2     		uxtb	r3, r3
 1301 006c 322B     		cmp	r3, #50
 1302 006e 00F00781 		beq	.L164
 841:Drivers/STM32F4xx_HAL_Driver/Src/stm32f4xx_hal_can.c ****                                     (hcan->State == HAL_CAN_STATE_BUSY_RX0_RX1) ||     \
 1303              		.loc 1 841 0 discriminator 2
 1304 0072 90F83C30 		ldrb	r3, [r0, #60]	@ zero_extendqisi2
 1305 0076 DBB2     		uxtb	r3, r3
 840:Drivers/STM32F4xx_HAL_Driver/Src/stm32f4xx_hal_can.c ****                                     (hcan->State == HAL_CAN_STATE_BUSY_TX_RX1) ||      \
 1306              		.loc 1 840 0 discriminator 2
 1307 0078 522B     		cmp	r3, #82
 1308 007a 00F00381 		beq	.L165
 842:Drivers/STM32F4xx_HAL_Driver/Src/stm32f4xx_hal_can.c ****                                     (hcan->State == HAL_CAN_STATE_BUSY_TX_RX0_RX1)))
 1309              		.loc 1 842 0
 1310 007e 90F83C30 		ldrb	r3, [r0, #60]	@ zero_extendqisi2
 1311 0082 DBB2     		uxtb	r3, r3
 841:Drivers/STM32F4xx_HAL_Driver/Src/stm32f4xx_hal_can.c ****                                     (hcan->State == HAL_CAN_STATE_BUSY_RX0_RX1) ||     \
 1312              		.loc 1 841 0
 1313 0084 622B     		cmp	r3, #98
 1314 0086 00F0FF80 		beq	.L166
 843:Drivers/STM32F4xx_HAL_Driver/Src/stm32f4xx_hal_can.c ****   {
 1315              		.loc 1 843 0
 1316 008a 90F83C30 		ldrb	r3, [r0, #60]	@ zero_extendqisi2
 1317 008e DBB2     		uxtb	r3, r3
 842:Drivers/STM32F4xx_HAL_Driver/Src/stm32f4xx_hal_can.c ****                                     (hcan->State == HAL_CAN_STATE_BUSY_TX_RX0_RX1)))
 1318              		.loc 1 842 0
 1319 0090 722B     		cmp	r3, #114
 1320 0092 D2D1     		bne	.L127
 845:Drivers/STM32F4xx_HAL_Driver/Src/stm32f4xx_hal_can.c ****   }
 1321              		.loc 1 845 0
 1322 0094 0220     		movs	r0, #2
ARM GAS  /var/folders/7p/1_dhylqx7nl5s8914_0f_4w00000gn/T//ccPpXWzH.s 			page 42


 1323              	.LVL64:
 1324 0096 F8BD     		pop	{r3, r4, r5, r6, r7, pc}
 1325              	.LVL65:
 1326              	.L175:
 857:Drivers/STM32F4xx_HAL_Driver/Src/stm32f4xx_hal_can.c ****         break;
 1327              		.loc 1 857 0
 1328 0098 4223     		movs	r3, #66
 1329 009a 80F83C30 		strb	r3, [r0, #60]
 1330              	.L133:
 1331 009e 1646     		mov	r6, r2
 1332 00a0 0446     		mov	r4, r0
 868:Drivers/STM32F4xx_HAL_Driver/Src/stm32f4xx_hal_can.c ****     }
 869:Drivers/STM32F4xx_HAL_Driver/Src/stm32f4xx_hal_can.c ****   }
 870:Drivers/STM32F4xx_HAL_Driver/Src/stm32f4xx_hal_can.c ****   else /* FIFONumber == CAN_FIFO1 */
 871:Drivers/STM32F4xx_HAL_Driver/Src/stm32f4xx_hal_can.c ****   {
 872:Drivers/STM32F4xx_HAL_Driver/Src/stm32f4xx_hal_can.c ****     switch(hcan->State)
 873:Drivers/STM32F4xx_HAL_Driver/Src/stm32f4xx_hal_can.c ****     {
 874:Drivers/STM32F4xx_HAL_Driver/Src/stm32f4xx_hal_can.c ****       case(HAL_CAN_STATE_BUSY_TX):
 875:Drivers/STM32F4xx_HAL_Driver/Src/stm32f4xx_hal_can.c ****         hcan->State = HAL_CAN_STATE_BUSY_TX_RX1;
 876:Drivers/STM32F4xx_HAL_Driver/Src/stm32f4xx_hal_can.c ****         break;
 877:Drivers/STM32F4xx_HAL_Driver/Src/stm32f4xx_hal_can.c ****       case(HAL_CAN_STATE_BUSY_RX0):
 878:Drivers/STM32F4xx_HAL_Driver/Src/stm32f4xx_hal_can.c ****         hcan->State = HAL_CAN_STATE_BUSY_RX0_RX1;
 879:Drivers/STM32F4xx_HAL_Driver/Src/stm32f4xx_hal_can.c ****         break;
 880:Drivers/STM32F4xx_HAL_Driver/Src/stm32f4xx_hal_can.c ****       case(HAL_CAN_STATE_BUSY_TX_RX0):
 881:Drivers/STM32F4xx_HAL_Driver/Src/stm32f4xx_hal_can.c ****         hcan->State = HAL_CAN_STATE_BUSY_TX_RX0_RX1;
 882:Drivers/STM32F4xx_HAL_Driver/Src/stm32f4xx_hal_can.c ****         break;
 883:Drivers/STM32F4xx_HAL_Driver/Src/stm32f4xx_hal_can.c ****       default: /* HAL_CAN_STATE_READY */
 884:Drivers/STM32F4xx_HAL_Driver/Src/stm32f4xx_hal_can.c ****         hcan->State = HAL_CAN_STATE_BUSY_RX1;
 885:Drivers/STM32F4xx_HAL_Driver/Src/stm32f4xx_hal_can.c ****         break;
 886:Drivers/STM32F4xx_HAL_Driver/Src/stm32f4xx_hal_can.c ****     }
 887:Drivers/STM32F4xx_HAL_Driver/Src/stm32f4xx_hal_can.c ****   }
 888:Drivers/STM32F4xx_HAL_Driver/Src/stm32f4xx_hal_can.c **** 
 889:Drivers/STM32F4xx_HAL_Driver/Src/stm32f4xx_hal_can.c ****   /* Get tick */ 
 890:Drivers/STM32F4xx_HAL_Driver/Src/stm32f4xx_hal_can.c ****   tickstart = HAL_GetTick();
 1333              		.loc 1 890 0
 1334 00a2 FFF7FEFF 		bl	HAL_GetTick
 1335              	.LVL66:
 1336 00a6 0746     		mov	r7, r0
 1337              	.LVL67:
 891:Drivers/STM32F4xx_HAL_Driver/Src/stm32f4xx_hal_can.c ****   
 892:Drivers/STM32F4xx_HAL_Driver/Src/stm32f4xx_hal_can.c ****   /* Check pending message */
 893:Drivers/STM32F4xx_HAL_Driver/Src/stm32f4xx_hal_can.c ****   while(__HAL_CAN_MSG_PENDING(hcan, FIFONumber) == 0U)
 1338              		.loc 1 893 0
 1339 00a8 38E0     		b	.L139
 1340              	.LVL68:
 1341              	.L130:
 860:Drivers/STM32F4xx_HAL_Driver/Src/stm32f4xx_hal_can.c ****         break;
 1342              		.loc 1 860 0
 1343 00aa 6223     		movs	r3, #98
 1344 00ac 80F83C30 		strb	r3, [r0, #60]
 861:Drivers/STM32F4xx_HAL_Driver/Src/stm32f4xx_hal_can.c ****       case(HAL_CAN_STATE_BUSY_TX_RX1):
 1345              		.loc 1 861 0
 1346 00b0 F5E7     		b	.L133
 1347              	.L131:
 863:Drivers/STM32F4xx_HAL_Driver/Src/stm32f4xx_hal_can.c ****         break;
 1348              		.loc 1 863 0
 1349 00b2 7223     		movs	r3, #114
ARM GAS  /var/folders/7p/1_dhylqx7nl5s8914_0f_4w00000gn/T//ccPpXWzH.s 			page 43


 1350 00b4 80F83C30 		strb	r3, [r0, #60]
 864:Drivers/STM32F4xx_HAL_Driver/Src/stm32f4xx_hal_can.c ****       default: /* HAL_CAN_STATE_READY */
 1351              		.loc 1 864 0
 1352 00b8 F1E7     		b	.L133
 1353              	.L128:
 872:Drivers/STM32F4xx_HAL_Driver/Src/stm32f4xx_hal_can.c ****     {
 1354              		.loc 1 872 0
 1355 00ba 90F83C30 		ldrb	r3, [r0, #60]	@ zero_extendqisi2
 1356 00be DBB2     		uxtb	r3, r3
 1357 00c0 222B     		cmp	r3, #34
 1358 00c2 0BD0     		beq	.L135
 1359 00c4 422B     		cmp	r3, #66
 1360 00c6 0DD0     		beq	.L136
 1361 00c8 122B     		cmp	r3, #18
 1362 00ca 03D0     		beq	.L176
 884:Drivers/STM32F4xx_HAL_Driver/Src/stm32f4xx_hal_can.c ****         break;
 1363              		.loc 1 884 0
 1364 00cc 3223     		movs	r3, #50
 1365 00ce 80F83C30 		strb	r3, [r0, #60]
 885:Drivers/STM32F4xx_HAL_Driver/Src/stm32f4xx_hal_can.c ****     }
 1366              		.loc 1 885 0
 1367 00d2 E4E7     		b	.L133
 1368              	.L176:
 875:Drivers/STM32F4xx_HAL_Driver/Src/stm32f4xx_hal_can.c ****         break;
 1369              		.loc 1 875 0
 1370 00d4 5223     		movs	r3, #82
 1371 00d6 80F83C30 		strb	r3, [r0, #60]
 876:Drivers/STM32F4xx_HAL_Driver/Src/stm32f4xx_hal_can.c ****       case(HAL_CAN_STATE_BUSY_RX0):
 1372              		.loc 1 876 0
 1373 00da E0E7     		b	.L133
 1374              	.L135:
 878:Drivers/STM32F4xx_HAL_Driver/Src/stm32f4xx_hal_can.c ****         break;
 1375              		.loc 1 878 0
 1376 00dc 6223     		movs	r3, #98
 1377 00de 80F83C30 		strb	r3, [r0, #60]
 879:Drivers/STM32F4xx_HAL_Driver/Src/stm32f4xx_hal_can.c ****       case(HAL_CAN_STATE_BUSY_TX_RX0):
 1378              		.loc 1 879 0
 1379 00e2 DCE7     		b	.L133
 1380              	.L136:
 881:Drivers/STM32F4xx_HAL_Driver/Src/stm32f4xx_hal_can.c ****         break;
 1381              		.loc 1 881 0
 1382 00e4 7223     		movs	r3, #114
 1383 00e6 80F83C30 		strb	r3, [r0, #60]
 882:Drivers/STM32F4xx_HAL_Driver/Src/stm32f4xx_hal_can.c ****       default: /* HAL_CAN_STATE_READY */
 1384              		.loc 1 882 0
 1385 00ea D8E7     		b	.L133
 1386              	.LVL69:
 1387              	.L178:
 894:Drivers/STM32F4xx_HAL_Driver/Src/stm32f4xx_hal_can.c ****   {
 895:Drivers/STM32F4xx_HAL_Driver/Src/stm32f4xx_hal_can.c ****     /* Check for the Timeout */
 896:Drivers/STM32F4xx_HAL_Driver/Src/stm32f4xx_hal_can.c ****     if(Timeout != HAL_MAX_DELAY)
 897:Drivers/STM32F4xx_HAL_Driver/Src/stm32f4xx_hal_can.c ****     {
 898:Drivers/STM32F4xx_HAL_Driver/Src/stm32f4xx_hal_can.c ****       if((Timeout == 0U)||((HAL_GetTick() - tickstart ) > Timeout))
 1388              		.loc 1 898 0
 1389 00ec 26B1     		cbz	r6, .L140
 1390              		.loc 1 898 0 is_stmt 0 discriminator 1
 1391 00ee FFF7FEFF 		bl	HAL_GetTick
ARM GAS  /var/folders/7p/1_dhylqx7nl5s8914_0f_4w00000gn/T//ccPpXWzH.s 			page 44


 1392              	.LVL70:
 1393 00f2 C01B     		subs	r0, r0, r7
 1394 00f4 8642     		cmp	r6, r0
 1395 00f6 11D2     		bcs	.L139
 1396              	.L140:
 899:Drivers/STM32F4xx_HAL_Driver/Src/stm32f4xx_hal_can.c ****       {
 900:Drivers/STM32F4xx_HAL_Driver/Src/stm32f4xx_hal_can.c ****         hcan->State = HAL_CAN_STATE_TIMEOUT;
 1397              		.loc 1 900 0 is_stmt 1
 1398 00f8 0320     		movs	r0, #3
 1399 00fa 84F83C00 		strb	r0, [r4, #60]
 901:Drivers/STM32F4xx_HAL_Driver/Src/stm32f4xx_hal_can.c ****         /* Process unlocked */
 902:Drivers/STM32F4xx_HAL_Driver/Src/stm32f4xx_hal_can.c ****         __HAL_UNLOCK(hcan);
 1400              		.loc 1 902 0
 1401 00fe 0023     		movs	r3, #0
 1402 0100 84F83D30 		strb	r3, [r4, #61]
 903:Drivers/STM32F4xx_HAL_Driver/Src/stm32f4xx_hal_can.c ****         return HAL_TIMEOUT;
 1403              		.loc 1 903 0
 1404 0104 F8BD     		pop	{r3, r4, r5, r6, r7, pc}
 1405              	.LVL71:
 1406              	.L141:
 893:Drivers/STM32F4xx_HAL_Driver/Src/stm32f4xx_hal_can.c ****   {
 1407              		.loc 1 893 0 discriminator 2
 1408 0106 2368     		ldr	r3, [r4]
 1409 0108 1B69     		ldr	r3, [r3, #16]
 1410 010a 13F0030F 		tst	r3, #3
 1411 010e 0CBF     		ite	eq
 1412 0110 0123     		moveq	r3, #1
 1413 0112 0023     		movne	r3, #0
 1414              	.L142:
 893:Drivers/STM32F4xx_HAL_Driver/Src/stm32f4xx_hal_can.c ****   {
 1415              		.loc 1 893 0 is_stmt 0 discriminator 4
 1416 0114 63B1     		cbz	r3, .L177
 896:Drivers/STM32F4xx_HAL_Driver/Src/stm32f4xx_hal_can.c ****     {
 1417              		.loc 1 896 0 is_stmt 1
 1418 0116 B6F1FF3F 		cmp	r6, #-1
 1419 011a E7D1     		bne	.L178
 1420              	.L139:
 893:Drivers/STM32F4xx_HAL_Driver/Src/stm32f4xx_hal_can.c ****   {
 1421              		.loc 1 893 0
 1422 011c 002D     		cmp	r5, #0
 1423 011e F2D1     		bne	.L141
 893:Drivers/STM32F4xx_HAL_Driver/Src/stm32f4xx_hal_can.c ****   {
 1424              		.loc 1 893 0 is_stmt 0 discriminator 1
 1425 0120 2368     		ldr	r3, [r4]
 1426 0122 DB68     		ldr	r3, [r3, #12]
 1427 0124 13F0030F 		tst	r3, #3
 1428 0128 0CBF     		ite	eq
 1429 012a 0123     		moveq	r3, #1
 1430 012c 0023     		movne	r3, #0
 1431 012e F1E7     		b	.L142
 1432              	.L177:
 904:Drivers/STM32F4xx_HAL_Driver/Src/stm32f4xx_hal_can.c ****       }
 905:Drivers/STM32F4xx_HAL_Driver/Src/stm32f4xx_hal_can.c ****     }
 906:Drivers/STM32F4xx_HAL_Driver/Src/stm32f4xx_hal_can.c ****   }
 907:Drivers/STM32F4xx_HAL_Driver/Src/stm32f4xx_hal_can.c **** 
 908:Drivers/STM32F4xx_HAL_Driver/Src/stm32f4xx_hal_can.c ****   /* Set RxMsg pointer */
 909:Drivers/STM32F4xx_HAL_Driver/Src/stm32f4xx_hal_can.c ****   if(FIFONumber == CAN_FIFO0)
ARM GAS  /var/folders/7p/1_dhylqx7nl5s8914_0f_4w00000gn/T//ccPpXWzH.s 			page 45


 1433              		.loc 1 909 0 is_stmt 1
 1434 0130 002D     		cmp	r5, #0
 1435 0132 67D1     		bne	.L144
 910:Drivers/STM32F4xx_HAL_Driver/Src/stm32f4xx_hal_can.c ****   {
 911:Drivers/STM32F4xx_HAL_Driver/Src/stm32f4xx_hal_can.c ****     pRxMsg = hcan->pRxMsg;
 1436              		.loc 1 911 0
 1437 0134 636B     		ldr	r3, [r4, #52]
 1438              	.LVL72:
 1439              	.L145:
 912:Drivers/STM32F4xx_HAL_Driver/Src/stm32f4xx_hal_can.c ****   }
 913:Drivers/STM32F4xx_HAL_Driver/Src/stm32f4xx_hal_can.c ****   else /* FIFONumber == CAN_FIFO1 */
 914:Drivers/STM32F4xx_HAL_Driver/Src/stm32f4xx_hal_can.c ****   {
 915:Drivers/STM32F4xx_HAL_Driver/Src/stm32f4xx_hal_can.c ****     pRxMsg = hcan->pRx1Msg;
 916:Drivers/STM32F4xx_HAL_Driver/Src/stm32f4xx_hal_can.c ****   }
 917:Drivers/STM32F4xx_HAL_Driver/Src/stm32f4xx_hal_can.c **** 
 918:Drivers/STM32F4xx_HAL_Driver/Src/stm32f4xx_hal_can.c ****   /* Get the Id */
 919:Drivers/STM32F4xx_HAL_Driver/Src/stm32f4xx_hal_can.c ****   pRxMsg->IDE = (uint8_t)0x04 & hcan->Instance->sFIFOMailBox[FIFONumber].RIR;
 1440              		.loc 1 919 0
 1441 0136 2168     		ldr	r1, [r4]
 1442 0138 05F11B02 		add	r2, r5, #27
 1443 013c 1201     		lsls	r2, r2, #4
 1444 013e 8A58     		ldr	r2, [r1, r2]
 1445 0140 02F00402 		and	r2, r2, #4
 1446 0144 9A60     		str	r2, [r3, #8]
 920:Drivers/STM32F4xx_HAL_Driver/Src/stm32f4xx_hal_can.c ****   if (pRxMsg->IDE == CAN_ID_STD)
 1447              		.loc 1 920 0
 1448 0146 002A     		cmp	r2, #0
 1449 0148 5ED1     		bne	.L146
 921:Drivers/STM32F4xx_HAL_Driver/Src/stm32f4xx_hal_can.c ****   {
 922:Drivers/STM32F4xx_HAL_Driver/Src/stm32f4xx_hal_can.c ****     pRxMsg->StdId = 0x000007FFU & (hcan->Instance->sFIFOMailBox[FIFONumber].RIR >> 21U);
 1450              		.loc 1 922 0
 1451 014a 2168     		ldr	r1, [r4]
 1452 014c 05F11B02 		add	r2, r5, #27
 1453 0150 1201     		lsls	r2, r2, #4
 1454 0152 8A58     		ldr	r2, [r1, r2]
 1455 0154 520D     		lsrs	r2, r2, #21
 1456 0156 1A60     		str	r2, [r3]
 1457              	.L147:
 923:Drivers/STM32F4xx_HAL_Driver/Src/stm32f4xx_hal_can.c ****   }
 924:Drivers/STM32F4xx_HAL_Driver/Src/stm32f4xx_hal_can.c ****   else
 925:Drivers/STM32F4xx_HAL_Driver/Src/stm32f4xx_hal_can.c ****   {
 926:Drivers/STM32F4xx_HAL_Driver/Src/stm32f4xx_hal_can.c ****     pRxMsg->ExtId = 0x1FFFFFFFU & (hcan->Instance->sFIFOMailBox[FIFONumber].RIR >> 3U);
 927:Drivers/STM32F4xx_HAL_Driver/Src/stm32f4xx_hal_can.c ****   }
 928:Drivers/STM32F4xx_HAL_Driver/Src/stm32f4xx_hal_can.c ****   
 929:Drivers/STM32F4xx_HAL_Driver/Src/stm32f4xx_hal_can.c ****   pRxMsg->RTR = (uint8_t)0x02 & hcan->Instance->sFIFOMailBox[FIFONumber].RIR;
 1458              		.loc 1 929 0
 1459 0158 2168     		ldr	r1, [r4]
 1460 015a 05F11B02 		add	r2, r5, #27
 1461 015e 1201     		lsls	r2, r2, #4
 1462 0160 8958     		ldr	r1, [r1, r2]
 1463 0162 01F00201 		and	r1, r1, #2
 1464 0166 D960     		str	r1, [r3, #12]
 930:Drivers/STM32F4xx_HAL_Driver/Src/stm32f4xx_hal_can.c ****   /* Get the DLC */
 931:Drivers/STM32F4xx_HAL_Driver/Src/stm32f4xx_hal_can.c ****   pRxMsg->DLC = (uint8_t)0x0F & hcan->Instance->sFIFOMailBox[FIFONumber].RDTR;
 1465              		.loc 1 931 0
 1466 0168 2168     		ldr	r1, [r4]
 1467 016a 1144     		add	r1, r1, r2
ARM GAS  /var/folders/7p/1_dhylqx7nl5s8914_0f_4w00000gn/T//ccPpXWzH.s 			page 46


 1468 016c 4968     		ldr	r1, [r1, #4]
 1469 016e 01F00F01 		and	r1, r1, #15
 1470 0172 1961     		str	r1, [r3, #16]
 932:Drivers/STM32F4xx_HAL_Driver/Src/stm32f4xx_hal_can.c ****   /* Get the FMI */
 933:Drivers/STM32F4xx_HAL_Driver/Src/stm32f4xx_hal_can.c ****   pRxMsg->FMI = (uint8_t)0xFF & (hcan->Instance->sFIFOMailBox[FIFONumber].RDTR >> 8U);
 1471              		.loc 1 933 0
 1472 0174 2168     		ldr	r1, [r4]
 1473 0176 0A44     		add	r2, r2, r1
 1474 0178 5268     		ldr	r2, [r2, #4]
 1475 017a C2F30722 		ubfx	r2, r2, #8, #8
 1476 017e DA61     		str	r2, [r3, #28]
 934:Drivers/STM32F4xx_HAL_Driver/Src/stm32f4xx_hal_can.c ****   /* Get the FIFONumber */
 935:Drivers/STM32F4xx_HAL_Driver/Src/stm32f4xx_hal_can.c ****   pRxMsg->FIFONumber = FIFONumber;
 1477              		.loc 1 935 0
 1478 0180 1D62     		str	r5, [r3, #32]
 936:Drivers/STM32F4xx_HAL_Driver/Src/stm32f4xx_hal_can.c ****   /* Get the data field */
 937:Drivers/STM32F4xx_HAL_Driver/Src/stm32f4xx_hal_can.c ****   pRxMsg->Data[0] = (uint8_t)0xFF & hcan->Instance->sFIFOMailBox[FIFONumber].RDLR;
 1479              		.loc 1 937 0
 1480 0182 2168     		ldr	r1, [r4]
 1481 0184 2A01     		lsls	r2, r5, #4
 1482 0186 1144     		add	r1, r1, r2
 1483 0188 D1F8B811 		ldr	r1, [r1, #440]
 1484 018c 1975     		strb	r1, [r3, #20]
 938:Drivers/STM32F4xx_HAL_Driver/Src/stm32f4xx_hal_can.c ****   pRxMsg->Data[1] = (uint8_t)0xFF & (hcan->Instance->sFIFOMailBox[FIFONumber].RDLR >> 8U);
 1485              		.loc 1 938 0
 1486 018e 2168     		ldr	r1, [r4]
 1487 0190 1144     		add	r1, r1, r2
 1488 0192 D1F8B811 		ldr	r1, [r1, #440]
 1489 0196 090A     		lsrs	r1, r1, #8
 1490 0198 5975     		strb	r1, [r3, #21]
 939:Drivers/STM32F4xx_HAL_Driver/Src/stm32f4xx_hal_can.c ****   pRxMsg->Data[2] = (uint8_t)0xFF & (hcan->Instance->sFIFOMailBox[FIFONumber].RDLR >> 16U);
 1491              		.loc 1 939 0
 1492 019a 2168     		ldr	r1, [r4]
 1493 019c 1144     		add	r1, r1, r2
 1494 019e D1F8B811 		ldr	r1, [r1, #440]
 1495 01a2 090C     		lsrs	r1, r1, #16
 1496 01a4 9975     		strb	r1, [r3, #22]
 940:Drivers/STM32F4xx_HAL_Driver/Src/stm32f4xx_hal_can.c ****   pRxMsg->Data[3] = (uint8_t)0xFF & (hcan->Instance->sFIFOMailBox[FIFONumber].RDLR >> 24U);
 1497              		.loc 1 940 0
 1498 01a6 2168     		ldr	r1, [r4]
 1499 01a8 1144     		add	r1, r1, r2
 1500 01aa D1F8B811 		ldr	r1, [r1, #440]
 1501 01ae 090E     		lsrs	r1, r1, #24
 1502 01b0 D975     		strb	r1, [r3, #23]
 941:Drivers/STM32F4xx_HAL_Driver/Src/stm32f4xx_hal_can.c ****   pRxMsg->Data[4] = (uint8_t)0xFF & hcan->Instance->sFIFOMailBox[FIFONumber].RDHR;
 1503              		.loc 1 941 0
 1504 01b2 2168     		ldr	r1, [r4]
 1505 01b4 1144     		add	r1, r1, r2
 1506 01b6 D1F8BC11 		ldr	r1, [r1, #444]
 1507 01ba 1976     		strb	r1, [r3, #24]
 942:Drivers/STM32F4xx_HAL_Driver/Src/stm32f4xx_hal_can.c ****   pRxMsg->Data[5] = (uint8_t)0xFF & (hcan->Instance->sFIFOMailBox[FIFONumber].RDHR >> 8U);
 1508              		.loc 1 942 0
 1509 01bc 2168     		ldr	r1, [r4]
 1510 01be 1144     		add	r1, r1, r2
 1511 01c0 D1F8BC11 		ldr	r1, [r1, #444]
 1512 01c4 090A     		lsrs	r1, r1, #8
 1513 01c6 5976     		strb	r1, [r3, #25]
ARM GAS  /var/folders/7p/1_dhylqx7nl5s8914_0f_4w00000gn/T//ccPpXWzH.s 			page 47


 943:Drivers/STM32F4xx_HAL_Driver/Src/stm32f4xx_hal_can.c ****   pRxMsg->Data[6] = (uint8_t)0xFF & (hcan->Instance->sFIFOMailBox[FIFONumber].RDHR >> 16U);
 1514              		.loc 1 943 0
 1515 01c8 2168     		ldr	r1, [r4]
 1516 01ca 1144     		add	r1, r1, r2
 1517 01cc D1F8BC11 		ldr	r1, [r1, #444]
 1518 01d0 090C     		lsrs	r1, r1, #16
 1519 01d2 9976     		strb	r1, [r3, #26]
 944:Drivers/STM32F4xx_HAL_Driver/Src/stm32f4xx_hal_can.c ****   pRxMsg->Data[7] = (uint8_t)0xFF & (hcan->Instance->sFIFOMailBox[FIFONumber].RDHR >> 24U);
 1520              		.loc 1 944 0
 1521 01d4 2168     		ldr	r1, [r4]
 1522 01d6 0A44     		add	r2, r2, r1
 1523 01d8 D2F8BC21 		ldr	r2, [r2, #444]
 1524 01dc 120E     		lsrs	r2, r2, #24
 1525 01de DA76     		strb	r2, [r3, #27]
 945:Drivers/STM32F4xx_HAL_Driver/Src/stm32f4xx_hal_can.c **** 
 946:Drivers/STM32F4xx_HAL_Driver/Src/stm32f4xx_hal_can.c ****   /* Release the FIFO */
 947:Drivers/STM32F4xx_HAL_Driver/Src/stm32f4xx_hal_can.c ****   if(FIFONumber == CAN_FIFO0)
 1526              		.loc 1 947 0
 1527 01e0 D5B9     		cbnz	r5, .L148
 948:Drivers/STM32F4xx_HAL_Driver/Src/stm32f4xx_hal_can.c ****   {
 949:Drivers/STM32F4xx_HAL_Driver/Src/stm32f4xx_hal_can.c ****     /* Release FIFO0 */
 950:Drivers/STM32F4xx_HAL_Driver/Src/stm32f4xx_hal_can.c ****     __HAL_CAN_FIFO_RELEASE(hcan, CAN_FIFO0);
 1528              		.loc 1 950 0
 1529 01e2 2368     		ldr	r3, [r4]
 1530              	.LVL73:
 1531 01e4 2022     		movs	r2, #32
 1532 01e6 DA60     		str	r2, [r3, #12]
 1533              	.L149:
 951:Drivers/STM32F4xx_HAL_Driver/Src/stm32f4xx_hal_can.c ****   }
 952:Drivers/STM32F4xx_HAL_Driver/Src/stm32f4xx_hal_can.c ****   else /* FIFONumber == CAN_FIFO1 */
 953:Drivers/STM32F4xx_HAL_Driver/Src/stm32f4xx_hal_can.c ****   {
 954:Drivers/STM32F4xx_HAL_Driver/Src/stm32f4xx_hal_can.c ****     /* Release FIFO1 */
 955:Drivers/STM32F4xx_HAL_Driver/Src/stm32f4xx_hal_can.c ****     __HAL_CAN_FIFO_RELEASE(hcan, CAN_FIFO1);
 956:Drivers/STM32F4xx_HAL_Driver/Src/stm32f4xx_hal_can.c ****   }
 957:Drivers/STM32F4xx_HAL_Driver/Src/stm32f4xx_hal_can.c **** 
 958:Drivers/STM32F4xx_HAL_Driver/Src/stm32f4xx_hal_can.c ****   /* Change CAN state */
 959:Drivers/STM32F4xx_HAL_Driver/Src/stm32f4xx_hal_can.c ****   if (FIFONumber == CAN_FIFO0)
 1534              		.loc 1 959 0
 1535 01e8 4DBB     		cbnz	r5, .L150
 960:Drivers/STM32F4xx_HAL_Driver/Src/stm32f4xx_hal_can.c ****   {
 961:Drivers/STM32F4xx_HAL_Driver/Src/stm32f4xx_hal_can.c ****     switch(hcan->State)
 1536              		.loc 1 961 0
 1537 01ea 94F83C30 		ldrb	r3, [r4, #60]	@ zero_extendqisi2
 1538 01ee DBB2     		uxtb	r3, r3
 1539 01f0 622B     		cmp	r3, #98
 1540 01f2 1CD0     		beq	.L152
 1541 01f4 722B     		cmp	r3, #114
 1542 01f6 1ED0     		beq	.L153
 1543 01f8 422B     		cmp	r3, #66
 1544 01fa 11D0     		beq	.L179
 962:Drivers/STM32F4xx_HAL_Driver/Src/stm32f4xx_hal_can.c ****     {
 963:Drivers/STM32F4xx_HAL_Driver/Src/stm32f4xx_hal_can.c ****       case(HAL_CAN_STATE_BUSY_TX_RX0):
 964:Drivers/STM32F4xx_HAL_Driver/Src/stm32f4xx_hal_can.c ****         hcan->State = HAL_CAN_STATE_BUSY_TX;
 965:Drivers/STM32F4xx_HAL_Driver/Src/stm32f4xx_hal_can.c ****         break;
 966:Drivers/STM32F4xx_HAL_Driver/Src/stm32f4xx_hal_can.c ****       case(HAL_CAN_STATE_BUSY_RX0_RX1):
 967:Drivers/STM32F4xx_HAL_Driver/Src/stm32f4xx_hal_can.c ****         hcan->State = HAL_CAN_STATE_BUSY_RX1;
 968:Drivers/STM32F4xx_HAL_Driver/Src/stm32f4xx_hal_can.c ****         break;
ARM GAS  /var/folders/7p/1_dhylqx7nl5s8914_0f_4w00000gn/T//ccPpXWzH.s 			page 48


 969:Drivers/STM32F4xx_HAL_Driver/Src/stm32f4xx_hal_can.c ****       case(HAL_CAN_STATE_BUSY_TX_RX0_RX1):
 970:Drivers/STM32F4xx_HAL_Driver/Src/stm32f4xx_hal_can.c ****         hcan->State = HAL_CAN_STATE_BUSY_TX_RX1;
 971:Drivers/STM32F4xx_HAL_Driver/Src/stm32f4xx_hal_can.c ****         break;
 972:Drivers/STM32F4xx_HAL_Driver/Src/stm32f4xx_hal_can.c ****       default: /* HAL_CAN_STATE_BUSY_RX0 */
 973:Drivers/STM32F4xx_HAL_Driver/Src/stm32f4xx_hal_can.c ****         hcan->State = HAL_CAN_STATE_READY;
 1545              		.loc 1 973 0
 1546 01fc 0123     		movs	r3, #1
 1547 01fe 84F83C30 		strb	r3, [r4, #60]
 974:Drivers/STM32F4xx_HAL_Driver/Src/stm32f4xx_hal_can.c ****         break;
 1548              		.loc 1 974 0
 1549 0202 10E0     		b	.L155
 1550              	.LVL74:
 1551              	.L144:
 915:Drivers/STM32F4xx_HAL_Driver/Src/stm32f4xx_hal_can.c ****   }
 1552              		.loc 1 915 0
 1553 0204 A36B     		ldr	r3, [r4, #56]
 1554              	.LVL75:
 1555 0206 96E7     		b	.L145
 1556              	.L146:
 926:Drivers/STM32F4xx_HAL_Driver/Src/stm32f4xx_hal_can.c ****   }
 1557              		.loc 1 926 0
 1558 0208 2168     		ldr	r1, [r4]
 1559 020a 05F11B02 		add	r2, r5, #27
 1560 020e 1201     		lsls	r2, r2, #4
 1561 0210 8A58     		ldr	r2, [r1, r2]
 1562 0212 D208     		lsrs	r2, r2, #3
 1563 0214 5A60     		str	r2, [r3, #4]
 1564 0216 9FE7     		b	.L147
 1565              	.L148:
 955:Drivers/STM32F4xx_HAL_Driver/Src/stm32f4xx_hal_can.c ****   }
 1566              		.loc 1 955 0
 1567 0218 2368     		ldr	r3, [r4]
 1568              	.LVL76:
 1569 021a 2022     		movs	r2, #32
 1570 021c 1A61     		str	r2, [r3, #16]
 1571 021e E3E7     		b	.L149
 1572              	.L179:
 964:Drivers/STM32F4xx_HAL_Driver/Src/stm32f4xx_hal_can.c ****         break;
 1573              		.loc 1 964 0
 1574 0220 1223     		movs	r3, #18
 1575 0222 84F83C30 		strb	r3, [r4, #60]
 1576              	.L155:
 975:Drivers/STM32F4xx_HAL_Driver/Src/stm32f4xx_hal_can.c ****     }
 976:Drivers/STM32F4xx_HAL_Driver/Src/stm32f4xx_hal_can.c ****   }
 977:Drivers/STM32F4xx_HAL_Driver/Src/stm32f4xx_hal_can.c ****   else /* FIFONumber == CAN_FIFO1 */
 978:Drivers/STM32F4xx_HAL_Driver/Src/stm32f4xx_hal_can.c ****   {
 979:Drivers/STM32F4xx_HAL_Driver/Src/stm32f4xx_hal_can.c ****     switch(hcan->State)
 980:Drivers/STM32F4xx_HAL_Driver/Src/stm32f4xx_hal_can.c ****     {
 981:Drivers/STM32F4xx_HAL_Driver/Src/stm32f4xx_hal_can.c ****       case(HAL_CAN_STATE_BUSY_TX_RX1):
 982:Drivers/STM32F4xx_HAL_Driver/Src/stm32f4xx_hal_can.c ****         hcan->State = HAL_CAN_STATE_BUSY_TX;
 983:Drivers/STM32F4xx_HAL_Driver/Src/stm32f4xx_hal_can.c ****         break;
 984:Drivers/STM32F4xx_HAL_Driver/Src/stm32f4xx_hal_can.c ****       case(HAL_CAN_STATE_BUSY_RX0_RX1):
 985:Drivers/STM32F4xx_HAL_Driver/Src/stm32f4xx_hal_can.c ****         hcan->State = HAL_CAN_STATE_BUSY_RX0;
 986:Drivers/STM32F4xx_HAL_Driver/Src/stm32f4xx_hal_can.c ****         break;
 987:Drivers/STM32F4xx_HAL_Driver/Src/stm32f4xx_hal_can.c ****       case(HAL_CAN_STATE_BUSY_TX_RX0_RX1):
 988:Drivers/STM32F4xx_HAL_Driver/Src/stm32f4xx_hal_can.c ****         hcan->State = HAL_CAN_STATE_BUSY_TX_RX0;
 989:Drivers/STM32F4xx_HAL_Driver/Src/stm32f4xx_hal_can.c ****         break;
ARM GAS  /var/folders/7p/1_dhylqx7nl5s8914_0f_4w00000gn/T//ccPpXWzH.s 			page 49


 990:Drivers/STM32F4xx_HAL_Driver/Src/stm32f4xx_hal_can.c ****       default: /* HAL_CAN_STATE_BUSY_RX1 */
 991:Drivers/STM32F4xx_HAL_Driver/Src/stm32f4xx_hal_can.c ****         hcan->State = HAL_CAN_STATE_READY;
 992:Drivers/STM32F4xx_HAL_Driver/Src/stm32f4xx_hal_can.c ****         break;
 993:Drivers/STM32F4xx_HAL_Driver/Src/stm32f4xx_hal_can.c ****     }
 994:Drivers/STM32F4xx_HAL_Driver/Src/stm32f4xx_hal_can.c ****   }
 995:Drivers/STM32F4xx_HAL_Driver/Src/stm32f4xx_hal_can.c **** 
 996:Drivers/STM32F4xx_HAL_Driver/Src/stm32f4xx_hal_can.c ****   /* Process unlocked */
 997:Drivers/STM32F4xx_HAL_Driver/Src/stm32f4xx_hal_can.c ****   __HAL_UNLOCK(hcan);
 1577              		.loc 1 997 0
 1578 0226 0020     		movs	r0, #0
 1579 0228 84F83D00 		strb	r0, [r4, #61]
 998:Drivers/STM32F4xx_HAL_Driver/Src/stm32f4xx_hal_can.c ****   
 999:Drivers/STM32F4xx_HAL_Driver/Src/stm32f4xx_hal_can.c ****   /* Return function status */
1000:Drivers/STM32F4xx_HAL_Driver/Src/stm32f4xx_hal_can.c ****   return HAL_OK;
 1580              		.loc 1 1000 0
 1581 022c F8BD     		pop	{r3, r4, r5, r6, r7, pc}
 1582              	.LVL77:
 1583              	.L152:
 967:Drivers/STM32F4xx_HAL_Driver/Src/stm32f4xx_hal_can.c ****         break;
 1584              		.loc 1 967 0
 1585 022e 3223     		movs	r3, #50
 1586 0230 84F83C30 		strb	r3, [r4, #60]
 968:Drivers/STM32F4xx_HAL_Driver/Src/stm32f4xx_hal_can.c ****       case(HAL_CAN_STATE_BUSY_TX_RX0_RX1):
 1587              		.loc 1 968 0
 1588 0234 F7E7     		b	.L155
 1589              	.L153:
 970:Drivers/STM32F4xx_HAL_Driver/Src/stm32f4xx_hal_can.c ****         break;
 1590              		.loc 1 970 0
 1591 0236 5223     		movs	r3, #82
 1592 0238 84F83C30 		strb	r3, [r4, #60]
 971:Drivers/STM32F4xx_HAL_Driver/Src/stm32f4xx_hal_can.c ****       default: /* HAL_CAN_STATE_BUSY_RX0 */
 1593              		.loc 1 971 0
 1594 023c F3E7     		b	.L155
 1595              	.L150:
 979:Drivers/STM32F4xx_HAL_Driver/Src/stm32f4xx_hal_can.c ****     {
 1596              		.loc 1 979 0
 1597 023e 94F83C30 		ldrb	r3, [r4, #60]	@ zero_extendqisi2
 1598 0242 DBB2     		uxtb	r3, r3
 1599 0244 622B     		cmp	r3, #98
 1600 0246 0BD0     		beq	.L157
 1601 0248 722B     		cmp	r3, #114
 1602 024a 0DD0     		beq	.L158
 1603 024c 522B     		cmp	r3, #82
 1604 024e 03D0     		beq	.L180
 991:Drivers/STM32F4xx_HAL_Driver/Src/stm32f4xx_hal_can.c ****         break;
 1605              		.loc 1 991 0
 1606 0250 0123     		movs	r3, #1
 1607 0252 84F83C30 		strb	r3, [r4, #60]
 992:Drivers/STM32F4xx_HAL_Driver/Src/stm32f4xx_hal_can.c ****     }
 1608              		.loc 1 992 0
 1609 0256 E6E7     		b	.L155
 1610              	.L180:
 982:Drivers/STM32F4xx_HAL_Driver/Src/stm32f4xx_hal_can.c ****         break;
 1611              		.loc 1 982 0
 1612 0258 1223     		movs	r3, #18
 1613 025a 84F83C30 		strb	r3, [r4, #60]
 983:Drivers/STM32F4xx_HAL_Driver/Src/stm32f4xx_hal_can.c ****       case(HAL_CAN_STATE_BUSY_RX0_RX1):
ARM GAS  /var/folders/7p/1_dhylqx7nl5s8914_0f_4w00000gn/T//ccPpXWzH.s 			page 50


 1614              		.loc 1 983 0
 1615 025e E2E7     		b	.L155
 1616              	.L157:
 985:Drivers/STM32F4xx_HAL_Driver/Src/stm32f4xx_hal_can.c ****         break;
 1617              		.loc 1 985 0
 1618 0260 2223     		movs	r3, #34
 1619 0262 84F83C30 		strb	r3, [r4, #60]
 986:Drivers/STM32F4xx_HAL_Driver/Src/stm32f4xx_hal_can.c ****       case(HAL_CAN_STATE_BUSY_TX_RX0_RX1):
 1620              		.loc 1 986 0
 1621 0266 DEE7     		b	.L155
 1622              	.L158:
 988:Drivers/STM32F4xx_HAL_Driver/Src/stm32f4xx_hal_can.c ****         break;
 1623              		.loc 1 988 0
 1624 0268 4223     		movs	r3, #66
 1625 026a 84F83C30 		strb	r3, [r4, #60]
 989:Drivers/STM32F4xx_HAL_Driver/Src/stm32f4xx_hal_can.c ****       default: /* HAL_CAN_STATE_BUSY_RX1 */
 1626              		.loc 1 989 0
 1627 026e DAE7     		b	.L155
 1628              	.LVL78:
 1629              	.L160:
 836:Drivers/STM32F4xx_HAL_Driver/Src/stm32f4xx_hal_can.c ****   }
 1630              		.loc 1 836 0
 1631 0270 0220     		movs	r0, #2
 1632              	.LVL79:
 1633 0272 F8BD     		pop	{r3, r4, r5, r6, r7, pc}
 1634              	.LVL80:
 1635              	.L161:
 1636 0274 0220     		movs	r0, #2
 1637              	.LVL81:
 1638 0276 F8BD     		pop	{r3, r4, r5, r6, r7, pc}
 1639              	.LVL82:
 1640              	.L162:
 1641 0278 0220     		movs	r0, #2
 1642              	.LVL83:
 1643 027a F8BD     		pop	{r3, r4, r5, r6, r7, pc}
 1644              	.LVL84:
 1645              	.L163:
 1646 027c 0220     		movs	r0, #2
 1647              	.LVL85:
 1648 027e F8BD     		pop	{r3, r4, r5, r6, r7, pc}
 1649              	.LVL86:
 1650              	.L164:
 845:Drivers/STM32F4xx_HAL_Driver/Src/stm32f4xx_hal_can.c ****   }
 1651              		.loc 1 845 0
 1652 0280 0220     		movs	r0, #2
 1653              	.LVL87:
 1654 0282 F8BD     		pop	{r3, r4, r5, r6, r7, pc}
 1655              	.LVL88:
 1656              	.L165:
 1657 0284 0220     		movs	r0, #2
 1658              	.LVL89:
 1659 0286 F8BD     		pop	{r3, r4, r5, r6, r7, pc}
 1660              	.LVL90:
 1661              	.L166:
 1662 0288 0220     		movs	r0, #2
 1663              	.LVL91:
 1664 028a F8BD     		pop	{r3, r4, r5, r6, r7, pc}
ARM GAS  /var/folders/7p/1_dhylqx7nl5s8914_0f_4w00000gn/T//ccPpXWzH.s 			page 51


 1665              	.LVL92:
 1666              	.L168:
 849:Drivers/STM32F4xx_HAL_Driver/Src/stm32f4xx_hal_can.c **** 
 1667              		.loc 1 849 0
 1668 028c 0220     		movs	r0, #2
 1669              	.LVL93:
1001:Drivers/STM32F4xx_HAL_Driver/Src/stm32f4xx_hal_can.c **** }
 1670              		.loc 1 1001 0
 1671 028e F8BD     		pop	{r3, r4, r5, r6, r7, pc}
 1672              		.cfi_endproc
 1673              	.LFE131:
 1675              		.section	.text.HAL_CAN_Receive_IT,"ax",%progbits
 1676              		.align	1
 1677              		.global	HAL_CAN_Receive_IT
 1678              		.syntax unified
 1679              		.thumb
 1680              		.thumb_func
 1681              		.fpu fpv4-sp-d16
 1683              	HAL_CAN_Receive_IT:
 1684              	.LFB132:
1002:Drivers/STM32F4xx_HAL_Driver/Src/stm32f4xx_hal_can.c **** 
1003:Drivers/STM32F4xx_HAL_Driver/Src/stm32f4xx_hal_can.c **** /**
1004:Drivers/STM32F4xx_HAL_Driver/Src/stm32f4xx_hal_can.c ****   * @brief  Receives a correct CAN frame.
1005:Drivers/STM32F4xx_HAL_Driver/Src/stm32f4xx_hal_can.c ****   * @param  hcan:       Pointer to a CAN_HandleTypeDef structure that contains
1006:Drivers/STM32F4xx_HAL_Driver/Src/stm32f4xx_hal_can.c ****   *         the configuration information for the specified CAN.  
1007:Drivers/STM32F4xx_HAL_Driver/Src/stm32f4xx_hal_can.c ****   * @param  FIFONumber: Specify the FIFO number    
1008:Drivers/STM32F4xx_HAL_Driver/Src/stm32f4xx_hal_can.c ****   * @retval HAL status
1009:Drivers/STM32F4xx_HAL_Driver/Src/stm32f4xx_hal_can.c ****   */
1010:Drivers/STM32F4xx_HAL_Driver/Src/stm32f4xx_hal_can.c **** HAL_StatusTypeDef HAL_CAN_Receive_IT(CAN_HandleTypeDef* hcan, uint8_t FIFONumber)
1011:Drivers/STM32F4xx_HAL_Driver/Src/stm32f4xx_hal_can.c **** {
 1685              		.loc 1 1011 0
 1686              		.cfi_startproc
 1687              		@ args = 0, pretend = 0, frame = 0
 1688              		@ frame_needed = 0, uses_anonymous_args = 0
 1689              		@ link register save eliminated.
 1690              	.LVL94:
1012:Drivers/STM32F4xx_HAL_Driver/Src/stm32f4xx_hal_can.c ****   /* Check the parameters */
1013:Drivers/STM32F4xx_HAL_Driver/Src/stm32f4xx_hal_can.c ****   assert_param(IS_CAN_FIFO(FIFONumber));
1014:Drivers/STM32F4xx_HAL_Driver/Src/stm32f4xx_hal_can.c ****   
1015:Drivers/STM32F4xx_HAL_Driver/Src/stm32f4xx_hal_can.c ****   /* Check if CAN state is not busy for RX FIFO0 */
1016:Drivers/STM32F4xx_HAL_Driver/Src/stm32f4xx_hal_can.c ****   if((FIFONumber == CAN_FIFO0) && ((hcan->State == HAL_CAN_STATE_BUSY_RX0) ||         \
 1691              		.loc 1 1016 0
 1692 0000 0B46     		mov	r3, r1
 1693 0002 99B9     		cbnz	r1, .L182
 1694              		.loc 1 1016 0 is_stmt 0 discriminator 1
 1695 0004 90F83C20 		ldrb	r2, [r0, #60]	@ zero_extendqisi2
 1696 0008 D2B2     		uxtb	r2, r2
 1697 000a 222A     		cmp	r2, #34
 1698 000c 7DD0     		beq	.L196
1017:Drivers/STM32F4xx_HAL_Driver/Src/stm32f4xx_hal_can.c ****                                    (hcan->State == HAL_CAN_STATE_BUSY_TX_RX0) ||      \
 1699              		.loc 1 1017 0 is_stmt 1 discriminator 2
 1700 000e 90F83C20 		ldrb	r2, [r0, #60]	@ zero_extendqisi2
 1701 0012 D2B2     		uxtb	r2, r2
1016:Drivers/STM32F4xx_HAL_Driver/Src/stm32f4xx_hal_can.c ****                                    (hcan->State == HAL_CAN_STATE_BUSY_TX_RX0) ||      \
 1702              		.loc 1 1016 0 discriminator 2
 1703 0014 422A     		cmp	r2, #66
 1704 0016 7AD0     		beq	.L197
ARM GAS  /var/folders/7p/1_dhylqx7nl5s8914_0f_4w00000gn/T//ccPpXWzH.s 			page 52


1018:Drivers/STM32F4xx_HAL_Driver/Src/stm32f4xx_hal_can.c ****                                    (hcan->State == HAL_CAN_STATE_BUSY_RX0_RX1) ||     \
 1705              		.loc 1 1018 0
 1706 0018 90F83C20 		ldrb	r2, [r0, #60]	@ zero_extendqisi2
 1707 001c D2B2     		uxtb	r2, r2
1017:Drivers/STM32F4xx_HAL_Driver/Src/stm32f4xx_hal_can.c ****                                    (hcan->State == HAL_CAN_STATE_BUSY_TX_RX0) ||      \
 1708              		.loc 1 1017 0
 1709 001e 622A     		cmp	r2, #98
 1710 0020 77D0     		beq	.L198
1019:Drivers/STM32F4xx_HAL_Driver/Src/stm32f4xx_hal_can.c ****                                    (hcan->State == HAL_CAN_STATE_BUSY_TX_RX0_RX1)))
 1711              		.loc 1 1019 0
 1712 0022 90F83C20 		ldrb	r2, [r0, #60]	@ zero_extendqisi2
 1713 0026 D2B2     		uxtb	r2, r2
1018:Drivers/STM32F4xx_HAL_Driver/Src/stm32f4xx_hal_can.c ****                                    (hcan->State == HAL_CAN_STATE_BUSY_RX0_RX1) ||     \
 1714              		.loc 1 1018 0
 1715 0028 722A     		cmp	r2, #114
 1716 002a 74D0     		beq	.L199
 1717              	.L182:
1020:Drivers/STM32F4xx_HAL_Driver/Src/stm32f4xx_hal_can.c ****   {
1021:Drivers/STM32F4xx_HAL_Driver/Src/stm32f4xx_hal_can.c ****     return HAL_BUSY;
1022:Drivers/STM32F4xx_HAL_Driver/Src/stm32f4xx_hal_can.c ****   }
1023:Drivers/STM32F4xx_HAL_Driver/Src/stm32f4xx_hal_can.c **** 
1024:Drivers/STM32F4xx_HAL_Driver/Src/stm32f4xx_hal_can.c ****   /* Check if CAN state is not busy for RX FIFO1 */
1025:Drivers/STM32F4xx_HAL_Driver/Src/stm32f4xx_hal_can.c ****   if((FIFONumber == CAN_FIFO1) && ((hcan->State == HAL_CAN_STATE_BUSY_RX1) ||         \
 1718              		.loc 1 1025 0
 1719 002c 012B     		cmp	r3, #1
 1720 002e 16D0     		beq	.L211
 1721              	.L184:
1026:Drivers/STM32F4xx_HAL_Driver/Src/stm32f4xx_hal_can.c ****                                    (hcan->State == HAL_CAN_STATE_BUSY_TX_RX1) ||      \
1027:Drivers/STM32F4xx_HAL_Driver/Src/stm32f4xx_hal_can.c ****                                    (hcan->State == HAL_CAN_STATE_BUSY_RX0_RX1) ||     \
1028:Drivers/STM32F4xx_HAL_Driver/Src/stm32f4xx_hal_can.c ****                                    (hcan->State == HAL_CAN_STATE_BUSY_TX_RX0_RX1)))
1029:Drivers/STM32F4xx_HAL_Driver/Src/stm32f4xx_hal_can.c ****   {
1030:Drivers/STM32F4xx_HAL_Driver/Src/stm32f4xx_hal_can.c ****     return HAL_BUSY;
1031:Drivers/STM32F4xx_HAL_Driver/Src/stm32f4xx_hal_can.c ****   }
1032:Drivers/STM32F4xx_HAL_Driver/Src/stm32f4xx_hal_can.c **** 
1033:Drivers/STM32F4xx_HAL_Driver/Src/stm32f4xx_hal_can.c ****   /* Process locked */
1034:Drivers/STM32F4xx_HAL_Driver/Src/stm32f4xx_hal_can.c ****   __HAL_LOCK(hcan);
 1722              		.loc 1 1034 0
 1723 0030 90F83D20 		ldrb	r2, [r0, #61]	@ zero_extendqisi2
 1724 0034 012A     		cmp	r2, #1
 1725 0036 76D0     		beq	.L204
1011:Drivers/STM32F4xx_HAL_Driver/Src/stm32f4xx_hal_can.c ****   /* Check the parameters */
 1726              		.loc 1 1011 0 discriminator 2
 1727 0038 10B4     		push	{r4}
 1728              	.LCFI13:
 1729              		.cfi_def_cfa_offset 4
 1730              		.cfi_offset 4, -4
 1731              		.loc 1 1034 0 discriminator 2
 1732 003a 0122     		movs	r2, #1
 1733 003c 80F83D20 		strb	r2, [r0, #61]
1035:Drivers/STM32F4xx_HAL_Driver/Src/stm32f4xx_hal_can.c **** 
1036:Drivers/STM32F4xx_HAL_Driver/Src/stm32f4xx_hal_can.c ****   /* Change CAN state */
1037:Drivers/STM32F4xx_HAL_Driver/Src/stm32f4xx_hal_can.c ****   if(FIFONumber == CAN_FIFO0)
 1734              		.loc 1 1037 0 discriminator 2
 1735 0040 002B     		cmp	r3, #0
 1736 0042 42D1     		bne	.L185
1038:Drivers/STM32F4xx_HAL_Driver/Src/stm32f4xx_hal_can.c ****   {
1039:Drivers/STM32F4xx_HAL_Driver/Src/stm32f4xx_hal_can.c ****     switch(hcan->State)
ARM GAS  /var/folders/7p/1_dhylqx7nl5s8914_0f_4w00000gn/T//ccPpXWzH.s 			page 53


 1737              		.loc 1 1039 0
 1738 0044 90F83C20 		ldrb	r2, [r0, #60]	@ zero_extendqisi2
 1739 0048 D2B2     		uxtb	r2, r2
 1740 004a 322A     		cmp	r2, #50
 1741 004c 35D0     		beq	.L187
 1742 004e 522A     		cmp	r2, #82
 1743 0050 37D0     		beq	.L188
 1744 0052 122A     		cmp	r2, #18
 1745 0054 19D0     		beq	.L212
1040:Drivers/STM32F4xx_HAL_Driver/Src/stm32f4xx_hal_can.c ****     {
1041:Drivers/STM32F4xx_HAL_Driver/Src/stm32f4xx_hal_can.c ****       case(HAL_CAN_STATE_BUSY_TX):
1042:Drivers/STM32F4xx_HAL_Driver/Src/stm32f4xx_hal_can.c ****         hcan->State = HAL_CAN_STATE_BUSY_TX_RX0;
1043:Drivers/STM32F4xx_HAL_Driver/Src/stm32f4xx_hal_can.c ****         break;
1044:Drivers/STM32F4xx_HAL_Driver/Src/stm32f4xx_hal_can.c ****       case(HAL_CAN_STATE_BUSY_RX1):
1045:Drivers/STM32F4xx_HAL_Driver/Src/stm32f4xx_hal_can.c ****         hcan->State = HAL_CAN_STATE_BUSY_RX0_RX1;
1046:Drivers/STM32F4xx_HAL_Driver/Src/stm32f4xx_hal_can.c ****         break;
1047:Drivers/STM32F4xx_HAL_Driver/Src/stm32f4xx_hal_can.c ****       case(HAL_CAN_STATE_BUSY_TX_RX1):
1048:Drivers/STM32F4xx_HAL_Driver/Src/stm32f4xx_hal_can.c ****         hcan->State = HAL_CAN_STATE_BUSY_TX_RX0_RX1;
1049:Drivers/STM32F4xx_HAL_Driver/Src/stm32f4xx_hal_can.c ****         break;
1050:Drivers/STM32F4xx_HAL_Driver/Src/stm32f4xx_hal_can.c ****       default: /* HAL_CAN_STATE_READY */
1051:Drivers/STM32F4xx_HAL_Driver/Src/stm32f4xx_hal_can.c ****         hcan->State = HAL_CAN_STATE_BUSY_RX0;
 1746              		.loc 1 1051 0
 1747 0056 2222     		movs	r2, #34
 1748 0058 80F83C20 		strb	r2, [r0, #60]
1052:Drivers/STM32F4xx_HAL_Driver/Src/stm32f4xx_hal_can.c ****         break;
 1749              		.loc 1 1052 0
 1750 005c 18E0     		b	.L190
 1751              	.L211:
 1752              	.LCFI14:
 1753              		.cfi_def_cfa_offset 0
 1754              		.cfi_restore 4
1025:Drivers/STM32F4xx_HAL_Driver/Src/stm32f4xx_hal_can.c ****                                    (hcan->State == HAL_CAN_STATE_BUSY_TX_RX1) ||      \
 1755              		.loc 1 1025 0 discriminator 1
 1756 005e 90F83C20 		ldrb	r2, [r0, #60]	@ zero_extendqisi2
 1757 0062 D2B2     		uxtb	r2, r2
 1758 0064 322A     		cmp	r2, #50
 1759 0066 58D0     		beq	.L200
1026:Drivers/STM32F4xx_HAL_Driver/Src/stm32f4xx_hal_can.c ****                                    (hcan->State == HAL_CAN_STATE_BUSY_RX0_RX1) ||     \
 1760              		.loc 1 1026 0 discriminator 2
 1761 0068 90F83C20 		ldrb	r2, [r0, #60]	@ zero_extendqisi2
 1762 006c D2B2     		uxtb	r2, r2
1025:Drivers/STM32F4xx_HAL_Driver/Src/stm32f4xx_hal_can.c ****                                    (hcan->State == HAL_CAN_STATE_BUSY_TX_RX1) ||      \
 1763              		.loc 1 1025 0 discriminator 2
 1764 006e 522A     		cmp	r2, #82
 1765 0070 55D0     		beq	.L201
1027:Drivers/STM32F4xx_HAL_Driver/Src/stm32f4xx_hal_can.c ****                                    (hcan->State == HAL_CAN_STATE_BUSY_TX_RX0_RX1)))
 1766              		.loc 1 1027 0
 1767 0072 90F83C20 		ldrb	r2, [r0, #60]	@ zero_extendqisi2
 1768 0076 D2B2     		uxtb	r2, r2
1026:Drivers/STM32F4xx_HAL_Driver/Src/stm32f4xx_hal_can.c ****                                    (hcan->State == HAL_CAN_STATE_BUSY_RX0_RX1) ||     \
 1769              		.loc 1 1026 0
 1770 0078 622A     		cmp	r2, #98
 1771 007a 52D0     		beq	.L202
1028:Drivers/STM32F4xx_HAL_Driver/Src/stm32f4xx_hal_can.c ****   {
 1772              		.loc 1 1028 0
 1773 007c 90F83C20 		ldrb	r2, [r0, #60]	@ zero_extendqisi2
 1774 0080 D2B2     		uxtb	r2, r2
ARM GAS  /var/folders/7p/1_dhylqx7nl5s8914_0f_4w00000gn/T//ccPpXWzH.s 			page 54


1027:Drivers/STM32F4xx_HAL_Driver/Src/stm32f4xx_hal_can.c ****                                    (hcan->State == HAL_CAN_STATE_BUSY_TX_RX0_RX1)))
 1775              		.loc 1 1027 0
 1776 0082 722A     		cmp	r2, #114
 1777 0084 D4D1     		bne	.L184
1030:Drivers/STM32F4xx_HAL_Driver/Src/stm32f4xx_hal_can.c ****   }
 1778              		.loc 1 1030 0
 1779 0086 0220     		movs	r0, #2
 1780              	.LVL95:
 1781 0088 7047     		bx	lr
 1782              	.LVL96:
 1783              	.L212:
 1784              	.LCFI15:
 1785              		.cfi_def_cfa_offset 4
 1786              		.cfi_offset 4, -4
1042:Drivers/STM32F4xx_HAL_Driver/Src/stm32f4xx_hal_can.c ****         break;
 1787              		.loc 1 1042 0
 1788 008a 4222     		movs	r2, #66
 1789 008c 80F83C20 		strb	r2, [r0, #60]
 1790              	.L190:
1053:Drivers/STM32F4xx_HAL_Driver/Src/stm32f4xx_hal_can.c ****     }
1054:Drivers/STM32F4xx_HAL_Driver/Src/stm32f4xx_hal_can.c ****   }
1055:Drivers/STM32F4xx_HAL_Driver/Src/stm32f4xx_hal_can.c ****   else /* FIFONumber == CAN_FIFO1 */
1056:Drivers/STM32F4xx_HAL_Driver/Src/stm32f4xx_hal_can.c ****   {
1057:Drivers/STM32F4xx_HAL_Driver/Src/stm32f4xx_hal_can.c ****     switch(hcan->State)
1058:Drivers/STM32F4xx_HAL_Driver/Src/stm32f4xx_hal_can.c ****     {
1059:Drivers/STM32F4xx_HAL_Driver/Src/stm32f4xx_hal_can.c ****       case(HAL_CAN_STATE_BUSY_TX):
1060:Drivers/STM32F4xx_HAL_Driver/Src/stm32f4xx_hal_can.c ****         hcan->State = HAL_CAN_STATE_BUSY_TX_RX1;
1061:Drivers/STM32F4xx_HAL_Driver/Src/stm32f4xx_hal_can.c ****         break;
1062:Drivers/STM32F4xx_HAL_Driver/Src/stm32f4xx_hal_can.c ****       case(HAL_CAN_STATE_BUSY_RX0):
1063:Drivers/STM32F4xx_HAL_Driver/Src/stm32f4xx_hal_can.c ****         hcan->State = HAL_CAN_STATE_BUSY_RX0_RX1;
1064:Drivers/STM32F4xx_HAL_Driver/Src/stm32f4xx_hal_can.c ****         break;
1065:Drivers/STM32F4xx_HAL_Driver/Src/stm32f4xx_hal_can.c ****       case(HAL_CAN_STATE_BUSY_TX_RX0):
1066:Drivers/STM32F4xx_HAL_Driver/Src/stm32f4xx_hal_can.c ****         hcan->State = HAL_CAN_STATE_BUSY_TX_RX0_RX1;
1067:Drivers/STM32F4xx_HAL_Driver/Src/stm32f4xx_hal_can.c ****         break;
1068:Drivers/STM32F4xx_HAL_Driver/Src/stm32f4xx_hal_can.c ****       default: /* HAL_CAN_STATE_READY */
1069:Drivers/STM32F4xx_HAL_Driver/Src/stm32f4xx_hal_can.c ****         hcan->State = HAL_CAN_STATE_BUSY_RX1;
1070:Drivers/STM32F4xx_HAL_Driver/Src/stm32f4xx_hal_can.c ****         break;
1071:Drivers/STM32F4xx_HAL_Driver/Src/stm32f4xx_hal_can.c ****     }
1072:Drivers/STM32F4xx_HAL_Driver/Src/stm32f4xx_hal_can.c ****   }
1073:Drivers/STM32F4xx_HAL_Driver/Src/stm32f4xx_hal_can.c ****   /* Set CAN error code to none */
1074:Drivers/STM32F4xx_HAL_Driver/Src/stm32f4xx_hal_can.c ****   hcan->ErrorCode = HAL_CAN_ERROR_NONE;
 1791              		.loc 1 1074 0
 1792 0090 0021     		movs	r1, #0
 1793              	.LVL97:
 1794 0092 0164     		str	r1, [r0, #64]
1075:Drivers/STM32F4xx_HAL_Driver/Src/stm32f4xx_hal_can.c **** 
1076:Drivers/STM32F4xx_HAL_Driver/Src/stm32f4xx_hal_can.c ****   /* Enable interrupts: */
1077:Drivers/STM32F4xx_HAL_Driver/Src/stm32f4xx_hal_can.c ****   /*  - Enable Error warning Interrupt */
1078:Drivers/STM32F4xx_HAL_Driver/Src/stm32f4xx_hal_can.c ****   /*  - Enable Error passive Interrupt */
1079:Drivers/STM32F4xx_HAL_Driver/Src/stm32f4xx_hal_can.c ****   /*  - Enable Bus-off Interrupt */
1080:Drivers/STM32F4xx_HAL_Driver/Src/stm32f4xx_hal_can.c ****   /*  - Enable Last error code Interrupt */
1081:Drivers/STM32F4xx_HAL_Driver/Src/stm32f4xx_hal_can.c ****   /*  - Enable Error Interrupt */
1082:Drivers/STM32F4xx_HAL_Driver/Src/stm32f4xx_hal_can.c ****   /*  - Enable Transmit mailbox empty Interrupt */
1083:Drivers/STM32F4xx_HAL_Driver/Src/stm32f4xx_hal_can.c ****   __HAL_CAN_ENABLE_IT(hcan, CAN_IT_EWG |
 1795              		.loc 1 1083 0
 1796 0094 0468     		ldr	r4, [r0]
 1797 0096 6269     		ldr	r2, [r4, #20]
ARM GAS  /var/folders/7p/1_dhylqx7nl5s8914_0f_4w00000gn/T//ccPpXWzH.s 			page 55


 1798 0098 42F40F42 		orr	r2, r2, #36608
 1799 009c 42F00102 		orr	r2, r2, #1
 1800 00a0 6261     		str	r2, [r4, #20]
1084:Drivers/STM32F4xx_HAL_Driver/Src/stm32f4xx_hal_can.c ****                             CAN_IT_EPV |
1085:Drivers/STM32F4xx_HAL_Driver/Src/stm32f4xx_hal_can.c ****                             CAN_IT_BOF |
1086:Drivers/STM32F4xx_HAL_Driver/Src/stm32f4xx_hal_can.c ****                             CAN_IT_LEC |
1087:Drivers/STM32F4xx_HAL_Driver/Src/stm32f4xx_hal_can.c ****                             CAN_IT_ERR |
1088:Drivers/STM32F4xx_HAL_Driver/Src/stm32f4xx_hal_can.c ****                             CAN_IT_TME);
1089:Drivers/STM32F4xx_HAL_Driver/Src/stm32f4xx_hal_can.c **** 
1090:Drivers/STM32F4xx_HAL_Driver/Src/stm32f4xx_hal_can.c ****   /* Process unlocked */
1091:Drivers/STM32F4xx_HAL_Driver/Src/stm32f4xx_hal_can.c ****    __HAL_UNLOCK(hcan);
 1801              		.loc 1 1091 0
 1802 00a2 80F83D10 		strb	r1, [r0, #61]
1092:Drivers/STM32F4xx_HAL_Driver/Src/stm32f4xx_hal_can.c **** 
1093:Drivers/STM32F4xx_HAL_Driver/Src/stm32f4xx_hal_can.c ****   if(FIFONumber == CAN_FIFO0)
 1803              		.loc 1 1093 0
 1804 00a6 4BB3     		cbz	r3, .L213
1094:Drivers/STM32F4xx_HAL_Driver/Src/stm32f4xx_hal_can.c ****   {
1095:Drivers/STM32F4xx_HAL_Driver/Src/stm32f4xx_hal_can.c ****     /* Enable FIFO 0 overrun and message pending Interrupt */
1096:Drivers/STM32F4xx_HAL_Driver/Src/stm32f4xx_hal_can.c ****     __HAL_CAN_ENABLE_IT(hcan, CAN_IT_FOV0 | CAN_IT_FMP0);
1097:Drivers/STM32F4xx_HAL_Driver/Src/stm32f4xx_hal_can.c ****   }
1098:Drivers/STM32F4xx_HAL_Driver/Src/stm32f4xx_hal_can.c ****   else
1099:Drivers/STM32F4xx_HAL_Driver/Src/stm32f4xx_hal_can.c ****   {
1100:Drivers/STM32F4xx_HAL_Driver/Src/stm32f4xx_hal_can.c ****     /* Enable FIFO 1 overrun and message pending Interrupt */
1101:Drivers/STM32F4xx_HAL_Driver/Src/stm32f4xx_hal_can.c ****     __HAL_CAN_ENABLE_IT(hcan, CAN_IT_FOV1 | CAN_IT_FMP1);
 1805              		.loc 1 1101 0
 1806 00a8 0268     		ldr	r2, [r0]
 1807 00aa 5369     		ldr	r3, [r2, #20]
 1808 00ac 43F05003 		orr	r3, r3, #80
 1809 00b0 5361     		str	r3, [r2, #20]
1102:Drivers/STM32F4xx_HAL_Driver/Src/stm32f4xx_hal_can.c ****   }
1103:Drivers/STM32F4xx_HAL_Driver/Src/stm32f4xx_hal_can.c **** 
1104:Drivers/STM32F4xx_HAL_Driver/Src/stm32f4xx_hal_can.c ****   /* Return function status */
1105:Drivers/STM32F4xx_HAL_Driver/Src/stm32f4xx_hal_can.c ****   return HAL_OK;
 1810              		.loc 1 1105 0
 1811 00b2 0020     		movs	r0, #0
 1812              	.LVL98:
 1813              	.L183:
1106:Drivers/STM32F4xx_HAL_Driver/Src/stm32f4xx_hal_can.c **** }
 1814              		.loc 1 1106 0
 1815 00b4 5DF8044B 		ldr	r4, [sp], #4
 1816              	.LCFI16:
 1817              		.cfi_remember_state
 1818              		.cfi_restore 4
 1819              		.cfi_def_cfa_offset 0
 1820 00b8 7047     		bx	lr
 1821              	.LVL99:
 1822              	.L187:
 1823              	.LCFI17:
 1824              		.cfi_restore_state
1045:Drivers/STM32F4xx_HAL_Driver/Src/stm32f4xx_hal_can.c ****         break;
 1825              		.loc 1 1045 0
 1826 00ba 6222     		movs	r2, #98
 1827 00bc 80F83C20 		strb	r2, [r0, #60]
1046:Drivers/STM32F4xx_HAL_Driver/Src/stm32f4xx_hal_can.c ****       case(HAL_CAN_STATE_BUSY_TX_RX1):
 1828              		.loc 1 1046 0
 1829 00c0 E6E7     		b	.L190
ARM GAS  /var/folders/7p/1_dhylqx7nl5s8914_0f_4w00000gn/T//ccPpXWzH.s 			page 56


 1830              	.L188:
1048:Drivers/STM32F4xx_HAL_Driver/Src/stm32f4xx_hal_can.c ****         break;
 1831              		.loc 1 1048 0
 1832 00c2 7222     		movs	r2, #114
 1833 00c4 80F83C20 		strb	r2, [r0, #60]
1049:Drivers/STM32F4xx_HAL_Driver/Src/stm32f4xx_hal_can.c ****       default: /* HAL_CAN_STATE_READY */
 1834              		.loc 1 1049 0
 1835 00c8 E2E7     		b	.L190
 1836              	.L185:
1057:Drivers/STM32F4xx_HAL_Driver/Src/stm32f4xx_hal_can.c ****     {
 1837              		.loc 1 1057 0
 1838 00ca 90F83C20 		ldrb	r2, [r0, #60]	@ zero_extendqisi2
 1839 00ce D2B2     		uxtb	r2, r2
 1840 00d0 222A     		cmp	r2, #34
 1841 00d2 0BD0     		beq	.L192
 1842 00d4 422A     		cmp	r2, #66
 1843 00d6 0DD0     		beq	.L193
 1844 00d8 122A     		cmp	r2, #18
 1845 00da 03D0     		beq	.L214
1069:Drivers/STM32F4xx_HAL_Driver/Src/stm32f4xx_hal_can.c ****         break;
 1846              		.loc 1 1069 0
 1847 00dc 3222     		movs	r2, #50
 1848 00de 80F83C20 		strb	r2, [r0, #60]
1070:Drivers/STM32F4xx_HAL_Driver/Src/stm32f4xx_hal_can.c ****     }
 1849              		.loc 1 1070 0
 1850 00e2 D5E7     		b	.L190
 1851              	.L214:
1060:Drivers/STM32F4xx_HAL_Driver/Src/stm32f4xx_hal_can.c ****         break;
 1852              		.loc 1 1060 0
 1853 00e4 5222     		movs	r2, #82
 1854 00e6 80F83C20 		strb	r2, [r0, #60]
1061:Drivers/STM32F4xx_HAL_Driver/Src/stm32f4xx_hal_can.c ****       case(HAL_CAN_STATE_BUSY_RX0):
 1855              		.loc 1 1061 0
 1856 00ea D1E7     		b	.L190
 1857              	.L192:
1063:Drivers/STM32F4xx_HAL_Driver/Src/stm32f4xx_hal_can.c ****         break;
 1858              		.loc 1 1063 0
 1859 00ec 6222     		movs	r2, #98
 1860 00ee 80F83C20 		strb	r2, [r0, #60]
1064:Drivers/STM32F4xx_HAL_Driver/Src/stm32f4xx_hal_can.c ****       case(HAL_CAN_STATE_BUSY_TX_RX0):
 1861              		.loc 1 1064 0
 1862 00f2 CDE7     		b	.L190
 1863              	.L193:
1066:Drivers/STM32F4xx_HAL_Driver/Src/stm32f4xx_hal_can.c ****         break;
 1864              		.loc 1 1066 0
 1865 00f4 7222     		movs	r2, #114
 1866 00f6 80F83C20 		strb	r2, [r0, #60]
1067:Drivers/STM32F4xx_HAL_Driver/Src/stm32f4xx_hal_can.c ****       default: /* HAL_CAN_STATE_READY */
 1867              		.loc 1 1067 0
 1868 00fa C9E7     		b	.L190
 1869              	.LVL100:
 1870              	.L213:
1096:Drivers/STM32F4xx_HAL_Driver/Src/stm32f4xx_hal_can.c ****   }
 1871              		.loc 1 1096 0
 1872 00fc 0268     		ldr	r2, [r0]
 1873 00fe 5369     		ldr	r3, [r2, #20]
 1874 0100 43F00A03 		orr	r3, r3, #10
ARM GAS  /var/folders/7p/1_dhylqx7nl5s8914_0f_4w00000gn/T//ccPpXWzH.s 			page 57


 1875 0104 5361     		str	r3, [r2, #20]
1105:Drivers/STM32F4xx_HAL_Driver/Src/stm32f4xx_hal_can.c **** }
 1876              		.loc 1 1105 0
 1877 0106 0846     		mov	r0, r1
 1878              	.LVL101:
 1879 0108 D4E7     		b	.L183
 1880              	.LVL102:
 1881              	.L196:
 1882              	.LCFI18:
 1883              		.cfi_def_cfa_offset 0
 1884              		.cfi_restore 4
1021:Drivers/STM32F4xx_HAL_Driver/Src/stm32f4xx_hal_can.c ****   }
 1885              		.loc 1 1021 0
 1886 010a 0220     		movs	r0, #2
 1887              	.LVL103:
 1888 010c 7047     		bx	lr
 1889              	.LVL104:
 1890              	.L197:
 1891 010e 0220     		movs	r0, #2
 1892              	.LVL105:
 1893 0110 7047     		bx	lr
 1894              	.LVL106:
 1895              	.L198:
 1896 0112 0220     		movs	r0, #2
 1897              	.LVL107:
 1898 0114 7047     		bx	lr
 1899              	.LVL108:
 1900              	.L199:
 1901 0116 0220     		movs	r0, #2
 1902              	.LVL109:
 1903 0118 7047     		bx	lr
 1904              	.LVL110:
 1905              	.L200:
1030:Drivers/STM32F4xx_HAL_Driver/Src/stm32f4xx_hal_can.c ****   }
 1906              		.loc 1 1030 0
 1907 011a 0220     		movs	r0, #2
 1908              	.LVL111:
 1909 011c 7047     		bx	lr
 1910              	.LVL112:
 1911              	.L201:
 1912 011e 0220     		movs	r0, #2
 1913              	.LVL113:
 1914 0120 7047     		bx	lr
 1915              	.LVL114:
 1916              	.L202:
 1917 0122 0220     		movs	r0, #2
 1918              	.LVL115:
 1919 0124 7047     		bx	lr
 1920              	.LVL116:
 1921              	.L204:
1034:Drivers/STM32F4xx_HAL_Driver/Src/stm32f4xx_hal_can.c **** 
 1922              		.loc 1 1034 0
 1923 0126 0220     		movs	r0, #2
 1924              	.LVL117:
 1925 0128 7047     		bx	lr
 1926              		.cfi_endproc
 1927              	.LFE132:
ARM GAS  /var/folders/7p/1_dhylqx7nl5s8914_0f_4w00000gn/T//ccPpXWzH.s 			page 58


 1929              		.section	.text.HAL_CAN_Sleep,"ax",%progbits
 1930              		.align	1
 1931              		.global	HAL_CAN_Sleep
 1932              		.syntax unified
 1933              		.thumb
 1934              		.thumb_func
 1935              		.fpu fpv4-sp-d16
 1937              	HAL_CAN_Sleep:
 1938              	.LFB133:
1107:Drivers/STM32F4xx_HAL_Driver/Src/stm32f4xx_hal_can.c **** 
1108:Drivers/STM32F4xx_HAL_Driver/Src/stm32f4xx_hal_can.c **** /**
1109:Drivers/STM32F4xx_HAL_Driver/Src/stm32f4xx_hal_can.c ****   * @brief  Enters the Sleep (low power) mode.
1110:Drivers/STM32F4xx_HAL_Driver/Src/stm32f4xx_hal_can.c ****   * @param  hcan: pointer to a CAN_HandleTypeDef structure that contains
1111:Drivers/STM32F4xx_HAL_Driver/Src/stm32f4xx_hal_can.c ****   *         the configuration information for the specified CAN.
1112:Drivers/STM32F4xx_HAL_Driver/Src/stm32f4xx_hal_can.c ****   * @retval HAL status.
1113:Drivers/STM32F4xx_HAL_Driver/Src/stm32f4xx_hal_can.c ****   */
1114:Drivers/STM32F4xx_HAL_Driver/Src/stm32f4xx_hal_can.c **** HAL_StatusTypeDef HAL_CAN_Sleep(CAN_HandleTypeDef* hcan)
1115:Drivers/STM32F4xx_HAL_Driver/Src/stm32f4xx_hal_can.c **** {
 1939              		.loc 1 1115 0
 1940              		.cfi_startproc
 1941              		@ args = 0, pretend = 0, frame = 0
 1942              		@ frame_needed = 0, uses_anonymous_args = 0
 1943              	.LVL118:
 1944 0000 38B5     		push	{r3, r4, r5, lr}
 1945              	.LCFI19:
 1946              		.cfi_def_cfa_offset 16
 1947              		.cfi_offset 3, -16
 1948              		.cfi_offset 4, -12
 1949              		.cfi_offset 5, -8
 1950              		.cfi_offset 14, -4
 1951              	.LVL119:
1116:Drivers/STM32F4xx_HAL_Driver/Src/stm32f4xx_hal_can.c ****   uint32_t tickstart = 0U;
1117:Drivers/STM32F4xx_HAL_Driver/Src/stm32f4xx_hal_can.c ****    
1118:Drivers/STM32F4xx_HAL_Driver/Src/stm32f4xx_hal_can.c ****   /* Process locked */
1119:Drivers/STM32F4xx_HAL_Driver/Src/stm32f4xx_hal_can.c ****   __HAL_LOCK(hcan);
 1952              		.loc 1 1119 0
 1953 0002 90F83D30 		ldrb	r3, [r0, #61]	@ zero_extendqisi2
 1954 0006 012B     		cmp	r3, #1
 1955 0008 34D0     		beq	.L220
 1956              		.loc 1 1119 0 is_stmt 0 discriminator 2
 1957 000a 0123     		movs	r3, #1
 1958 000c 80F83D30 		strb	r3, [r0, #61]
1120:Drivers/STM32F4xx_HAL_Driver/Src/stm32f4xx_hal_can.c ****   
1121:Drivers/STM32F4xx_HAL_Driver/Src/stm32f4xx_hal_can.c ****   /* Change CAN state */
1122:Drivers/STM32F4xx_HAL_Driver/Src/stm32f4xx_hal_can.c ****   hcan->State = HAL_CAN_STATE_BUSY; 
 1959              		.loc 1 1122 0 is_stmt 1 discriminator 2
 1960 0010 0223     		movs	r3, #2
 1961 0012 80F83C30 		strb	r3, [r0, #60]
1123:Drivers/STM32F4xx_HAL_Driver/Src/stm32f4xx_hal_can.c ****     
1124:Drivers/STM32F4xx_HAL_Driver/Src/stm32f4xx_hal_can.c ****   /* Request Sleep mode */
1125:Drivers/STM32F4xx_HAL_Driver/Src/stm32f4xx_hal_can.c ****    hcan->Instance->MCR = (((hcan->Instance->MCR) & (uint32_t)(~(uint32_t)CAN_MCR_INRQ)) | CAN_MCR_S
 1962              		.loc 1 1125 0 discriminator 2
 1963 0016 0268     		ldr	r2, [r0]
 1964 0018 1368     		ldr	r3, [r2]
 1965 001a 23F00303 		bic	r3, r3, #3
 1966 001e 43F00203 		orr	r3, r3, #2
 1967 0022 1360     		str	r3, [r2]
ARM GAS  /var/folders/7p/1_dhylqx7nl5s8914_0f_4w00000gn/T//ccPpXWzH.s 			page 59


1126:Drivers/STM32F4xx_HAL_Driver/Src/stm32f4xx_hal_can.c **** 
1127:Drivers/STM32F4xx_HAL_Driver/Src/stm32f4xx_hal_can.c ****   /* Sleep mode status */
1128:Drivers/STM32F4xx_HAL_Driver/Src/stm32f4xx_hal_can.c ****   if ((hcan->Instance->MSR & (CAN_MSR_SLAK|CAN_MSR_INAK)) != CAN_MSR_SLAK)
 1968              		.loc 1 1128 0 discriminator 2
 1969 0024 0368     		ldr	r3, [r0]
 1970 0026 5B68     		ldr	r3, [r3, #4]
 1971 0028 03F00303 		and	r3, r3, #3
 1972 002c 022B     		cmp	r3, #2
 1973 002e 04D0     		beq	.L217
1129:Drivers/STM32F4xx_HAL_Driver/Src/stm32f4xx_hal_can.c ****   {
1130:Drivers/STM32F4xx_HAL_Driver/Src/stm32f4xx_hal_can.c ****     /* Process unlocked */
1131:Drivers/STM32F4xx_HAL_Driver/Src/stm32f4xx_hal_can.c ****     __HAL_UNLOCK(hcan);
 1974              		.loc 1 1131 0
 1975 0030 0023     		movs	r3, #0
 1976 0032 80F83D30 		strb	r3, [r0, #61]
1132:Drivers/STM32F4xx_HAL_Driver/Src/stm32f4xx_hal_can.c **** 
1133:Drivers/STM32F4xx_HAL_Driver/Src/stm32f4xx_hal_can.c ****     /* Return function status */
1134:Drivers/STM32F4xx_HAL_Driver/Src/stm32f4xx_hal_can.c ****     return HAL_ERROR;
 1977              		.loc 1 1134 0
 1978 0036 0120     		movs	r0, #1
 1979              	.LVL120:
 1980 0038 38BD     		pop	{r3, r4, r5, pc}
 1981              	.LVL121:
 1982              	.L217:
 1983 003a 0446     		mov	r4, r0
1135:Drivers/STM32F4xx_HAL_Driver/Src/stm32f4xx_hal_can.c ****   }
1136:Drivers/STM32F4xx_HAL_Driver/Src/stm32f4xx_hal_can.c **** 
1137:Drivers/STM32F4xx_HAL_Driver/Src/stm32f4xx_hal_can.c ****   /* Get tick */
1138:Drivers/STM32F4xx_HAL_Driver/Src/stm32f4xx_hal_can.c ****   tickstart = HAL_GetTick();
 1984              		.loc 1 1138 0
 1985 003c FFF7FEFF 		bl	HAL_GetTick
 1986              	.LVL122:
 1987 0040 0546     		mov	r5, r0
 1988              	.LVL123:
 1989              	.L218:
1139:Drivers/STM32F4xx_HAL_Driver/Src/stm32f4xx_hal_can.c ****   
1140:Drivers/STM32F4xx_HAL_Driver/Src/stm32f4xx_hal_can.c ****   /* Wait the acknowledge */
1141:Drivers/STM32F4xx_HAL_Driver/Src/stm32f4xx_hal_can.c ****   while((hcan->Instance->MSR & (CAN_MSR_SLAK|CAN_MSR_INAK)) != CAN_MSR_SLAK)
 1990              		.loc 1 1141 0
 1991 0042 2368     		ldr	r3, [r4]
 1992 0044 5B68     		ldr	r3, [r3, #4]
 1993 0046 03F00303 		and	r3, r3, #3
 1994 004a 022B     		cmp	r3, #2
 1995 004c 0BD0     		beq	.L222
1142:Drivers/STM32F4xx_HAL_Driver/Src/stm32f4xx_hal_can.c ****   {
1143:Drivers/STM32F4xx_HAL_Driver/Src/stm32f4xx_hal_can.c ****     if((HAL_GetTick()  - tickstart) > CAN_TIMEOUT_VALUE)
 1996              		.loc 1 1143 0
 1997 004e FFF7FEFF 		bl	HAL_GetTick
 1998              	.LVL124:
 1999 0052 401B     		subs	r0, r0, r5
 2000 0054 0A28     		cmp	r0, #10
 2001 0056 F4D9     		bls	.L218
1144:Drivers/STM32F4xx_HAL_Driver/Src/stm32f4xx_hal_can.c ****     {
1145:Drivers/STM32F4xx_HAL_Driver/Src/stm32f4xx_hal_can.c ****       hcan->State = HAL_CAN_STATE_TIMEOUT;
 2002              		.loc 1 1145 0
 2003 0058 0320     		movs	r0, #3
 2004 005a 84F83C00 		strb	r0, [r4, #60]
ARM GAS  /var/folders/7p/1_dhylqx7nl5s8914_0f_4w00000gn/T//ccPpXWzH.s 			page 60


1146:Drivers/STM32F4xx_HAL_Driver/Src/stm32f4xx_hal_can.c ****       /* Process unlocked */
1147:Drivers/STM32F4xx_HAL_Driver/Src/stm32f4xx_hal_can.c ****       __HAL_UNLOCK(hcan);
 2005              		.loc 1 1147 0
 2006 005e 0023     		movs	r3, #0
 2007 0060 84F83D30 		strb	r3, [r4, #61]
1148:Drivers/STM32F4xx_HAL_Driver/Src/stm32f4xx_hal_can.c ****       return HAL_TIMEOUT;
 2008              		.loc 1 1148 0
 2009 0064 38BD     		pop	{r3, r4, r5, pc}
 2010              	.LVL125:
 2011              	.L222:
1149:Drivers/STM32F4xx_HAL_Driver/Src/stm32f4xx_hal_can.c ****     }
1150:Drivers/STM32F4xx_HAL_Driver/Src/stm32f4xx_hal_can.c ****   }
1151:Drivers/STM32F4xx_HAL_Driver/Src/stm32f4xx_hal_can.c **** 
1152:Drivers/STM32F4xx_HAL_Driver/Src/stm32f4xx_hal_can.c ****   /* Change CAN state */
1153:Drivers/STM32F4xx_HAL_Driver/Src/stm32f4xx_hal_can.c ****   hcan->State = HAL_CAN_STATE_READY;
 2012              		.loc 1 1153 0
 2013 0066 0123     		movs	r3, #1
 2014 0068 84F83C30 		strb	r3, [r4, #60]
1154:Drivers/STM32F4xx_HAL_Driver/Src/stm32f4xx_hal_can.c **** 
1155:Drivers/STM32F4xx_HAL_Driver/Src/stm32f4xx_hal_can.c ****   /* Process unlocked */
1156:Drivers/STM32F4xx_HAL_Driver/Src/stm32f4xx_hal_can.c ****   __HAL_UNLOCK(hcan);
 2015              		.loc 1 1156 0
 2016 006c 0020     		movs	r0, #0
 2017 006e 84F83D00 		strb	r0, [r4, #61]
1157:Drivers/STM32F4xx_HAL_Driver/Src/stm32f4xx_hal_can.c **** 
1158:Drivers/STM32F4xx_HAL_Driver/Src/stm32f4xx_hal_can.c ****   /* Return function status */
1159:Drivers/STM32F4xx_HAL_Driver/Src/stm32f4xx_hal_can.c ****   return HAL_OK;
 2018              		.loc 1 1159 0
 2019 0072 38BD     		pop	{r3, r4, r5, pc}
 2020              	.LVL126:
 2021              	.L220:
1119:Drivers/STM32F4xx_HAL_Driver/Src/stm32f4xx_hal_can.c ****   
 2022              		.loc 1 1119 0
 2023 0074 0220     		movs	r0, #2
 2024              	.LVL127:
1160:Drivers/STM32F4xx_HAL_Driver/Src/stm32f4xx_hal_can.c **** }
 2025              		.loc 1 1160 0
 2026 0076 38BD     		pop	{r3, r4, r5, pc}
 2027              		.cfi_endproc
 2028              	.LFE133:
 2030              		.section	.text.HAL_CAN_WakeUp,"ax",%progbits
 2031              		.align	1
 2032              		.global	HAL_CAN_WakeUp
 2033              		.syntax unified
 2034              		.thumb
 2035              		.thumb_func
 2036              		.fpu fpv4-sp-d16
 2038              	HAL_CAN_WakeUp:
 2039              	.LFB134:
1161:Drivers/STM32F4xx_HAL_Driver/Src/stm32f4xx_hal_can.c **** 
1162:Drivers/STM32F4xx_HAL_Driver/Src/stm32f4xx_hal_can.c **** /**
1163:Drivers/STM32F4xx_HAL_Driver/Src/stm32f4xx_hal_can.c ****   * @brief  Wakes up the CAN peripheral from sleep mode, after that the CAN peripheral
1164:Drivers/STM32F4xx_HAL_Driver/Src/stm32f4xx_hal_can.c ****   *         is in the normal mode.
1165:Drivers/STM32F4xx_HAL_Driver/Src/stm32f4xx_hal_can.c ****   * @param  hcan: pointer to a CAN_HandleTypeDef structure that contains
1166:Drivers/STM32F4xx_HAL_Driver/Src/stm32f4xx_hal_can.c ****   *         the configuration information for the specified CAN.
1167:Drivers/STM32F4xx_HAL_Driver/Src/stm32f4xx_hal_can.c ****   * @retval HAL status.
1168:Drivers/STM32F4xx_HAL_Driver/Src/stm32f4xx_hal_can.c ****   */
ARM GAS  /var/folders/7p/1_dhylqx7nl5s8914_0f_4w00000gn/T//ccPpXWzH.s 			page 61


1169:Drivers/STM32F4xx_HAL_Driver/Src/stm32f4xx_hal_can.c **** HAL_StatusTypeDef HAL_CAN_WakeUp(CAN_HandleTypeDef* hcan)
1170:Drivers/STM32F4xx_HAL_Driver/Src/stm32f4xx_hal_can.c **** {
 2040              		.loc 1 1170 0
 2041              		.cfi_startproc
 2042              		@ args = 0, pretend = 0, frame = 0
 2043              		@ frame_needed = 0, uses_anonymous_args = 0
 2044              	.LVL128:
 2045 0000 38B5     		push	{r3, r4, r5, lr}
 2046              	.LCFI20:
 2047              		.cfi_def_cfa_offset 16
 2048              		.cfi_offset 3, -16
 2049              		.cfi_offset 4, -12
 2050              		.cfi_offset 5, -8
 2051              		.cfi_offset 14, -4
 2052              	.LVL129:
1171:Drivers/STM32F4xx_HAL_Driver/Src/stm32f4xx_hal_can.c ****   uint32_t tickstart = 0U;
1172:Drivers/STM32F4xx_HAL_Driver/Src/stm32f4xx_hal_can.c ****     
1173:Drivers/STM32F4xx_HAL_Driver/Src/stm32f4xx_hal_can.c ****   /* Process locked */
1174:Drivers/STM32F4xx_HAL_Driver/Src/stm32f4xx_hal_can.c ****   __HAL_LOCK(hcan);
 2053              		.loc 1 1174 0
 2054 0002 90F83D30 		ldrb	r3, [r0, #61]	@ zero_extendqisi2
 2055 0006 012B     		cmp	r3, #1
 2056 0008 01D1     		bne	.L230
 2057 000a 0220     		movs	r0, #2
 2058              	.LVL130:
1175:Drivers/STM32F4xx_HAL_Driver/Src/stm32f4xx_hal_can.c ****   
1176:Drivers/STM32F4xx_HAL_Driver/Src/stm32f4xx_hal_can.c ****   /* Change CAN state */
1177:Drivers/STM32F4xx_HAL_Driver/Src/stm32f4xx_hal_can.c ****   hcan->State = HAL_CAN_STATE_BUSY;  
1178:Drivers/STM32F4xx_HAL_Driver/Src/stm32f4xx_hal_can.c ****  
1179:Drivers/STM32F4xx_HAL_Driver/Src/stm32f4xx_hal_can.c ****   /* Wake up request */
1180:Drivers/STM32F4xx_HAL_Driver/Src/stm32f4xx_hal_can.c ****   hcan->Instance->MCR &= ~(uint32_t)CAN_MCR_SLEEP;
1181:Drivers/STM32F4xx_HAL_Driver/Src/stm32f4xx_hal_can.c **** 
1182:Drivers/STM32F4xx_HAL_Driver/Src/stm32f4xx_hal_can.c ****   /* Get tick */ 
1183:Drivers/STM32F4xx_HAL_Driver/Src/stm32f4xx_hal_can.c ****   tickstart = HAL_GetTick();
1184:Drivers/STM32F4xx_HAL_Driver/Src/stm32f4xx_hal_can.c **** 
1185:Drivers/STM32F4xx_HAL_Driver/Src/stm32f4xx_hal_can.c ****   /* Sleep mode status */
1186:Drivers/STM32F4xx_HAL_Driver/Src/stm32f4xx_hal_can.c ****   while((hcan->Instance->MSR & CAN_MSR_SLAK) == CAN_MSR_SLAK)
1187:Drivers/STM32F4xx_HAL_Driver/Src/stm32f4xx_hal_can.c ****   {
1188:Drivers/STM32F4xx_HAL_Driver/Src/stm32f4xx_hal_can.c ****     if((HAL_GetTick()  - tickstart) > CAN_TIMEOUT_VALUE)
1189:Drivers/STM32F4xx_HAL_Driver/Src/stm32f4xx_hal_can.c ****     {
1190:Drivers/STM32F4xx_HAL_Driver/Src/stm32f4xx_hal_can.c ****       hcan->State= HAL_CAN_STATE_TIMEOUT;
1191:Drivers/STM32F4xx_HAL_Driver/Src/stm32f4xx_hal_can.c ****       /* Process unlocked */
1192:Drivers/STM32F4xx_HAL_Driver/Src/stm32f4xx_hal_can.c ****       __HAL_UNLOCK(hcan);
1193:Drivers/STM32F4xx_HAL_Driver/Src/stm32f4xx_hal_can.c ****       return HAL_TIMEOUT;
1194:Drivers/STM32F4xx_HAL_Driver/Src/stm32f4xx_hal_can.c ****     }
1195:Drivers/STM32F4xx_HAL_Driver/Src/stm32f4xx_hal_can.c ****   }
1196:Drivers/STM32F4xx_HAL_Driver/Src/stm32f4xx_hal_can.c ****   if((hcan->Instance->MSR & CAN_MSR_SLAK) == CAN_MSR_SLAK)
1197:Drivers/STM32F4xx_HAL_Driver/Src/stm32f4xx_hal_can.c ****   {
1198:Drivers/STM32F4xx_HAL_Driver/Src/stm32f4xx_hal_can.c ****     /* Process unlocked */
1199:Drivers/STM32F4xx_HAL_Driver/Src/stm32f4xx_hal_can.c ****     __HAL_UNLOCK(hcan);
1200:Drivers/STM32F4xx_HAL_Driver/Src/stm32f4xx_hal_can.c ****  
1201:Drivers/STM32F4xx_HAL_Driver/Src/stm32f4xx_hal_can.c ****     /* Return function status */
1202:Drivers/STM32F4xx_HAL_Driver/Src/stm32f4xx_hal_can.c ****     return HAL_ERROR;
1203:Drivers/STM32F4xx_HAL_Driver/Src/stm32f4xx_hal_can.c ****   }
1204:Drivers/STM32F4xx_HAL_Driver/Src/stm32f4xx_hal_can.c ****   
1205:Drivers/STM32F4xx_HAL_Driver/Src/stm32f4xx_hal_can.c ****   /* Change CAN state */
1206:Drivers/STM32F4xx_HAL_Driver/Src/stm32f4xx_hal_can.c ****   hcan->State = HAL_CAN_STATE_READY; 
ARM GAS  /var/folders/7p/1_dhylqx7nl5s8914_0f_4w00000gn/T//ccPpXWzH.s 			page 62


1207:Drivers/STM32F4xx_HAL_Driver/Src/stm32f4xx_hal_can.c ****   
1208:Drivers/STM32F4xx_HAL_Driver/Src/stm32f4xx_hal_can.c ****   /* Process unlocked */
1209:Drivers/STM32F4xx_HAL_Driver/Src/stm32f4xx_hal_can.c ****   __HAL_UNLOCK(hcan);
1210:Drivers/STM32F4xx_HAL_Driver/Src/stm32f4xx_hal_can.c ****   
1211:Drivers/STM32F4xx_HAL_Driver/Src/stm32f4xx_hal_can.c ****   /* Return function status */
1212:Drivers/STM32F4xx_HAL_Driver/Src/stm32f4xx_hal_can.c ****   return HAL_OK;
1213:Drivers/STM32F4xx_HAL_Driver/Src/stm32f4xx_hal_can.c **** }
 2059              		.loc 1 1213 0
 2060 000c 38BD     		pop	{r3, r4, r5, pc}
 2061              	.LVL131:
 2062              	.L230:
 2063 000e 0446     		mov	r4, r0
1174:Drivers/STM32F4xx_HAL_Driver/Src/stm32f4xx_hal_can.c ****   
 2064              		.loc 1 1174 0 discriminator 2
 2065 0010 0123     		movs	r3, #1
 2066 0012 80F83D30 		strb	r3, [r0, #61]
1177:Drivers/STM32F4xx_HAL_Driver/Src/stm32f4xx_hal_can.c ****  
 2067              		.loc 1 1177 0 discriminator 2
 2068 0016 0223     		movs	r3, #2
 2069 0018 80F83C30 		strb	r3, [r0, #60]
1180:Drivers/STM32F4xx_HAL_Driver/Src/stm32f4xx_hal_can.c **** 
 2070              		.loc 1 1180 0 discriminator 2
 2071 001c 0268     		ldr	r2, [r0]
 2072 001e 1368     		ldr	r3, [r2]
 2073 0020 23F00203 		bic	r3, r3, #2
 2074 0024 1360     		str	r3, [r2]
1183:Drivers/STM32F4xx_HAL_Driver/Src/stm32f4xx_hal_can.c **** 
 2075              		.loc 1 1183 0 discriminator 2
 2076 0026 FFF7FEFF 		bl	HAL_GetTick
 2077              	.LVL132:
 2078 002a 0546     		mov	r5, r0
 2079              	.LVL133:
 2080              	.L225:
1186:Drivers/STM32F4xx_HAL_Driver/Src/stm32f4xx_hal_can.c ****   {
 2081              		.loc 1 1186 0
 2082 002c 2368     		ldr	r3, [r4]
 2083 002e 5A68     		ldr	r2, [r3, #4]
 2084 0030 12F0020F 		tst	r2, #2
 2085 0034 0BD0     		beq	.L231
1188:Drivers/STM32F4xx_HAL_Driver/Src/stm32f4xx_hal_can.c ****     {
 2086              		.loc 1 1188 0
 2087 0036 FFF7FEFF 		bl	HAL_GetTick
 2088              	.LVL134:
 2089 003a 401B     		subs	r0, r0, r5
 2090 003c 0A28     		cmp	r0, #10
 2091 003e F5D9     		bls	.L225
1190:Drivers/STM32F4xx_HAL_Driver/Src/stm32f4xx_hal_can.c ****       /* Process unlocked */
 2092              		.loc 1 1190 0
 2093 0040 0320     		movs	r0, #3
 2094 0042 84F83C00 		strb	r0, [r4, #60]
1192:Drivers/STM32F4xx_HAL_Driver/Src/stm32f4xx_hal_can.c ****       return HAL_TIMEOUT;
 2095              		.loc 1 1192 0
 2096 0046 0023     		movs	r3, #0
 2097 0048 84F83D30 		strb	r3, [r4, #61]
1193:Drivers/STM32F4xx_HAL_Driver/Src/stm32f4xx_hal_can.c ****     }
 2098              		.loc 1 1193 0
 2099 004c 38BD     		pop	{r3, r4, r5, pc}
ARM GAS  /var/folders/7p/1_dhylqx7nl5s8914_0f_4w00000gn/T//ccPpXWzH.s 			page 63


 2100              	.LVL135:
 2101              	.L231:
1196:Drivers/STM32F4xx_HAL_Driver/Src/stm32f4xx_hal_can.c ****   {
 2102              		.loc 1 1196 0
 2103 004e 5B68     		ldr	r3, [r3, #4]
 2104 0050 13F0020F 		tst	r3, #2
 2105 0054 06D1     		bne	.L232
1206:Drivers/STM32F4xx_HAL_Driver/Src/stm32f4xx_hal_can.c ****   
 2106              		.loc 1 1206 0
 2107 0056 0123     		movs	r3, #1
 2108 0058 84F83C30 		strb	r3, [r4, #60]
1209:Drivers/STM32F4xx_HAL_Driver/Src/stm32f4xx_hal_can.c ****   
 2109              		.loc 1 1209 0
 2110 005c 0020     		movs	r0, #0
 2111 005e 84F83D00 		strb	r0, [r4, #61]
1212:Drivers/STM32F4xx_HAL_Driver/Src/stm32f4xx_hal_can.c **** }
 2112              		.loc 1 1212 0
 2113 0062 38BD     		pop	{r3, r4, r5, pc}
 2114              	.LVL136:
 2115              	.L232:
1199:Drivers/STM32F4xx_HAL_Driver/Src/stm32f4xx_hal_can.c ****  
 2116              		.loc 1 1199 0
 2117 0064 0023     		movs	r3, #0
 2118 0066 84F83D30 		strb	r3, [r4, #61]
1202:Drivers/STM32F4xx_HAL_Driver/Src/stm32f4xx_hal_can.c ****   }
 2119              		.loc 1 1202 0
 2120 006a 0120     		movs	r0, #1
 2121 006c 38BD     		pop	{r3, r4, r5, pc}
 2122              		.cfi_endproc
 2123              	.LFE134:
 2125              		.section	.text.HAL_CAN_TxCpltCallback,"ax",%progbits
 2126              		.align	1
 2127              		.weak	HAL_CAN_TxCpltCallback
 2128              		.syntax unified
 2129              		.thumb
 2130              		.thumb_func
 2131              		.fpu fpv4-sp-d16
 2133              	HAL_CAN_TxCpltCallback:
 2134              	.LFB136:
1214:Drivers/STM32F4xx_HAL_Driver/Src/stm32f4xx_hal_can.c **** 
1215:Drivers/STM32F4xx_HAL_Driver/Src/stm32f4xx_hal_can.c **** /**
1216:Drivers/STM32F4xx_HAL_Driver/Src/stm32f4xx_hal_can.c ****   * @brief  Handles CAN interrupt request  
1217:Drivers/STM32F4xx_HAL_Driver/Src/stm32f4xx_hal_can.c ****   * @param  hcan: pointer to a CAN_HandleTypeDef structure that contains
1218:Drivers/STM32F4xx_HAL_Driver/Src/stm32f4xx_hal_can.c ****   *         the configuration information for the specified CAN.
1219:Drivers/STM32F4xx_HAL_Driver/Src/stm32f4xx_hal_can.c ****   * @retval None
1220:Drivers/STM32F4xx_HAL_Driver/Src/stm32f4xx_hal_can.c ****   */
1221:Drivers/STM32F4xx_HAL_Driver/Src/stm32f4xx_hal_can.c **** void HAL_CAN_IRQHandler(CAN_HandleTypeDef* hcan)
1222:Drivers/STM32F4xx_HAL_Driver/Src/stm32f4xx_hal_can.c **** {
1223:Drivers/STM32F4xx_HAL_Driver/Src/stm32f4xx_hal_can.c ****   uint32_t tmp1 = 0U, tmp2 = 0U, tmp3 = 0U;
1224:Drivers/STM32F4xx_HAL_Driver/Src/stm32f4xx_hal_can.c ****   uint32_t errorcode = HAL_CAN_ERROR_NONE;
1225:Drivers/STM32F4xx_HAL_Driver/Src/stm32f4xx_hal_can.c **** 
1226:Drivers/STM32F4xx_HAL_Driver/Src/stm32f4xx_hal_can.c ****   /* Check Overrun flag for FIFO0 */
1227:Drivers/STM32F4xx_HAL_Driver/Src/stm32f4xx_hal_can.c ****   tmp1 = __HAL_CAN_GET_FLAG(hcan, CAN_FLAG_FOV0);
1228:Drivers/STM32F4xx_HAL_Driver/Src/stm32f4xx_hal_can.c ****   tmp2 = __HAL_CAN_GET_IT_SOURCE(hcan, CAN_IT_FOV0);
1229:Drivers/STM32F4xx_HAL_Driver/Src/stm32f4xx_hal_can.c ****   if(tmp1 && tmp2)
1230:Drivers/STM32F4xx_HAL_Driver/Src/stm32f4xx_hal_can.c ****   {
1231:Drivers/STM32F4xx_HAL_Driver/Src/stm32f4xx_hal_can.c ****     /* Set CAN error code to FOV0 error */
ARM GAS  /var/folders/7p/1_dhylqx7nl5s8914_0f_4w00000gn/T//ccPpXWzH.s 			page 64


1232:Drivers/STM32F4xx_HAL_Driver/Src/stm32f4xx_hal_can.c ****     errorcode |= HAL_CAN_ERROR_FOV0;
1233:Drivers/STM32F4xx_HAL_Driver/Src/stm32f4xx_hal_can.c **** 
1234:Drivers/STM32F4xx_HAL_Driver/Src/stm32f4xx_hal_can.c ****     /* Clear FIFO0 Overrun Flag */
1235:Drivers/STM32F4xx_HAL_Driver/Src/stm32f4xx_hal_can.c ****     __HAL_CAN_CLEAR_FLAG(hcan, CAN_FLAG_FOV0);
1236:Drivers/STM32F4xx_HAL_Driver/Src/stm32f4xx_hal_can.c ****   }
1237:Drivers/STM32F4xx_HAL_Driver/Src/stm32f4xx_hal_can.c ****   /* Check Overrun flag for FIFO1 */
1238:Drivers/STM32F4xx_HAL_Driver/Src/stm32f4xx_hal_can.c ****   tmp1 = __HAL_CAN_GET_FLAG(hcan, CAN_FLAG_FOV1);
1239:Drivers/STM32F4xx_HAL_Driver/Src/stm32f4xx_hal_can.c ****   tmp2 = __HAL_CAN_GET_IT_SOURCE(hcan, CAN_IT_FOV1);
1240:Drivers/STM32F4xx_HAL_Driver/Src/stm32f4xx_hal_can.c **** 
1241:Drivers/STM32F4xx_HAL_Driver/Src/stm32f4xx_hal_can.c ****   if(tmp1 && tmp2)
1242:Drivers/STM32F4xx_HAL_Driver/Src/stm32f4xx_hal_can.c ****   {
1243:Drivers/STM32F4xx_HAL_Driver/Src/stm32f4xx_hal_can.c ****     /* Set CAN error code to FOV1 error */
1244:Drivers/STM32F4xx_HAL_Driver/Src/stm32f4xx_hal_can.c ****     errorcode |= HAL_CAN_ERROR_FOV1;
1245:Drivers/STM32F4xx_HAL_Driver/Src/stm32f4xx_hal_can.c **** 
1246:Drivers/STM32F4xx_HAL_Driver/Src/stm32f4xx_hal_can.c ****     /* Clear FIFO1 Overrun Flag */
1247:Drivers/STM32F4xx_HAL_Driver/Src/stm32f4xx_hal_can.c ****     __HAL_CAN_CLEAR_FLAG(hcan, CAN_FLAG_FOV1);
1248:Drivers/STM32F4xx_HAL_Driver/Src/stm32f4xx_hal_can.c ****   }
1249:Drivers/STM32F4xx_HAL_Driver/Src/stm32f4xx_hal_can.c **** 
1250:Drivers/STM32F4xx_HAL_Driver/Src/stm32f4xx_hal_can.c ****   /* Check End of transmission flag */
1251:Drivers/STM32F4xx_HAL_Driver/Src/stm32f4xx_hal_can.c ****   if(__HAL_CAN_GET_IT_SOURCE(hcan, CAN_IT_TME))
1252:Drivers/STM32F4xx_HAL_Driver/Src/stm32f4xx_hal_can.c ****   {
1253:Drivers/STM32F4xx_HAL_Driver/Src/stm32f4xx_hal_can.c ****     tmp1 = __HAL_CAN_TRANSMIT_STATUS(hcan, CAN_TXMAILBOX_0);
1254:Drivers/STM32F4xx_HAL_Driver/Src/stm32f4xx_hal_can.c ****     tmp2 = __HAL_CAN_TRANSMIT_STATUS(hcan, CAN_TXMAILBOX_1);
1255:Drivers/STM32F4xx_HAL_Driver/Src/stm32f4xx_hal_can.c ****     tmp3 = __HAL_CAN_TRANSMIT_STATUS(hcan, CAN_TXMAILBOX_2);
1256:Drivers/STM32F4xx_HAL_Driver/Src/stm32f4xx_hal_can.c ****     if(tmp1 || tmp2 || tmp3)  
1257:Drivers/STM32F4xx_HAL_Driver/Src/stm32f4xx_hal_can.c ****     {
1258:Drivers/STM32F4xx_HAL_Driver/Src/stm32f4xx_hal_can.c ****       tmp1 = __HAL_CAN_GET_FLAG(hcan, CAN_FLAG_TXOK0);
1259:Drivers/STM32F4xx_HAL_Driver/Src/stm32f4xx_hal_can.c ****       tmp2 = __HAL_CAN_GET_FLAG(hcan, CAN_FLAG_TXOK1);
1260:Drivers/STM32F4xx_HAL_Driver/Src/stm32f4xx_hal_can.c ****       tmp3 = __HAL_CAN_GET_FLAG(hcan, CAN_FLAG_TXOK2);
1261:Drivers/STM32F4xx_HAL_Driver/Src/stm32f4xx_hal_can.c ****       /* Check Transmit success */
1262:Drivers/STM32F4xx_HAL_Driver/Src/stm32f4xx_hal_can.c ****       if(tmp1 || tmp2 || tmp3)
1263:Drivers/STM32F4xx_HAL_Driver/Src/stm32f4xx_hal_can.c ****       {
1264:Drivers/STM32F4xx_HAL_Driver/Src/stm32f4xx_hal_can.c ****         /* Call transmit function */
1265:Drivers/STM32F4xx_HAL_Driver/Src/stm32f4xx_hal_can.c ****         CAN_Transmit_IT(hcan);
1266:Drivers/STM32F4xx_HAL_Driver/Src/stm32f4xx_hal_can.c ****       }
1267:Drivers/STM32F4xx_HAL_Driver/Src/stm32f4xx_hal_can.c ****       else /* Transmit failure */
1268:Drivers/STM32F4xx_HAL_Driver/Src/stm32f4xx_hal_can.c ****       {
1269:Drivers/STM32F4xx_HAL_Driver/Src/stm32f4xx_hal_can.c ****         /* Set CAN error code to TXFAIL error */
1270:Drivers/STM32F4xx_HAL_Driver/Src/stm32f4xx_hal_can.c ****         errorcode |= HAL_CAN_ERROR_TXFAIL;
1271:Drivers/STM32F4xx_HAL_Driver/Src/stm32f4xx_hal_can.c ****       }
1272:Drivers/STM32F4xx_HAL_Driver/Src/stm32f4xx_hal_can.c **** 
1273:Drivers/STM32F4xx_HAL_Driver/Src/stm32f4xx_hal_can.c ****       /* Clear transmission status flags (RQCPx and TXOKx) */
1274:Drivers/STM32F4xx_HAL_Driver/Src/stm32f4xx_hal_can.c ****       SET_BIT(hcan->Instance->TSR, CAN_TSR_RQCP0  | CAN_TSR_RQCP1  | CAN_TSR_RQCP2 | \
1275:Drivers/STM32F4xx_HAL_Driver/Src/stm32f4xx_hal_can.c ****                                    CAN_FLAG_TXOK0 | CAN_FLAG_TXOK1 | CAN_FLAG_TXOK2);
1276:Drivers/STM32F4xx_HAL_Driver/Src/stm32f4xx_hal_can.c ****     }
1277:Drivers/STM32F4xx_HAL_Driver/Src/stm32f4xx_hal_can.c ****   }
1278:Drivers/STM32F4xx_HAL_Driver/Src/stm32f4xx_hal_can.c **** 
1279:Drivers/STM32F4xx_HAL_Driver/Src/stm32f4xx_hal_can.c ****   tmp1 = __HAL_CAN_MSG_PENDING(hcan, CAN_FIFO0);
1280:Drivers/STM32F4xx_HAL_Driver/Src/stm32f4xx_hal_can.c ****   tmp2 = __HAL_CAN_GET_IT_SOURCE(hcan, CAN_IT_FMP0);
1281:Drivers/STM32F4xx_HAL_Driver/Src/stm32f4xx_hal_can.c ****   /* Check End of reception flag for FIFO0 */
1282:Drivers/STM32F4xx_HAL_Driver/Src/stm32f4xx_hal_can.c ****   if((tmp1 != 0U) && tmp2)
1283:Drivers/STM32F4xx_HAL_Driver/Src/stm32f4xx_hal_can.c ****   {
1284:Drivers/STM32F4xx_HAL_Driver/Src/stm32f4xx_hal_can.c ****     /* Call receive function */
1285:Drivers/STM32F4xx_HAL_Driver/Src/stm32f4xx_hal_can.c ****     CAN_Receive_IT(hcan, CAN_FIFO0);
1286:Drivers/STM32F4xx_HAL_Driver/Src/stm32f4xx_hal_can.c ****   }
1287:Drivers/STM32F4xx_HAL_Driver/Src/stm32f4xx_hal_can.c **** 
1288:Drivers/STM32F4xx_HAL_Driver/Src/stm32f4xx_hal_can.c ****   tmp1 = __HAL_CAN_MSG_PENDING(hcan, CAN_FIFO1);
ARM GAS  /var/folders/7p/1_dhylqx7nl5s8914_0f_4w00000gn/T//ccPpXWzH.s 			page 65


1289:Drivers/STM32F4xx_HAL_Driver/Src/stm32f4xx_hal_can.c ****   tmp2 = __HAL_CAN_GET_IT_SOURCE(hcan, CAN_IT_FMP1);
1290:Drivers/STM32F4xx_HAL_Driver/Src/stm32f4xx_hal_can.c ****   /* Check End of reception flag for FIFO1 */
1291:Drivers/STM32F4xx_HAL_Driver/Src/stm32f4xx_hal_can.c ****   if((tmp1 != 0U) && tmp2)
1292:Drivers/STM32F4xx_HAL_Driver/Src/stm32f4xx_hal_can.c ****   {
1293:Drivers/STM32F4xx_HAL_Driver/Src/stm32f4xx_hal_can.c ****     /* Call receive function */
1294:Drivers/STM32F4xx_HAL_Driver/Src/stm32f4xx_hal_can.c ****     CAN_Receive_IT(hcan, CAN_FIFO1);
1295:Drivers/STM32F4xx_HAL_Driver/Src/stm32f4xx_hal_can.c ****   }
1296:Drivers/STM32F4xx_HAL_Driver/Src/stm32f4xx_hal_can.c **** 
1297:Drivers/STM32F4xx_HAL_Driver/Src/stm32f4xx_hal_can.c ****   /* Set error code in handle */
1298:Drivers/STM32F4xx_HAL_Driver/Src/stm32f4xx_hal_can.c ****   hcan->ErrorCode |= errorcode;
1299:Drivers/STM32F4xx_HAL_Driver/Src/stm32f4xx_hal_can.c **** 
1300:Drivers/STM32F4xx_HAL_Driver/Src/stm32f4xx_hal_can.c ****   tmp1 = __HAL_CAN_GET_FLAG(hcan, CAN_FLAG_EWG);
1301:Drivers/STM32F4xx_HAL_Driver/Src/stm32f4xx_hal_can.c ****   tmp2 = __HAL_CAN_GET_IT_SOURCE(hcan, CAN_IT_EWG);
1302:Drivers/STM32F4xx_HAL_Driver/Src/stm32f4xx_hal_can.c ****   tmp3 = __HAL_CAN_GET_IT_SOURCE(hcan, CAN_IT_ERR);
1303:Drivers/STM32F4xx_HAL_Driver/Src/stm32f4xx_hal_can.c ****   /* Check Error Warning Flag */
1304:Drivers/STM32F4xx_HAL_Driver/Src/stm32f4xx_hal_can.c ****   if(tmp1 && tmp2 && tmp3)
1305:Drivers/STM32F4xx_HAL_Driver/Src/stm32f4xx_hal_can.c ****   {
1306:Drivers/STM32F4xx_HAL_Driver/Src/stm32f4xx_hal_can.c ****     /* Set CAN error code to EWG error */
1307:Drivers/STM32F4xx_HAL_Driver/Src/stm32f4xx_hal_can.c ****     hcan->ErrorCode |= HAL_CAN_ERROR_EWG;
1308:Drivers/STM32F4xx_HAL_Driver/Src/stm32f4xx_hal_can.c ****   }
1309:Drivers/STM32F4xx_HAL_Driver/Src/stm32f4xx_hal_can.c ****   
1310:Drivers/STM32F4xx_HAL_Driver/Src/stm32f4xx_hal_can.c ****   tmp1 = __HAL_CAN_GET_FLAG(hcan, CAN_FLAG_EPV);
1311:Drivers/STM32F4xx_HAL_Driver/Src/stm32f4xx_hal_can.c ****   tmp2 = __HAL_CAN_GET_IT_SOURCE(hcan, CAN_IT_EPV);
1312:Drivers/STM32F4xx_HAL_Driver/Src/stm32f4xx_hal_can.c ****   tmp3 = __HAL_CAN_GET_IT_SOURCE(hcan, CAN_IT_ERR); 
1313:Drivers/STM32F4xx_HAL_Driver/Src/stm32f4xx_hal_can.c ****   /* Check Error Passive Flag */
1314:Drivers/STM32F4xx_HAL_Driver/Src/stm32f4xx_hal_can.c ****   if(tmp1 && tmp2 && tmp3)
1315:Drivers/STM32F4xx_HAL_Driver/Src/stm32f4xx_hal_can.c ****   {
1316:Drivers/STM32F4xx_HAL_Driver/Src/stm32f4xx_hal_can.c ****     /* Set CAN error code to EPV error */
1317:Drivers/STM32F4xx_HAL_Driver/Src/stm32f4xx_hal_can.c ****     hcan->ErrorCode |= HAL_CAN_ERROR_EPV;
1318:Drivers/STM32F4xx_HAL_Driver/Src/stm32f4xx_hal_can.c ****   }
1319:Drivers/STM32F4xx_HAL_Driver/Src/stm32f4xx_hal_can.c ****   
1320:Drivers/STM32F4xx_HAL_Driver/Src/stm32f4xx_hal_can.c ****   tmp1 = __HAL_CAN_GET_FLAG(hcan, CAN_FLAG_BOF);
1321:Drivers/STM32F4xx_HAL_Driver/Src/stm32f4xx_hal_can.c ****   tmp2 = __HAL_CAN_GET_IT_SOURCE(hcan, CAN_IT_BOF);
1322:Drivers/STM32F4xx_HAL_Driver/Src/stm32f4xx_hal_can.c ****   tmp3 = __HAL_CAN_GET_IT_SOURCE(hcan, CAN_IT_ERR);  
1323:Drivers/STM32F4xx_HAL_Driver/Src/stm32f4xx_hal_can.c ****   /* Check Bus-Off Flag */
1324:Drivers/STM32F4xx_HAL_Driver/Src/stm32f4xx_hal_can.c ****   if(tmp1 && tmp2 && tmp3)
1325:Drivers/STM32F4xx_HAL_Driver/Src/stm32f4xx_hal_can.c ****   {
1326:Drivers/STM32F4xx_HAL_Driver/Src/stm32f4xx_hal_can.c ****     /* Set CAN error code to BOF error */
1327:Drivers/STM32F4xx_HAL_Driver/Src/stm32f4xx_hal_can.c ****     hcan->ErrorCode |= HAL_CAN_ERROR_BOF;
1328:Drivers/STM32F4xx_HAL_Driver/Src/stm32f4xx_hal_can.c ****   }
1329:Drivers/STM32F4xx_HAL_Driver/Src/stm32f4xx_hal_can.c ****   
1330:Drivers/STM32F4xx_HAL_Driver/Src/stm32f4xx_hal_can.c ****   tmp1 = HAL_IS_BIT_CLR(hcan->Instance->ESR, CAN_ESR_LEC);
1331:Drivers/STM32F4xx_HAL_Driver/Src/stm32f4xx_hal_can.c ****   tmp2 = __HAL_CAN_GET_IT_SOURCE(hcan, CAN_IT_LEC);
1332:Drivers/STM32F4xx_HAL_Driver/Src/stm32f4xx_hal_can.c ****   tmp3 = __HAL_CAN_GET_IT_SOURCE(hcan, CAN_IT_ERR);
1333:Drivers/STM32F4xx_HAL_Driver/Src/stm32f4xx_hal_can.c ****   /* Check Last error code Flag */
1334:Drivers/STM32F4xx_HAL_Driver/Src/stm32f4xx_hal_can.c ****   if((!tmp1) && tmp2 && tmp3)
1335:Drivers/STM32F4xx_HAL_Driver/Src/stm32f4xx_hal_can.c ****   {
1336:Drivers/STM32F4xx_HAL_Driver/Src/stm32f4xx_hal_can.c ****     tmp1 = (hcan->Instance->ESR) & CAN_ESR_LEC;
1337:Drivers/STM32F4xx_HAL_Driver/Src/stm32f4xx_hal_can.c ****     switch(tmp1)
1338:Drivers/STM32F4xx_HAL_Driver/Src/stm32f4xx_hal_can.c ****     {
1339:Drivers/STM32F4xx_HAL_Driver/Src/stm32f4xx_hal_can.c ****       case(CAN_ESR_LEC_0):
1340:Drivers/STM32F4xx_HAL_Driver/Src/stm32f4xx_hal_can.c ****           /* Set CAN error code to STF error */
1341:Drivers/STM32F4xx_HAL_Driver/Src/stm32f4xx_hal_can.c ****           hcan->ErrorCode |= HAL_CAN_ERROR_STF;
1342:Drivers/STM32F4xx_HAL_Driver/Src/stm32f4xx_hal_can.c ****           break;
1343:Drivers/STM32F4xx_HAL_Driver/Src/stm32f4xx_hal_can.c ****       case(CAN_ESR_LEC_1):
1344:Drivers/STM32F4xx_HAL_Driver/Src/stm32f4xx_hal_can.c ****           /* Set CAN error code to FOR error */
1345:Drivers/STM32F4xx_HAL_Driver/Src/stm32f4xx_hal_can.c ****           hcan->ErrorCode |= HAL_CAN_ERROR_FOR;
ARM GAS  /var/folders/7p/1_dhylqx7nl5s8914_0f_4w00000gn/T//ccPpXWzH.s 			page 66


1346:Drivers/STM32F4xx_HAL_Driver/Src/stm32f4xx_hal_can.c ****           break;
1347:Drivers/STM32F4xx_HAL_Driver/Src/stm32f4xx_hal_can.c ****       case(CAN_ESR_LEC_1 | CAN_ESR_LEC_0):
1348:Drivers/STM32F4xx_HAL_Driver/Src/stm32f4xx_hal_can.c ****           /* Set CAN error code to ACK error */
1349:Drivers/STM32F4xx_HAL_Driver/Src/stm32f4xx_hal_can.c ****           hcan->ErrorCode |= HAL_CAN_ERROR_ACK;
1350:Drivers/STM32F4xx_HAL_Driver/Src/stm32f4xx_hal_can.c ****           break;
1351:Drivers/STM32F4xx_HAL_Driver/Src/stm32f4xx_hal_can.c ****       case(CAN_ESR_LEC_2):
1352:Drivers/STM32F4xx_HAL_Driver/Src/stm32f4xx_hal_can.c ****           /* Set CAN error code to BR error */
1353:Drivers/STM32F4xx_HAL_Driver/Src/stm32f4xx_hal_can.c ****           hcan->ErrorCode |= HAL_CAN_ERROR_BR;
1354:Drivers/STM32F4xx_HAL_Driver/Src/stm32f4xx_hal_can.c ****           break;
1355:Drivers/STM32F4xx_HAL_Driver/Src/stm32f4xx_hal_can.c ****       case(CAN_ESR_LEC_2 | CAN_ESR_LEC_0):
1356:Drivers/STM32F4xx_HAL_Driver/Src/stm32f4xx_hal_can.c ****           /* Set CAN error code to BD error */
1357:Drivers/STM32F4xx_HAL_Driver/Src/stm32f4xx_hal_can.c ****           hcan->ErrorCode |= HAL_CAN_ERROR_BD;
1358:Drivers/STM32F4xx_HAL_Driver/Src/stm32f4xx_hal_can.c ****           break;
1359:Drivers/STM32F4xx_HAL_Driver/Src/stm32f4xx_hal_can.c ****       case(CAN_ESR_LEC_2 | CAN_ESR_LEC_1):
1360:Drivers/STM32F4xx_HAL_Driver/Src/stm32f4xx_hal_can.c ****           /* Set CAN error code to CRC error */
1361:Drivers/STM32F4xx_HAL_Driver/Src/stm32f4xx_hal_can.c ****           hcan->ErrorCode |= HAL_CAN_ERROR_CRC;
1362:Drivers/STM32F4xx_HAL_Driver/Src/stm32f4xx_hal_can.c ****           break;
1363:Drivers/STM32F4xx_HAL_Driver/Src/stm32f4xx_hal_can.c ****       default:
1364:Drivers/STM32F4xx_HAL_Driver/Src/stm32f4xx_hal_can.c ****           break;
1365:Drivers/STM32F4xx_HAL_Driver/Src/stm32f4xx_hal_can.c ****     }
1366:Drivers/STM32F4xx_HAL_Driver/Src/stm32f4xx_hal_can.c **** 
1367:Drivers/STM32F4xx_HAL_Driver/Src/stm32f4xx_hal_can.c ****     /* Clear Last error code Flag */ 
1368:Drivers/STM32F4xx_HAL_Driver/Src/stm32f4xx_hal_can.c ****     hcan->Instance->ESR &= ~(CAN_ESR_LEC);
1369:Drivers/STM32F4xx_HAL_Driver/Src/stm32f4xx_hal_can.c ****   }
1370:Drivers/STM32F4xx_HAL_Driver/Src/stm32f4xx_hal_can.c ****   
1371:Drivers/STM32F4xx_HAL_Driver/Src/stm32f4xx_hal_can.c ****   /* Call the Error call Back in case of Errors */
1372:Drivers/STM32F4xx_HAL_Driver/Src/stm32f4xx_hal_can.c ****   if(hcan->ErrorCode != HAL_CAN_ERROR_NONE)
1373:Drivers/STM32F4xx_HAL_Driver/Src/stm32f4xx_hal_can.c ****   {
1374:Drivers/STM32F4xx_HAL_Driver/Src/stm32f4xx_hal_can.c ****     /* Clear ERRI Flag */ 
1375:Drivers/STM32F4xx_HAL_Driver/Src/stm32f4xx_hal_can.c ****     hcan->Instance->MSR = CAN_MSR_ERRI; 
1376:Drivers/STM32F4xx_HAL_Driver/Src/stm32f4xx_hal_can.c ****     /* Set the CAN state ready to be able to start again the process */
1377:Drivers/STM32F4xx_HAL_Driver/Src/stm32f4xx_hal_can.c ****     hcan->State = HAL_CAN_STATE_READY;
1378:Drivers/STM32F4xx_HAL_Driver/Src/stm32f4xx_hal_can.c **** 
1379:Drivers/STM32F4xx_HAL_Driver/Src/stm32f4xx_hal_can.c ****     /* Disable interrupts: */
1380:Drivers/STM32F4xx_HAL_Driver/Src/stm32f4xx_hal_can.c ****     /*  - Disable Error warning Interrupt */
1381:Drivers/STM32F4xx_HAL_Driver/Src/stm32f4xx_hal_can.c ****     /*  - Disable Error passive Interrupt */
1382:Drivers/STM32F4xx_HAL_Driver/Src/stm32f4xx_hal_can.c ****     /*  - Disable Bus-off Interrupt */
1383:Drivers/STM32F4xx_HAL_Driver/Src/stm32f4xx_hal_can.c ****     /*  - Disable Last error code Interrupt */
1384:Drivers/STM32F4xx_HAL_Driver/Src/stm32f4xx_hal_can.c ****     /*  - Disable Error Interrupt */
1385:Drivers/STM32F4xx_HAL_Driver/Src/stm32f4xx_hal_can.c ****     /*  - Disable FIFO 0 message pending Interrupt */
1386:Drivers/STM32F4xx_HAL_Driver/Src/stm32f4xx_hal_can.c ****     /*  - Disable FIFO 0 Overrun Interrupt */
1387:Drivers/STM32F4xx_HAL_Driver/Src/stm32f4xx_hal_can.c ****     /*  - Disable FIFO 1 message pending Interrupt */
1388:Drivers/STM32F4xx_HAL_Driver/Src/stm32f4xx_hal_can.c ****     /*  - Disable FIFO 1 Overrun Interrupt */
1389:Drivers/STM32F4xx_HAL_Driver/Src/stm32f4xx_hal_can.c ****     /*  - Disable Transmit mailbox empty Interrupt */
1390:Drivers/STM32F4xx_HAL_Driver/Src/stm32f4xx_hal_can.c ****     __HAL_CAN_DISABLE_IT(hcan, CAN_IT_EWG |
1391:Drivers/STM32F4xx_HAL_Driver/Src/stm32f4xx_hal_can.c ****                                CAN_IT_EPV |
1392:Drivers/STM32F4xx_HAL_Driver/Src/stm32f4xx_hal_can.c ****                                CAN_IT_BOF |
1393:Drivers/STM32F4xx_HAL_Driver/Src/stm32f4xx_hal_can.c ****                                CAN_IT_LEC |
1394:Drivers/STM32F4xx_HAL_Driver/Src/stm32f4xx_hal_can.c ****                                CAN_IT_ERR |
1395:Drivers/STM32F4xx_HAL_Driver/Src/stm32f4xx_hal_can.c ****                                CAN_IT_FMP0|
1396:Drivers/STM32F4xx_HAL_Driver/Src/stm32f4xx_hal_can.c ****                                CAN_IT_FOV0|
1397:Drivers/STM32F4xx_HAL_Driver/Src/stm32f4xx_hal_can.c ****                                CAN_IT_FMP1|
1398:Drivers/STM32F4xx_HAL_Driver/Src/stm32f4xx_hal_can.c ****                                CAN_IT_FOV1|
1399:Drivers/STM32F4xx_HAL_Driver/Src/stm32f4xx_hal_can.c ****                                CAN_IT_TME);
1400:Drivers/STM32F4xx_HAL_Driver/Src/stm32f4xx_hal_can.c **** 
1401:Drivers/STM32F4xx_HAL_Driver/Src/stm32f4xx_hal_can.c ****     /* Call Error callback function */
1402:Drivers/STM32F4xx_HAL_Driver/Src/stm32f4xx_hal_can.c ****     HAL_CAN_ErrorCallback(hcan);
ARM GAS  /var/folders/7p/1_dhylqx7nl5s8914_0f_4w00000gn/T//ccPpXWzH.s 			page 67


1403:Drivers/STM32F4xx_HAL_Driver/Src/stm32f4xx_hal_can.c ****   }  
1404:Drivers/STM32F4xx_HAL_Driver/Src/stm32f4xx_hal_can.c **** }
1405:Drivers/STM32F4xx_HAL_Driver/Src/stm32f4xx_hal_can.c **** 
1406:Drivers/STM32F4xx_HAL_Driver/Src/stm32f4xx_hal_can.c **** /**
1407:Drivers/STM32F4xx_HAL_Driver/Src/stm32f4xx_hal_can.c ****   * @brief  Transmission  complete callback in non blocking mode 
1408:Drivers/STM32F4xx_HAL_Driver/Src/stm32f4xx_hal_can.c ****   * @param  hcan: pointer to a CAN_HandleTypeDef structure that contains
1409:Drivers/STM32F4xx_HAL_Driver/Src/stm32f4xx_hal_can.c ****   *         the configuration information for the specified CAN.
1410:Drivers/STM32F4xx_HAL_Driver/Src/stm32f4xx_hal_can.c ****   * @retval None
1411:Drivers/STM32F4xx_HAL_Driver/Src/stm32f4xx_hal_can.c ****   */
1412:Drivers/STM32F4xx_HAL_Driver/Src/stm32f4xx_hal_can.c **** __weak void HAL_CAN_TxCpltCallback(CAN_HandleTypeDef* hcan)
1413:Drivers/STM32F4xx_HAL_Driver/Src/stm32f4xx_hal_can.c **** {
 2135              		.loc 1 1413 0
 2136              		.cfi_startproc
 2137              		@ args = 0, pretend = 0, frame = 0
 2138              		@ frame_needed = 0, uses_anonymous_args = 0
 2139              		@ link register save eliminated.
 2140              	.LVL137:
 2141 0000 7047     		bx	lr
 2142              		.cfi_endproc
 2143              	.LFE136:
 2145              		.section	.text.CAN_Transmit_IT,"ax",%progbits
 2146              		.align	1
 2147              		.syntax unified
 2148              		.thumb
 2149              		.thumb_func
 2150              		.fpu fpv4-sp-d16
 2152              	CAN_Transmit_IT:
 2153              	.LFB141:
1414:Drivers/STM32F4xx_HAL_Driver/Src/stm32f4xx_hal_can.c ****   /* Prevent unused argument(s) compilation warning */
1415:Drivers/STM32F4xx_HAL_Driver/Src/stm32f4xx_hal_can.c ****   UNUSED(hcan);
1416:Drivers/STM32F4xx_HAL_Driver/Src/stm32f4xx_hal_can.c ****   /* NOTE : This function Should not be modified, when the callback is needed,
1417:Drivers/STM32F4xx_HAL_Driver/Src/stm32f4xx_hal_can.c ****             the HAL_CAN_TxCpltCallback could be implemented in the user file
1418:Drivers/STM32F4xx_HAL_Driver/Src/stm32f4xx_hal_can.c ****    */
1419:Drivers/STM32F4xx_HAL_Driver/Src/stm32f4xx_hal_can.c **** }
1420:Drivers/STM32F4xx_HAL_Driver/Src/stm32f4xx_hal_can.c **** 
1421:Drivers/STM32F4xx_HAL_Driver/Src/stm32f4xx_hal_can.c **** /**
1422:Drivers/STM32F4xx_HAL_Driver/Src/stm32f4xx_hal_can.c ****   * @brief  Transmission  complete callback in non blocking mode 
1423:Drivers/STM32F4xx_HAL_Driver/Src/stm32f4xx_hal_can.c ****   * @param  hcan: pointer to a CAN_HandleTypeDef structure that contains
1424:Drivers/STM32F4xx_HAL_Driver/Src/stm32f4xx_hal_can.c ****   *         the configuration information for the specified CAN.
1425:Drivers/STM32F4xx_HAL_Driver/Src/stm32f4xx_hal_can.c ****   * @retval None
1426:Drivers/STM32F4xx_HAL_Driver/Src/stm32f4xx_hal_can.c ****   */
1427:Drivers/STM32F4xx_HAL_Driver/Src/stm32f4xx_hal_can.c **** __weak void HAL_CAN_RxCpltCallback(CAN_HandleTypeDef* hcan)
1428:Drivers/STM32F4xx_HAL_Driver/Src/stm32f4xx_hal_can.c **** {
1429:Drivers/STM32F4xx_HAL_Driver/Src/stm32f4xx_hal_can.c ****   /* Prevent unused argument(s) compilation warning */
1430:Drivers/STM32F4xx_HAL_Driver/Src/stm32f4xx_hal_can.c ****   UNUSED(hcan);
1431:Drivers/STM32F4xx_HAL_Driver/Src/stm32f4xx_hal_can.c ****   /* NOTE : This function Should not be modified, when the callback is needed,
1432:Drivers/STM32F4xx_HAL_Driver/Src/stm32f4xx_hal_can.c ****             the HAL_CAN_RxCpltCallback could be implemented in the user file
1433:Drivers/STM32F4xx_HAL_Driver/Src/stm32f4xx_hal_can.c ****    */
1434:Drivers/STM32F4xx_HAL_Driver/Src/stm32f4xx_hal_can.c **** }
1435:Drivers/STM32F4xx_HAL_Driver/Src/stm32f4xx_hal_can.c **** 
1436:Drivers/STM32F4xx_HAL_Driver/Src/stm32f4xx_hal_can.c **** /**
1437:Drivers/STM32F4xx_HAL_Driver/Src/stm32f4xx_hal_can.c ****   * @brief  Error CAN callback.
1438:Drivers/STM32F4xx_HAL_Driver/Src/stm32f4xx_hal_can.c ****   * @param  hcan: pointer to a CAN_HandleTypeDef structure that contains
1439:Drivers/STM32F4xx_HAL_Driver/Src/stm32f4xx_hal_can.c ****   *         the configuration information for the specified CAN.
1440:Drivers/STM32F4xx_HAL_Driver/Src/stm32f4xx_hal_can.c ****   * @retval None
1441:Drivers/STM32F4xx_HAL_Driver/Src/stm32f4xx_hal_can.c ****   */
1442:Drivers/STM32F4xx_HAL_Driver/Src/stm32f4xx_hal_can.c **** __weak void HAL_CAN_ErrorCallback(CAN_HandleTypeDef *hcan)
ARM GAS  /var/folders/7p/1_dhylqx7nl5s8914_0f_4w00000gn/T//ccPpXWzH.s 			page 68


1443:Drivers/STM32F4xx_HAL_Driver/Src/stm32f4xx_hal_can.c **** {
1444:Drivers/STM32F4xx_HAL_Driver/Src/stm32f4xx_hal_can.c ****   /* Prevent unused argument(s) compilation warning */
1445:Drivers/STM32F4xx_HAL_Driver/Src/stm32f4xx_hal_can.c ****   UNUSED(hcan);
1446:Drivers/STM32F4xx_HAL_Driver/Src/stm32f4xx_hal_can.c ****   /* NOTE : This function Should not be modified, when the callback is needed,
1447:Drivers/STM32F4xx_HAL_Driver/Src/stm32f4xx_hal_can.c ****             the HAL_CAN_ErrorCallback could be implemented in the user file
1448:Drivers/STM32F4xx_HAL_Driver/Src/stm32f4xx_hal_can.c ****    */
1449:Drivers/STM32F4xx_HAL_Driver/Src/stm32f4xx_hal_can.c **** }
1450:Drivers/STM32F4xx_HAL_Driver/Src/stm32f4xx_hal_can.c **** 
1451:Drivers/STM32F4xx_HAL_Driver/Src/stm32f4xx_hal_can.c **** /**
1452:Drivers/STM32F4xx_HAL_Driver/Src/stm32f4xx_hal_can.c ****   * @}
1453:Drivers/STM32F4xx_HAL_Driver/Src/stm32f4xx_hal_can.c ****   */
1454:Drivers/STM32F4xx_HAL_Driver/Src/stm32f4xx_hal_can.c **** 
1455:Drivers/STM32F4xx_HAL_Driver/Src/stm32f4xx_hal_can.c **** /** @defgroup CAN_Exported_Functions_Group3 Peripheral State and Error functions
1456:Drivers/STM32F4xx_HAL_Driver/Src/stm32f4xx_hal_can.c ****   *  @brief   CAN Peripheral State functions 
1457:Drivers/STM32F4xx_HAL_Driver/Src/stm32f4xx_hal_can.c ****   *
1458:Drivers/STM32F4xx_HAL_Driver/Src/stm32f4xx_hal_can.c **** @verbatim   
1459:Drivers/STM32F4xx_HAL_Driver/Src/stm32f4xx_hal_can.c ****   ==============================================================================
1460:Drivers/STM32F4xx_HAL_Driver/Src/stm32f4xx_hal_can.c ****             ##### Peripheral State and Error functions #####
1461:Drivers/STM32F4xx_HAL_Driver/Src/stm32f4xx_hal_can.c ****   ==============================================================================
1462:Drivers/STM32F4xx_HAL_Driver/Src/stm32f4xx_hal_can.c ****     [..]
1463:Drivers/STM32F4xx_HAL_Driver/Src/stm32f4xx_hal_can.c ****     This subsection provides functions allowing to :
1464:Drivers/STM32F4xx_HAL_Driver/Src/stm32f4xx_hal_can.c ****       (+) Check the CAN state.
1465:Drivers/STM32F4xx_HAL_Driver/Src/stm32f4xx_hal_can.c ****       (+) Check CAN Errors detected during interrupt process
1466:Drivers/STM32F4xx_HAL_Driver/Src/stm32f4xx_hal_can.c ****          
1467:Drivers/STM32F4xx_HAL_Driver/Src/stm32f4xx_hal_can.c **** @endverbatim
1468:Drivers/STM32F4xx_HAL_Driver/Src/stm32f4xx_hal_can.c ****   * @{
1469:Drivers/STM32F4xx_HAL_Driver/Src/stm32f4xx_hal_can.c ****   */
1470:Drivers/STM32F4xx_HAL_Driver/Src/stm32f4xx_hal_can.c **** 
1471:Drivers/STM32F4xx_HAL_Driver/Src/stm32f4xx_hal_can.c **** /**
1472:Drivers/STM32F4xx_HAL_Driver/Src/stm32f4xx_hal_can.c ****   * @brief  return the CAN state
1473:Drivers/STM32F4xx_HAL_Driver/Src/stm32f4xx_hal_can.c ****   * @param  hcan: pointer to a CAN_HandleTypeDef structure that contains
1474:Drivers/STM32F4xx_HAL_Driver/Src/stm32f4xx_hal_can.c ****   *         the configuration information for the specified CAN.
1475:Drivers/STM32F4xx_HAL_Driver/Src/stm32f4xx_hal_can.c ****   * @retval HAL state
1476:Drivers/STM32F4xx_HAL_Driver/Src/stm32f4xx_hal_can.c ****   */
1477:Drivers/STM32F4xx_HAL_Driver/Src/stm32f4xx_hal_can.c **** HAL_CAN_StateTypeDef HAL_CAN_GetState(CAN_HandleTypeDef* hcan)
1478:Drivers/STM32F4xx_HAL_Driver/Src/stm32f4xx_hal_can.c **** {
1479:Drivers/STM32F4xx_HAL_Driver/Src/stm32f4xx_hal_can.c ****   /* Return CAN state */
1480:Drivers/STM32F4xx_HAL_Driver/Src/stm32f4xx_hal_can.c ****   return hcan->State;
1481:Drivers/STM32F4xx_HAL_Driver/Src/stm32f4xx_hal_can.c **** }
1482:Drivers/STM32F4xx_HAL_Driver/Src/stm32f4xx_hal_can.c **** 
1483:Drivers/STM32F4xx_HAL_Driver/Src/stm32f4xx_hal_can.c **** /**
1484:Drivers/STM32F4xx_HAL_Driver/Src/stm32f4xx_hal_can.c ****   * @brief  Return the CAN error code
1485:Drivers/STM32F4xx_HAL_Driver/Src/stm32f4xx_hal_can.c ****   * @param  hcan: pointer to a CAN_HandleTypeDef structure that contains
1486:Drivers/STM32F4xx_HAL_Driver/Src/stm32f4xx_hal_can.c ****   *         the configuration information for the specified CAN.
1487:Drivers/STM32F4xx_HAL_Driver/Src/stm32f4xx_hal_can.c ****   * @retval CAN Error Code
1488:Drivers/STM32F4xx_HAL_Driver/Src/stm32f4xx_hal_can.c ****   */
1489:Drivers/STM32F4xx_HAL_Driver/Src/stm32f4xx_hal_can.c **** uint32_t HAL_CAN_GetError(CAN_HandleTypeDef *hcan)
1490:Drivers/STM32F4xx_HAL_Driver/Src/stm32f4xx_hal_can.c **** {
1491:Drivers/STM32F4xx_HAL_Driver/Src/stm32f4xx_hal_can.c ****   return hcan->ErrorCode;
1492:Drivers/STM32F4xx_HAL_Driver/Src/stm32f4xx_hal_can.c **** }
1493:Drivers/STM32F4xx_HAL_Driver/Src/stm32f4xx_hal_can.c **** 
1494:Drivers/STM32F4xx_HAL_Driver/Src/stm32f4xx_hal_can.c **** /**
1495:Drivers/STM32F4xx_HAL_Driver/Src/stm32f4xx_hal_can.c ****   * @}
1496:Drivers/STM32F4xx_HAL_Driver/Src/stm32f4xx_hal_can.c ****   */
1497:Drivers/STM32F4xx_HAL_Driver/Src/stm32f4xx_hal_can.c **** /**
1498:Drivers/STM32F4xx_HAL_Driver/Src/stm32f4xx_hal_can.c ****   * @brief  Initiates and transmits a CAN frame message.
1499:Drivers/STM32F4xx_HAL_Driver/Src/stm32f4xx_hal_can.c ****   * @param  hcan: pointer to a CAN_HandleTypeDef structure that contains
ARM GAS  /var/folders/7p/1_dhylqx7nl5s8914_0f_4w00000gn/T//ccPpXWzH.s 			page 69


1500:Drivers/STM32F4xx_HAL_Driver/Src/stm32f4xx_hal_can.c ****   *         the configuration information for the specified CAN.  
1501:Drivers/STM32F4xx_HAL_Driver/Src/stm32f4xx_hal_can.c ****   * @retval HAL status
1502:Drivers/STM32F4xx_HAL_Driver/Src/stm32f4xx_hal_can.c ****   */
1503:Drivers/STM32F4xx_HAL_Driver/Src/stm32f4xx_hal_can.c **** static HAL_StatusTypeDef CAN_Transmit_IT(CAN_HandleTypeDef* hcan)
1504:Drivers/STM32F4xx_HAL_Driver/Src/stm32f4xx_hal_can.c **** {
 2154              		.loc 1 1504 0
 2155              		.cfi_startproc
 2156              		@ args = 0, pretend = 0, frame = 0
 2157              		@ frame_needed = 0, uses_anonymous_args = 0
 2158              	.LVL138:
 2159              		.loc 1 1504 0
 2160 0000 08B5     		push	{r3, lr}
 2161              	.LCFI21:
 2162              		.cfi_def_cfa_offset 8
 2163              		.cfi_offset 3, -8
 2164              		.cfi_offset 14, -4
1505:Drivers/STM32F4xx_HAL_Driver/Src/stm32f4xx_hal_can.c ****   /* Disable Transmit mailbox empty Interrupt */
1506:Drivers/STM32F4xx_HAL_Driver/Src/stm32f4xx_hal_can.c ****   __HAL_CAN_DISABLE_IT(hcan, CAN_IT_TME);
 2165              		.loc 1 1506 0
 2166 0002 0268     		ldr	r2, [r0]
 2167 0004 5369     		ldr	r3, [r2, #20]
 2168 0006 23F00103 		bic	r3, r3, #1
 2169 000a 5361     		str	r3, [r2, #20]
1507:Drivers/STM32F4xx_HAL_Driver/Src/stm32f4xx_hal_can.c ****   
1508:Drivers/STM32F4xx_HAL_Driver/Src/stm32f4xx_hal_can.c ****   if(hcan->State == HAL_CAN_STATE_BUSY_TX)
 2170              		.loc 1 1508 0
 2171 000c 90F83C30 		ldrb	r3, [r0, #60]	@ zero_extendqisi2
 2172 0010 DBB2     		uxtb	r3, r3
 2173 0012 122B     		cmp	r3, #18
 2174 0014 0CD0     		beq	.L243
 2175              	.L235:
1509:Drivers/STM32F4xx_HAL_Driver/Src/stm32f4xx_hal_can.c ****   {   
1510:Drivers/STM32F4xx_HAL_Driver/Src/stm32f4xx_hal_can.c ****     /* Disable Error warning, Error passive, Bus-off, Last error code
1511:Drivers/STM32F4xx_HAL_Driver/Src/stm32f4xx_hal_can.c ****        and Error Interrupts */
1512:Drivers/STM32F4xx_HAL_Driver/Src/stm32f4xx_hal_can.c ****     __HAL_CAN_DISABLE_IT(hcan, CAN_IT_EWG |
1513:Drivers/STM32F4xx_HAL_Driver/Src/stm32f4xx_hal_can.c ****                                CAN_IT_EPV |
1514:Drivers/STM32F4xx_HAL_Driver/Src/stm32f4xx_hal_can.c ****                                CAN_IT_BOF |
1515:Drivers/STM32F4xx_HAL_Driver/Src/stm32f4xx_hal_can.c ****                                CAN_IT_LEC |
