ARM GAS  /var/folders/7p/1_dhylqx7nl5s8914_0f_4w00000gn/T//ccOYnT7N.s 			page 1


   1              		.cpu cortex-m4
   2              		.eabi_attribute 27, 1
   3              		.eabi_attribute 28, 1
   4              		.eabi_attribute 20, 1
   5              		.eabi_attribute 21, 1
   6              		.eabi_attribute 23, 3
   7              		.eabi_attribute 24, 1
   8              		.eabi_attribute 25, 1
   9              		.eabi_attribute 26, 1
  10              		.eabi_attribute 30, 1
  11              		.eabi_attribute 34, 1
  12              		.eabi_attribute 18, 4
  13              		.file	"stm32f4xx_hal_msp.c"
  14              		.text
  15              	.Ltext0:
  16              		.cfi_sections	.debug_frame
  17              		.section	.text.HAL_MspInit,"ax",%progbits
  18              		.align	1
  19              		.global	HAL_MspInit
  20              		.syntax unified
  21              		.thumb
  22              		.thumb_func
  23              		.fpu fpv4-sp-d16
  25              	HAL_MspInit:
  26              	.LFB124:
  27              		.file 1 "Src/stm32f4xx_hal_msp.c"
   1:Src/stm32f4xx_hal_msp.c **** /**
   2:Src/stm32f4xx_hal_msp.c ****   ******************************************************************************
   3:Src/stm32f4xx_hal_msp.c ****   * File Name          : stm32f4xx_hal_msp.c
   4:Src/stm32f4xx_hal_msp.c ****   * Description        : This file provides code for the MSP Initialization 
   5:Src/stm32f4xx_hal_msp.c ****   *                      and de-Initialization codes.
   6:Src/stm32f4xx_hal_msp.c ****   ******************************************************************************
   7:Src/stm32f4xx_hal_msp.c ****   * This notice applies to any and all portions of this file
   8:Src/stm32f4xx_hal_msp.c ****   * that are not between comment pairs USER CODE BEGIN and
   9:Src/stm32f4xx_hal_msp.c ****   * USER CODE END. Other portions of this file, whether 
  10:Src/stm32f4xx_hal_msp.c ****   * inserted by the user or by software development tools
  11:Src/stm32f4xx_hal_msp.c ****   * are owned by their respective copyright owners.
  12:Src/stm32f4xx_hal_msp.c ****   *
  13:Src/stm32f4xx_hal_msp.c ****   * Copyright (c) 2018 STMicroelectronics International N.V. 
  14:Src/stm32f4xx_hal_msp.c ****   * All rights reserved.
  15:Src/stm32f4xx_hal_msp.c ****   *
  16:Src/stm32f4xx_hal_msp.c ****   * Redistribution and use in source and binary forms, with or without 
  17:Src/stm32f4xx_hal_msp.c ****   * modification, are permitted, provided that the following conditions are met:
  18:Src/stm32f4xx_hal_msp.c ****   *
  19:Src/stm32f4xx_hal_msp.c ****   * 1. Redistribution of source code must retain the above copyright notice, 
  20:Src/stm32f4xx_hal_msp.c ****   *    this list of conditions and the following disclaimer.
  21:Src/stm32f4xx_hal_msp.c ****   * 2. Redistributions in binary form must reproduce the above copyright notice,
  22:Src/stm32f4xx_hal_msp.c ****   *    this list of conditions and the following disclaimer in the documentation
  23:Src/stm32f4xx_hal_msp.c ****   *    and/or other materials provided with the distribution.
  24:Src/stm32f4xx_hal_msp.c ****   * 3. Neither the name of STMicroelectronics nor the names of other 
  25:Src/stm32f4xx_hal_msp.c ****   *    contributors to this software may be used to endorse or promote products 
  26:Src/stm32f4xx_hal_msp.c ****   *    derived from this software without specific written permission.
  27:Src/stm32f4xx_hal_msp.c ****   * 4. This software, including modifications and/or derivative works of this 
  28:Src/stm32f4xx_hal_msp.c ****   *    software, must execute solely and exclusively on microcontroller or
  29:Src/stm32f4xx_hal_msp.c ****   *    microprocessor devices manufactured by or for STMicroelectronics.
  30:Src/stm32f4xx_hal_msp.c ****   * 5. Redistribution and use of this software other than as permitted under 
  31:Src/stm32f4xx_hal_msp.c ****   *    this license is void and will automatically terminate your rights under 
ARM GAS  /var/folders/7p/1_dhylqx7nl5s8914_0f_4w00000gn/T//ccOYnT7N.s 			page 2


  32:Src/stm32f4xx_hal_msp.c ****   *    this license. 
  33:Src/stm32f4xx_hal_msp.c ****   *
  34:Src/stm32f4xx_hal_msp.c ****   * THIS SOFTWARE IS PROVIDED BY STMICROELECTRONICS AND CONTRIBUTORS "AS IS" 
  35:Src/stm32f4xx_hal_msp.c ****   * AND ANY EXPRESS, IMPLIED OR STATUTORY WARRANTIES, INCLUDING, BUT NOT 
  36:Src/stm32f4xx_hal_msp.c ****   * LIMITED TO, THE IMPLIED WARRANTIES OF MERCHANTABILITY, FITNESS FOR A 
  37:Src/stm32f4xx_hal_msp.c ****   * PARTICULAR PURPOSE AND NON-INFRINGEMENT OF THIRD PARTY INTELLECTUAL PROPERTY
  38:Src/stm32f4xx_hal_msp.c ****   * RIGHTS ARE DISCLAIMED TO THE FULLEST EXTENT PERMITTED BY LAW. IN NO EVENT 
  39:Src/stm32f4xx_hal_msp.c ****   * SHALL STMICROELECTRONICS OR CONTRIBUTORS BE LIABLE FOR ANY DIRECT, INDIRECT,
  40:Src/stm32f4xx_hal_msp.c ****   * INCIDENTAL, SPECIAL, EXEMPLARY, OR CONSEQUENTIAL DAMAGES (INCLUDING, BUT NOT
  41:Src/stm32f4xx_hal_msp.c ****   * LIMITED TO, PROCUREMENT OF SUBSTITUTE GOODS OR SERVICES; LOSS OF USE, DATA, 
  42:Src/stm32f4xx_hal_msp.c ****   * OR PROFITS; OR BUSINESS INTERRUPTION) HOWEVER CAUSED AND ON ANY THEORY OF 
  43:Src/stm32f4xx_hal_msp.c ****   * LIABILITY, WHETHER IN CONTRACT, STRICT LIABILITY, OR TORT (INCLUDING 
  44:Src/stm32f4xx_hal_msp.c ****   * NEGLIGENCE OR OTHERWISE) ARISING IN ANY WAY OUT OF THE USE OF THIS SOFTWARE,
  45:Src/stm32f4xx_hal_msp.c ****   * EVEN IF ADVISED OF THE POSSIBILITY OF SUCH DAMAGE.
  46:Src/stm32f4xx_hal_msp.c ****   *
  47:Src/stm32f4xx_hal_msp.c ****   ******************************************************************************
  48:Src/stm32f4xx_hal_msp.c ****   */
  49:Src/stm32f4xx_hal_msp.c **** /* Includes ------------------------------------------------------------------*/
  50:Src/stm32f4xx_hal_msp.c **** #include "stm32f4xx_hal.h"
  51:Src/stm32f4xx_hal_msp.c **** 
  52:Src/stm32f4xx_hal_msp.c **** extern void _Error_Handler(char *, int);
  53:Src/stm32f4xx_hal_msp.c **** /* USER CODE BEGIN 0 */
  54:Src/stm32f4xx_hal_msp.c **** 
  55:Src/stm32f4xx_hal_msp.c **** /* USER CODE END 0 */
  56:Src/stm32f4xx_hal_msp.c **** /**
  57:Src/stm32f4xx_hal_msp.c ****   * Initializes the Global MSP.
  58:Src/stm32f4xx_hal_msp.c ****   */
  59:Src/stm32f4xx_hal_msp.c **** void HAL_MspInit(void)
  60:Src/stm32f4xx_hal_msp.c **** {
  28              		.loc 1 60 0
  29              		.cfi_startproc
  30              		@ args = 0, pretend = 0, frame = 0
  31              		@ frame_needed = 0, uses_anonymous_args = 0
  32 0000 08B5     		push	{r3, lr}
  33              	.LCFI0:
  34              		.cfi_def_cfa_offset 8
  35              		.cfi_offset 3, -8
  36              		.cfi_offset 14, -4
  61:Src/stm32f4xx_hal_msp.c ****   /* USER CODE BEGIN MspInit 0 */
  62:Src/stm32f4xx_hal_msp.c **** 
  63:Src/stm32f4xx_hal_msp.c ****   /* USER CODE END MspInit 0 */
  64:Src/stm32f4xx_hal_msp.c **** 
  65:Src/stm32f4xx_hal_msp.c ****   HAL_NVIC_SetPriorityGrouping(NVIC_PRIORITYGROUP_4);
  37              		.loc 1 65 0
  38 0002 0320     		movs	r0, #3
  39 0004 FFF7FEFF 		bl	HAL_NVIC_SetPriorityGrouping
  40              	.LVL0:
  66:Src/stm32f4xx_hal_msp.c **** 
  67:Src/stm32f4xx_hal_msp.c ****   /* System interrupt init*/
  68:Src/stm32f4xx_hal_msp.c ****   /* MemoryManagement_IRQn interrupt configuration */
  69:Src/stm32f4xx_hal_msp.c ****   HAL_NVIC_SetPriority(MemoryManagement_IRQn, 0, 0);
  41              		.loc 1 69 0
  42 0008 0022     		movs	r2, #0
  43 000a 1146     		mov	r1, r2
  44 000c 6FF00B00 		mvn	r0, #11
  45 0010 FFF7FEFF 		bl	HAL_NVIC_SetPriority
  46              	.LVL1:
ARM GAS  /var/folders/7p/1_dhylqx7nl5s8914_0f_4w00000gn/T//ccOYnT7N.s 			page 3


  70:Src/stm32f4xx_hal_msp.c ****   /* BusFault_IRQn interrupt configuration */
  71:Src/stm32f4xx_hal_msp.c ****   HAL_NVIC_SetPriority(BusFault_IRQn, 0, 0);
  47              		.loc 1 71 0
  48 0014 0022     		movs	r2, #0
  49 0016 1146     		mov	r1, r2
  50 0018 6FF00A00 		mvn	r0, #10
  51 001c FFF7FEFF 		bl	HAL_NVIC_SetPriority
  52              	.LVL2:
  72:Src/stm32f4xx_hal_msp.c ****   /* UsageFault_IRQn interrupt configuration */
  73:Src/stm32f4xx_hal_msp.c ****   HAL_NVIC_SetPriority(UsageFault_IRQn, 0, 0);
  53              		.loc 1 73 0
  54 0020 0022     		movs	r2, #0
  55 0022 1146     		mov	r1, r2
  56 0024 6FF00900 		mvn	r0, #9
  57 0028 FFF7FEFF 		bl	HAL_NVIC_SetPriority
  58              	.LVL3:
  74:Src/stm32f4xx_hal_msp.c ****   /* SVCall_IRQn interrupt configuration */
  75:Src/stm32f4xx_hal_msp.c ****   HAL_NVIC_SetPriority(SVCall_IRQn, 0, 0);
  59              		.loc 1 75 0
  60 002c 0022     		movs	r2, #0
  61 002e 1146     		mov	r1, r2
  62 0030 6FF00400 		mvn	r0, #4
  63 0034 FFF7FEFF 		bl	HAL_NVIC_SetPriority
  64              	.LVL4:
  76:Src/stm32f4xx_hal_msp.c ****   /* DebugMonitor_IRQn interrupt configuration */
  77:Src/stm32f4xx_hal_msp.c ****   HAL_NVIC_SetPriority(DebugMonitor_IRQn, 0, 0);
  65              		.loc 1 77 0
  66 0038 0022     		movs	r2, #0
  67 003a 1146     		mov	r1, r2
  68 003c 6FF00300 		mvn	r0, #3
  69 0040 FFF7FEFF 		bl	HAL_NVIC_SetPriority
  70              	.LVL5:
  78:Src/stm32f4xx_hal_msp.c ****   /* PendSV_IRQn interrupt configuration */
  79:Src/stm32f4xx_hal_msp.c ****   HAL_NVIC_SetPriority(PendSV_IRQn, 15, 0);
  71              		.loc 1 79 0
  72 0044 0022     		movs	r2, #0
  73 0046 0F21     		movs	r1, #15
  74 0048 6FF00100 		mvn	r0, #1
  75 004c FFF7FEFF 		bl	HAL_NVIC_SetPriority
  76              	.LVL6:
  80:Src/stm32f4xx_hal_msp.c ****   /* SysTick_IRQn interrupt configuration */
  81:Src/stm32f4xx_hal_msp.c ****   HAL_NVIC_SetPriority(SysTick_IRQn, 15, 0);
  77              		.loc 1 81 0
  78 0050 0022     		movs	r2, #0
  79 0052 0F21     		movs	r1, #15
  80 0054 4FF0FF30 		mov	r0, #-1
  81 0058 FFF7FEFF 		bl	HAL_NVIC_SetPriority
  82              	.LVL7:
  83 005c 08BD     		pop	{r3, pc}
  84              		.cfi_endproc
  85              	.LFE124:
  87              		.section	.text.HAL_I2C_MspInit,"ax",%progbits
  88              		.align	1
  89              		.global	HAL_I2C_MspInit
  90              		.syntax unified
  91              		.thumb
  92              		.thumb_func
ARM GAS  /var/folders/7p/1_dhylqx7nl5s8914_0f_4w00000gn/T//ccOYnT7N.s 			page 4


  93              		.fpu fpv4-sp-d16
  95              	HAL_I2C_MspInit:
  96              	.LFB125:
  82:Src/stm32f4xx_hal_msp.c **** 
  83:Src/stm32f4xx_hal_msp.c ****   /* USER CODE BEGIN MspInit 1 */
  84:Src/stm32f4xx_hal_msp.c **** 
  85:Src/stm32f4xx_hal_msp.c ****   /* USER CODE END MspInit 1 */
  86:Src/stm32f4xx_hal_msp.c **** }
  87:Src/stm32f4xx_hal_msp.c **** 
  88:Src/stm32f4xx_hal_msp.c **** void HAL_I2C_MspInit(I2C_HandleTypeDef* hi2c)
  89:Src/stm32f4xx_hal_msp.c **** {
  97              		.loc 1 89 0
  98              		.cfi_startproc
  99              		@ args = 0, pretend = 0, frame = 32
 100              		@ frame_needed = 0, uses_anonymous_args = 0
 101              	.LVL8:
 102 0000 F0B5     		push	{r4, r5, r6, r7, lr}
 103              	.LCFI1:
 104              		.cfi_def_cfa_offset 20
 105              		.cfi_offset 4, -20
 106              		.cfi_offset 5, -16
 107              		.cfi_offset 6, -12
 108              		.cfi_offset 7, -8
 109              		.cfi_offset 14, -4
 110 0002 89B0     		sub	sp, sp, #36
 111              	.LCFI2:
 112              		.cfi_def_cfa_offset 56
  90:Src/stm32f4xx_hal_msp.c **** 
  91:Src/stm32f4xx_hal_msp.c ****   GPIO_InitTypeDef GPIO_InitStruct;
  92:Src/stm32f4xx_hal_msp.c ****   if(hi2c->Instance==I2C1)
 113              		.loc 1 92 0
 114 0004 0368     		ldr	r3, [r0]
 115 0006 254A     		ldr	r2, .L9
 116 0008 9342     		cmp	r3, r2
 117 000a 04D0     		beq	.L7
  93:Src/stm32f4xx_hal_msp.c ****   {
  94:Src/stm32f4xx_hal_msp.c ****   /* USER CODE BEGIN I2C1_MspInit 0 */
  95:Src/stm32f4xx_hal_msp.c **** 
  96:Src/stm32f4xx_hal_msp.c ****   /* USER CODE END I2C1_MspInit 0 */
  97:Src/stm32f4xx_hal_msp.c ****   
  98:Src/stm32f4xx_hal_msp.c ****     /**I2C1 GPIO Configuration    
  99:Src/stm32f4xx_hal_msp.c ****     PB6     ------> I2C1_SCL
 100:Src/stm32f4xx_hal_msp.c ****     PB7     ------> I2C1_SDA 
 101:Src/stm32f4xx_hal_msp.c ****     */
 102:Src/stm32f4xx_hal_msp.c ****     GPIO_InitStruct.Pin = SCL_Depth_Pin|SDA_Depth_Pin;
 103:Src/stm32f4xx_hal_msp.c ****     GPIO_InitStruct.Mode = GPIO_MODE_AF_OD;
 104:Src/stm32f4xx_hal_msp.c ****     GPIO_InitStruct.Pull = GPIO_PULLUP;
 105:Src/stm32f4xx_hal_msp.c ****     GPIO_InitStruct.Speed = GPIO_SPEED_FREQ_VERY_HIGH;
 106:Src/stm32f4xx_hal_msp.c ****     GPIO_InitStruct.Alternate = GPIO_AF4_I2C1;
 107:Src/stm32f4xx_hal_msp.c ****     HAL_GPIO_Init(GPIOB, &GPIO_InitStruct);
 108:Src/stm32f4xx_hal_msp.c **** 
 109:Src/stm32f4xx_hal_msp.c ****     /* Peripheral clock enable */
 110:Src/stm32f4xx_hal_msp.c ****     __HAL_RCC_I2C1_CLK_ENABLE();
 111:Src/stm32f4xx_hal_msp.c ****   /* USER CODE BEGIN I2C1_MspInit 1 */
 112:Src/stm32f4xx_hal_msp.c **** 
 113:Src/stm32f4xx_hal_msp.c ****   /* USER CODE END I2C1_MspInit 1 */
 114:Src/stm32f4xx_hal_msp.c ****   }
ARM GAS  /var/folders/7p/1_dhylqx7nl5s8914_0f_4w00000gn/T//ccOYnT7N.s 			page 5


 115:Src/stm32f4xx_hal_msp.c ****   else if(hi2c->Instance==I2C3)
 118              		.loc 1 115 0
 119 000c 244A     		ldr	r2, .L9+4
 120 000e 9342     		cmp	r3, r2
 121 0010 1CD0     		beq	.L8
 122              	.LVL9:
 123              	.L3:
 116:Src/stm32f4xx_hal_msp.c ****   {
 117:Src/stm32f4xx_hal_msp.c ****   /* USER CODE BEGIN I2C3_MspInit 0 */
 118:Src/stm32f4xx_hal_msp.c **** 
 119:Src/stm32f4xx_hal_msp.c ****   /* USER CODE END I2C3_MspInit 0 */
 120:Src/stm32f4xx_hal_msp.c ****   
 121:Src/stm32f4xx_hal_msp.c ****     /**I2C3 GPIO Configuration    
 122:Src/stm32f4xx_hal_msp.c ****     PC9     ------> I2C3_SDA
 123:Src/stm32f4xx_hal_msp.c ****     PA8     ------> I2C3_SCL 
 124:Src/stm32f4xx_hal_msp.c ****     */
 125:Src/stm32f4xx_hal_msp.c ****     GPIO_InitStruct.Pin = SDA_Bkpln_Pin;
 126:Src/stm32f4xx_hal_msp.c ****     GPIO_InitStruct.Mode = GPIO_MODE_AF_OD;
 127:Src/stm32f4xx_hal_msp.c ****     GPIO_InitStruct.Pull = GPIO_PULLUP;
 128:Src/stm32f4xx_hal_msp.c ****     GPIO_InitStruct.Speed = GPIO_SPEED_FREQ_VERY_HIGH;
 129:Src/stm32f4xx_hal_msp.c ****     GPIO_InitStruct.Alternate = GPIO_AF4_I2C3;
 130:Src/stm32f4xx_hal_msp.c ****     HAL_GPIO_Init(SDA_Bkpln_GPIO_Port, &GPIO_InitStruct);
 131:Src/stm32f4xx_hal_msp.c **** 
 132:Src/stm32f4xx_hal_msp.c ****     GPIO_InitStruct.Pin = SCL_Bkpln_Pin;
 133:Src/stm32f4xx_hal_msp.c ****     GPIO_InitStruct.Mode = GPIO_MODE_AF_OD;
 134:Src/stm32f4xx_hal_msp.c ****     GPIO_InitStruct.Pull = GPIO_PULLUP;
 135:Src/stm32f4xx_hal_msp.c ****     GPIO_InitStruct.Speed = GPIO_SPEED_FREQ_VERY_HIGH;
 136:Src/stm32f4xx_hal_msp.c ****     GPIO_InitStruct.Alternate = GPIO_AF4_I2C3;
 137:Src/stm32f4xx_hal_msp.c ****     HAL_GPIO_Init(SCL_Bkpln_GPIO_Port, &GPIO_InitStruct);
 138:Src/stm32f4xx_hal_msp.c **** 
 139:Src/stm32f4xx_hal_msp.c ****     /* Peripheral clock enable */
 140:Src/stm32f4xx_hal_msp.c ****     __HAL_RCC_I2C3_CLK_ENABLE();
 141:Src/stm32f4xx_hal_msp.c ****   /* USER CODE BEGIN I2C3_MspInit 1 */
 142:Src/stm32f4xx_hal_msp.c **** 
 143:Src/stm32f4xx_hal_msp.c ****   /* USER CODE END I2C3_MspInit 1 */
 144:Src/stm32f4xx_hal_msp.c ****   }
 145:Src/stm32f4xx_hal_msp.c **** 
 146:Src/stm32f4xx_hal_msp.c **** }
 124              		.loc 1 146 0
 125 0012 09B0     		add	sp, sp, #36
 126              	.LCFI3:
 127              		.cfi_remember_state
 128              		.cfi_def_cfa_offset 20
 129              		@ sp needed
 130 0014 F0BD     		pop	{r4, r5, r6, r7, pc}
 131              	.LVL10:
 132              	.L7:
 133              	.LCFI4:
 134              		.cfi_restore_state
 102:Src/stm32f4xx_hal_msp.c ****     GPIO_InitStruct.Mode = GPIO_MODE_AF_OD;
 135              		.loc 1 102 0
 136 0016 C023     		movs	r3, #192
 137 0018 0393     		str	r3, [sp, #12]
 103:Src/stm32f4xx_hal_msp.c ****     GPIO_InitStruct.Pull = GPIO_PULLUP;
 138              		.loc 1 103 0
 139 001a 1223     		movs	r3, #18
 140 001c 0493     		str	r3, [sp, #16]
ARM GAS  /var/folders/7p/1_dhylqx7nl5s8914_0f_4w00000gn/T//ccOYnT7N.s 			page 6


 104:Src/stm32f4xx_hal_msp.c ****     GPIO_InitStruct.Speed = GPIO_SPEED_FREQ_VERY_HIGH;
 141              		.loc 1 104 0
 142 001e 0123     		movs	r3, #1
 143 0020 0593     		str	r3, [sp, #20]
 105:Src/stm32f4xx_hal_msp.c ****     GPIO_InitStruct.Alternate = GPIO_AF4_I2C1;
 144              		.loc 1 105 0
 145 0022 0323     		movs	r3, #3
 146 0024 0693     		str	r3, [sp, #24]
 106:Src/stm32f4xx_hal_msp.c ****     HAL_GPIO_Init(GPIOB, &GPIO_InitStruct);
 147              		.loc 1 106 0
 148 0026 0423     		movs	r3, #4
 149 0028 0793     		str	r3, [sp, #28]
 107:Src/stm32f4xx_hal_msp.c **** 
 150              		.loc 1 107 0
 151 002a 03A9     		add	r1, sp, #12
 152 002c 1D48     		ldr	r0, .L9+8
 153              	.LVL11:
 154 002e FFF7FEFF 		bl	HAL_GPIO_Init
 155              	.LVL12:
 156              	.LBB2:
 110:Src/stm32f4xx_hal_msp.c ****   /* USER CODE BEGIN I2C1_MspInit 1 */
 157              		.loc 1 110 0
 158 0032 0023     		movs	r3, #0
 159 0034 0193     		str	r3, [sp, #4]
 160 0036 1C4B     		ldr	r3, .L9+12
 161 0038 1A6C     		ldr	r2, [r3, #64]
 162 003a 42F40012 		orr	r2, r2, #2097152
 163 003e 1A64     		str	r2, [r3, #64]
 164 0040 1B6C     		ldr	r3, [r3, #64]
 165 0042 03F40013 		and	r3, r3, #2097152
 166 0046 0193     		str	r3, [sp, #4]
 167 0048 019B     		ldr	r3, [sp, #4]
 168              	.LBE2:
 169 004a E2E7     		b	.L3
 170              	.LVL13:
 171              	.L8:
 125:Src/stm32f4xx_hal_msp.c ****     GPIO_InitStruct.Mode = GPIO_MODE_AF_OD;
 172              		.loc 1 125 0
 173 004c 4FF40073 		mov	r3, #512
 174 0050 0393     		str	r3, [sp, #12]
 126:Src/stm32f4xx_hal_msp.c ****     GPIO_InitStruct.Pull = GPIO_PULLUP;
 175              		.loc 1 126 0
 176 0052 1227     		movs	r7, #18
 177 0054 0497     		str	r7, [sp, #16]
 127:Src/stm32f4xx_hal_msp.c ****     GPIO_InitStruct.Speed = GPIO_SPEED_FREQ_VERY_HIGH;
 178              		.loc 1 127 0
 179 0056 0126     		movs	r6, #1
 180 0058 0596     		str	r6, [sp, #20]
 128:Src/stm32f4xx_hal_msp.c ****     GPIO_InitStruct.Alternate = GPIO_AF4_I2C3;
 181              		.loc 1 128 0
 182 005a 0325     		movs	r5, #3
 183 005c 0695     		str	r5, [sp, #24]
 129:Src/stm32f4xx_hal_msp.c ****     HAL_GPIO_Init(SDA_Bkpln_GPIO_Port, &GPIO_InitStruct);
 184              		.loc 1 129 0
 185 005e 0424     		movs	r4, #4
 186 0060 0794     		str	r4, [sp, #28]
 130:Src/stm32f4xx_hal_msp.c **** 
ARM GAS  /var/folders/7p/1_dhylqx7nl5s8914_0f_4w00000gn/T//ccOYnT7N.s 			page 7


 187              		.loc 1 130 0
 188 0062 03A9     		add	r1, sp, #12
 189 0064 1148     		ldr	r0, .L9+16
 190              	.LVL14:
 191 0066 FFF7FEFF 		bl	HAL_GPIO_Init
 192              	.LVL15:
 132:Src/stm32f4xx_hal_msp.c ****     GPIO_InitStruct.Mode = GPIO_MODE_AF_OD;
 193              		.loc 1 132 0
 194 006a 4FF48073 		mov	r3, #256
 195 006e 0393     		str	r3, [sp, #12]
 133:Src/stm32f4xx_hal_msp.c ****     GPIO_InitStruct.Pull = GPIO_PULLUP;
 196              		.loc 1 133 0
 197 0070 0497     		str	r7, [sp, #16]
 134:Src/stm32f4xx_hal_msp.c ****     GPIO_InitStruct.Speed = GPIO_SPEED_FREQ_VERY_HIGH;
 198              		.loc 1 134 0
 199 0072 0596     		str	r6, [sp, #20]
 135:Src/stm32f4xx_hal_msp.c ****     GPIO_InitStruct.Alternate = GPIO_AF4_I2C3;
 200              		.loc 1 135 0
 201 0074 0695     		str	r5, [sp, #24]
 136:Src/stm32f4xx_hal_msp.c ****     HAL_GPIO_Init(SCL_Bkpln_GPIO_Port, &GPIO_InitStruct);
 202              		.loc 1 136 0
 203 0076 0794     		str	r4, [sp, #28]
 137:Src/stm32f4xx_hal_msp.c **** 
 204              		.loc 1 137 0
 205 0078 03A9     		add	r1, sp, #12
 206 007a 0D48     		ldr	r0, .L9+20
 207 007c FFF7FEFF 		bl	HAL_GPIO_Init
 208              	.LVL16:
 209              	.LBB3:
 140:Src/stm32f4xx_hal_msp.c ****   /* USER CODE BEGIN I2C3_MspInit 1 */
 210              		.loc 1 140 0
 211 0080 0023     		movs	r3, #0
 212 0082 0293     		str	r3, [sp, #8]
 213 0084 084B     		ldr	r3, .L9+12
 214 0086 1A6C     		ldr	r2, [r3, #64]
 215 0088 42F40002 		orr	r2, r2, #8388608
 216 008c 1A64     		str	r2, [r3, #64]
 217 008e 1B6C     		ldr	r3, [r3, #64]
 218 0090 03F40003 		and	r3, r3, #8388608
 219 0094 0293     		str	r3, [sp, #8]
 220 0096 029B     		ldr	r3, [sp, #8]
 221              	.LBE3:
 222              		.loc 1 146 0
 223 0098 BBE7     		b	.L3
 224              	.L10:
 225 009a 00BF     		.align	2
 226              	.L9:
 227 009c 00540040 		.word	1073763328
 228 00a0 005C0040 		.word	1073765376
 229 00a4 00040240 		.word	1073873920
 230 00a8 00380240 		.word	1073887232
 231 00ac 00080240 		.word	1073874944
 232 00b0 00000240 		.word	1073872896
 233              		.cfi_endproc
 234              	.LFE125:
 236              		.section	.text.HAL_I2C_MspDeInit,"ax",%progbits
 237              		.align	1
ARM GAS  /var/folders/7p/1_dhylqx7nl5s8914_0f_4w00000gn/T//ccOYnT7N.s 			page 8


 238              		.global	HAL_I2C_MspDeInit
 239              		.syntax unified
 240              		.thumb
 241              		.thumb_func
 242              		.fpu fpv4-sp-d16
 244              	HAL_I2C_MspDeInit:
 245              	.LFB126:
 147:Src/stm32f4xx_hal_msp.c **** 
 148:Src/stm32f4xx_hal_msp.c **** void HAL_I2C_MspDeInit(I2C_HandleTypeDef* hi2c)
 149:Src/stm32f4xx_hal_msp.c **** {
 246              		.loc 1 149 0
 247              		.cfi_startproc
 248              		@ args = 0, pretend = 0, frame = 0
 249              		@ frame_needed = 0, uses_anonymous_args = 0
 250              	.LVL17:
 251 0000 08B5     		push	{r3, lr}
 252              	.LCFI5:
 253              		.cfi_def_cfa_offset 8
 254              		.cfi_offset 3, -8
 255              		.cfi_offset 14, -4
 150:Src/stm32f4xx_hal_msp.c **** 
 151:Src/stm32f4xx_hal_msp.c ****   if(hi2c->Instance==I2C1)
 256              		.loc 1 151 0
 257 0002 0368     		ldr	r3, [r0]
 258 0004 114A     		ldr	r2, .L17
 259 0006 9342     		cmp	r3, r2
 260 0008 03D0     		beq	.L15
 152:Src/stm32f4xx_hal_msp.c ****   {
 153:Src/stm32f4xx_hal_msp.c ****   /* USER CODE BEGIN I2C1_MspDeInit 0 */
 154:Src/stm32f4xx_hal_msp.c **** 
 155:Src/stm32f4xx_hal_msp.c ****   /* USER CODE END I2C1_MspDeInit 0 */
 156:Src/stm32f4xx_hal_msp.c ****     /* Peripheral clock disable */
 157:Src/stm32f4xx_hal_msp.c ****     __HAL_RCC_I2C1_CLK_DISABLE();
 158:Src/stm32f4xx_hal_msp.c ****   
 159:Src/stm32f4xx_hal_msp.c ****     /**I2C1 GPIO Configuration    
 160:Src/stm32f4xx_hal_msp.c ****     PB6     ------> I2C1_SCL
 161:Src/stm32f4xx_hal_msp.c ****     PB7     ------> I2C1_SDA 
 162:Src/stm32f4xx_hal_msp.c ****     */
 163:Src/stm32f4xx_hal_msp.c ****     HAL_GPIO_DeInit(GPIOB, SCL_Depth_Pin|SDA_Depth_Pin);
 164:Src/stm32f4xx_hal_msp.c **** 
 165:Src/stm32f4xx_hal_msp.c ****   /* USER CODE BEGIN I2C1_MspDeInit 1 */
 166:Src/stm32f4xx_hal_msp.c **** 
 167:Src/stm32f4xx_hal_msp.c ****   /* USER CODE END I2C1_MspDeInit 1 */
 168:Src/stm32f4xx_hal_msp.c ****   }
 169:Src/stm32f4xx_hal_msp.c ****   else if(hi2c->Instance==I2C3)
 261              		.loc 1 169 0
 262 000a 114A     		ldr	r2, .L17+4
 263 000c 9342     		cmp	r3, r2
 264 000e 0BD0     		beq	.L16
 265              	.LVL18:
 266              	.L11:
 267 0010 08BD     		pop	{r3, pc}
 268              	.LVL19:
 269              	.L15:
 157:Src/stm32f4xx_hal_msp.c ****   
 270              		.loc 1 157 0
 271 0012 02F5F232 		add	r2, r2, #123904
ARM GAS  /var/folders/7p/1_dhylqx7nl5s8914_0f_4w00000gn/T//ccOYnT7N.s 			page 9


 272 0016 136C     		ldr	r3, [r2, #64]
 273 0018 23F40013 		bic	r3, r3, #2097152
 274 001c 1364     		str	r3, [r2, #64]
 163:Src/stm32f4xx_hal_msp.c **** 
 275              		.loc 1 163 0
 276 001e C021     		movs	r1, #192
 277 0020 0C48     		ldr	r0, .L17+8
 278              	.LVL20:
 279 0022 FFF7FEFF 		bl	HAL_GPIO_DeInit
 280              	.LVL21:
 281 0026 08BD     		pop	{r3, pc}
 282              	.LVL22:
 283              	.L16:
 170:Src/stm32f4xx_hal_msp.c ****   {
 171:Src/stm32f4xx_hal_msp.c ****   /* USER CODE BEGIN I2C3_MspDeInit 0 */
 172:Src/stm32f4xx_hal_msp.c **** 
 173:Src/stm32f4xx_hal_msp.c ****   /* USER CODE END I2C3_MspDeInit 0 */
 174:Src/stm32f4xx_hal_msp.c ****     /* Peripheral clock disable */
 175:Src/stm32f4xx_hal_msp.c ****     __HAL_RCC_I2C3_CLK_DISABLE();
 284              		.loc 1 175 0
 285 0028 02F5EE32 		add	r2, r2, #121856
 286 002c 136C     		ldr	r3, [r2, #64]
 287 002e 23F40003 		bic	r3, r3, #8388608
 288 0032 1364     		str	r3, [r2, #64]
 176:Src/stm32f4xx_hal_msp.c ****   
 177:Src/stm32f4xx_hal_msp.c ****     /**I2C3 GPIO Configuration    
 178:Src/stm32f4xx_hal_msp.c ****     PC9     ------> I2C3_SDA
 179:Src/stm32f4xx_hal_msp.c ****     PA8     ------> I2C3_SCL 
 180:Src/stm32f4xx_hal_msp.c ****     */
 181:Src/stm32f4xx_hal_msp.c ****     HAL_GPIO_DeInit(SDA_Bkpln_GPIO_Port, SDA_Bkpln_Pin);
 289              		.loc 1 181 0
 290 0034 4FF40071 		mov	r1, #512
 291 0038 0748     		ldr	r0, .L17+12
 292              	.LVL23:
 293 003a FFF7FEFF 		bl	HAL_GPIO_DeInit
 294              	.LVL24:
 182:Src/stm32f4xx_hal_msp.c **** 
 183:Src/stm32f4xx_hal_msp.c ****     HAL_GPIO_DeInit(SCL_Bkpln_GPIO_Port, SCL_Bkpln_Pin);
 295              		.loc 1 183 0
 296 003e 4FF48071 		mov	r1, #256
 297 0042 0648     		ldr	r0, .L17+16
 298 0044 FFF7FEFF 		bl	HAL_GPIO_DeInit
 299              	.LVL25:
 184:Src/stm32f4xx_hal_msp.c **** 
 185:Src/stm32f4xx_hal_msp.c ****   /* USER CODE BEGIN I2C3_MspDeInit 1 */
 186:Src/stm32f4xx_hal_msp.c **** 
 187:Src/stm32f4xx_hal_msp.c ****   /* USER CODE END I2C3_MspDeInit 1 */
 188:Src/stm32f4xx_hal_msp.c ****   }
 189:Src/stm32f4xx_hal_msp.c **** 
 190:Src/stm32f4xx_hal_msp.c **** }
 300              		.loc 1 190 0
 301 0048 E2E7     		b	.L11
 302              	.L18:
 303 004a 00BF     		.align	2
 304              	.L17:
 305 004c 00540040 		.word	1073763328
 306 0050 005C0040 		.word	1073765376
ARM GAS  /var/folders/7p/1_dhylqx7nl5s8914_0f_4w00000gn/T//ccOYnT7N.s 			page 10


 307 0054 00040240 		.word	1073873920
 308 0058 00080240 		.word	1073874944
 309 005c 00000240 		.word	1073872896
 310              		.cfi_endproc
 311              	.LFE126:
 313              		.section	.text.HAL_TIM_PWM_MspInit,"ax",%progbits
 314              		.align	1
 315              		.global	HAL_TIM_PWM_MspInit
 316              		.syntax unified
 317              		.thumb
 318              		.thumb_func
 319              		.fpu fpv4-sp-d16
 321              	HAL_TIM_PWM_MspInit:
 322              	.LFB127:
 191:Src/stm32f4xx_hal_msp.c **** 
 192:Src/stm32f4xx_hal_msp.c **** void HAL_TIM_PWM_MspInit(TIM_HandleTypeDef* htim_pwm)
 193:Src/stm32f4xx_hal_msp.c **** {
 323              		.loc 1 193 0
 324              		.cfi_startproc
 325              		@ args = 0, pretend = 0, frame = 16
 326              		@ frame_needed = 0, uses_anonymous_args = 0
 327              		@ link register save eliminated.
 328              	.LVL26:
 329 0000 84B0     		sub	sp, sp, #16
 330              	.LCFI6:
 331              		.cfi_def_cfa_offset 16
 194:Src/stm32f4xx_hal_msp.c **** 
 195:Src/stm32f4xx_hal_msp.c ****   if(htim_pwm->Instance==TIM2)
 332              		.loc 1 195 0
 333 0002 0368     		ldr	r3, [r0]
 334 0004 B3F1804F 		cmp	r3, #1073741824
 335 0008 07D0     		beq	.L24
 196:Src/stm32f4xx_hal_msp.c ****   {
 197:Src/stm32f4xx_hal_msp.c ****   /* USER CODE BEGIN TIM2_MspInit 0 */
 198:Src/stm32f4xx_hal_msp.c **** 
 199:Src/stm32f4xx_hal_msp.c ****   /* USER CODE END TIM2_MspInit 0 */
 200:Src/stm32f4xx_hal_msp.c ****     /* Peripheral clock enable */
 201:Src/stm32f4xx_hal_msp.c ****     __HAL_RCC_TIM2_CLK_ENABLE();
 202:Src/stm32f4xx_hal_msp.c ****   /* USER CODE BEGIN TIM2_MspInit 1 */
 203:Src/stm32f4xx_hal_msp.c **** 
 204:Src/stm32f4xx_hal_msp.c ****   /* USER CODE END TIM2_MspInit 1 */
 205:Src/stm32f4xx_hal_msp.c ****   }
 206:Src/stm32f4xx_hal_msp.c ****   else if(htim_pwm->Instance==TIM3)
 336              		.loc 1 206 0
 337 000a 174A     		ldr	r2, .L27
 338 000c 9342     		cmp	r3, r2
 339 000e 11D0     		beq	.L25
 207:Src/stm32f4xx_hal_msp.c ****   {
 208:Src/stm32f4xx_hal_msp.c ****   /* USER CODE BEGIN TIM3_MspInit 0 */
 209:Src/stm32f4xx_hal_msp.c **** 
 210:Src/stm32f4xx_hal_msp.c ****   /* USER CODE END TIM3_MspInit 0 */
 211:Src/stm32f4xx_hal_msp.c ****     /* Peripheral clock enable */
 212:Src/stm32f4xx_hal_msp.c ****     __HAL_RCC_TIM3_CLK_ENABLE();
 213:Src/stm32f4xx_hal_msp.c ****   /* USER CODE BEGIN TIM3_MspInit 1 */
 214:Src/stm32f4xx_hal_msp.c **** 
 215:Src/stm32f4xx_hal_msp.c ****   /* USER CODE END TIM3_MspInit 1 */
 216:Src/stm32f4xx_hal_msp.c ****   }
ARM GAS  /var/folders/7p/1_dhylqx7nl5s8914_0f_4w00000gn/T//ccOYnT7N.s 			page 11


 217:Src/stm32f4xx_hal_msp.c ****   else if(htim_pwm->Instance==TIM5)
 340              		.loc 1 217 0
 341 0010 164A     		ldr	r2, .L27+4
 342 0012 9342     		cmp	r3, r2
 343 0014 1BD0     		beq	.L26
 344              	.L19:
 218:Src/stm32f4xx_hal_msp.c ****   {
 219:Src/stm32f4xx_hal_msp.c ****   /* USER CODE BEGIN TIM5_MspInit 0 */
 220:Src/stm32f4xx_hal_msp.c **** 
 221:Src/stm32f4xx_hal_msp.c ****   /* USER CODE END TIM5_MspInit 0 */
 222:Src/stm32f4xx_hal_msp.c ****     /* Peripheral clock enable */
 223:Src/stm32f4xx_hal_msp.c ****     __HAL_RCC_TIM5_CLK_ENABLE();
 224:Src/stm32f4xx_hal_msp.c ****   /* USER CODE BEGIN TIM5_MspInit 1 */
 225:Src/stm32f4xx_hal_msp.c **** 
 226:Src/stm32f4xx_hal_msp.c ****   /* USER CODE END TIM5_MspInit 1 */
 227:Src/stm32f4xx_hal_msp.c ****   }
 228:Src/stm32f4xx_hal_msp.c **** 
 229:Src/stm32f4xx_hal_msp.c **** }
 345              		.loc 1 229 0
 346 0016 04B0     		add	sp, sp, #16
 347              	.LCFI7:
 348              		.cfi_remember_state
 349              		.cfi_def_cfa_offset 0
 350              		@ sp needed
 351 0018 7047     		bx	lr
 352              	.L24:
 353              	.LCFI8:
 354              		.cfi_restore_state
 355              	.LBB4:
 201:Src/stm32f4xx_hal_msp.c ****   /* USER CODE BEGIN TIM2_MspInit 1 */
 356              		.loc 1 201 0
 357 001a 0023     		movs	r3, #0
 358 001c 0193     		str	r3, [sp, #4]
 359 001e 144B     		ldr	r3, .L27+8
 360 0020 1A6C     		ldr	r2, [r3, #64]
 361 0022 42F00102 		orr	r2, r2, #1
 362 0026 1A64     		str	r2, [r3, #64]
 363 0028 1B6C     		ldr	r3, [r3, #64]
 364 002a 03F00103 		and	r3, r3, #1
 365 002e 0193     		str	r3, [sp, #4]
 366 0030 019B     		ldr	r3, [sp, #4]
 367              	.LBE4:
 368 0032 F0E7     		b	.L19
 369              	.L25:
 370              	.LBB5:
 212:Src/stm32f4xx_hal_msp.c ****   /* USER CODE BEGIN TIM3_MspInit 1 */
 371              		.loc 1 212 0
 372 0034 0023     		movs	r3, #0
 373 0036 0293     		str	r3, [sp, #8]
 374 0038 0D4B     		ldr	r3, .L27+8
 375 003a 1A6C     		ldr	r2, [r3, #64]
 376 003c 42F00202 		orr	r2, r2, #2
 377 0040 1A64     		str	r2, [r3, #64]
 378 0042 1B6C     		ldr	r3, [r3, #64]
 379 0044 03F00203 		and	r3, r3, #2
 380 0048 0293     		str	r3, [sp, #8]
 381 004a 029B     		ldr	r3, [sp, #8]
ARM GAS  /var/folders/7p/1_dhylqx7nl5s8914_0f_4w00000gn/T//ccOYnT7N.s 			page 12


 382              	.LBE5:
 383 004c E3E7     		b	.L19
 384              	.L26:
 385              	.LBB6:
 223:Src/stm32f4xx_hal_msp.c ****   /* USER CODE BEGIN TIM5_MspInit 1 */
 386              		.loc 1 223 0
 387 004e 0023     		movs	r3, #0
 388 0050 0393     		str	r3, [sp, #12]
 389 0052 074B     		ldr	r3, .L27+8
 390 0054 1A6C     		ldr	r2, [r3, #64]
 391 0056 42F00802 		orr	r2, r2, #8
 392 005a 1A64     		str	r2, [r3, #64]
 393 005c 1B6C     		ldr	r3, [r3, #64]
 394 005e 03F00803 		and	r3, r3, #8
 395 0062 0393     		str	r3, [sp, #12]
 396 0064 039B     		ldr	r3, [sp, #12]
 397              	.LBE6:
 398              		.loc 1 229 0
 399 0066 D6E7     		b	.L19
 400              	.L28:
 401              		.align	2
 402              	.L27:
 403 0068 00040040 		.word	1073742848
 404 006c 000C0040 		.word	1073744896
 405 0070 00380240 		.word	1073887232
 406              		.cfi_endproc
 407              	.LFE127:
 409              		.section	.text.HAL_TIM_Base_MspInit,"ax",%progbits
 410              		.align	1
 411              		.global	HAL_TIM_Base_MspInit
 412              		.syntax unified
 413              		.thumb
 414              		.thumb_func
 415              		.fpu fpv4-sp-d16
 417              	HAL_TIM_Base_MspInit:
 418              	.LFB128:
 230:Src/stm32f4xx_hal_msp.c **** 
 231:Src/stm32f4xx_hal_msp.c **** void HAL_TIM_Base_MspInit(TIM_HandleTypeDef* htim_base)
 232:Src/stm32f4xx_hal_msp.c **** {
 419              		.loc 1 232 0
 420              		.cfi_startproc
 421              		@ args = 0, pretend = 0, frame = 8
 422              		@ frame_needed = 0, uses_anonymous_args = 0
 423              		@ link register save eliminated.
 424              	.LVL27:
 425 0000 82B0     		sub	sp, sp, #8
 426              	.LCFI9:
 427              		.cfi_def_cfa_offset 8
 233:Src/stm32f4xx_hal_msp.c **** 
 234:Src/stm32f4xx_hal_msp.c ****   if(htim_base->Instance==TIM13)
 428              		.loc 1 234 0
 429 0002 0368     		ldr	r3, [r0]
 430 0004 104A     		ldr	r2, .L35
 431 0006 9342     		cmp	r3, r2
 432 0008 04D0     		beq	.L33
 235:Src/stm32f4xx_hal_msp.c ****   {
 236:Src/stm32f4xx_hal_msp.c ****   /* USER CODE BEGIN TIM13_MspInit 0 */
ARM GAS  /var/folders/7p/1_dhylqx7nl5s8914_0f_4w00000gn/T//ccOYnT7N.s 			page 13


 237:Src/stm32f4xx_hal_msp.c **** 
 238:Src/stm32f4xx_hal_msp.c ****   /* USER CODE END TIM13_MspInit 0 */
 239:Src/stm32f4xx_hal_msp.c ****     /* Peripheral clock enable */
 240:Src/stm32f4xx_hal_msp.c ****     __HAL_RCC_TIM13_CLK_ENABLE();
 241:Src/stm32f4xx_hal_msp.c ****   /* USER CODE BEGIN TIM13_MspInit 1 */
 242:Src/stm32f4xx_hal_msp.c **** 
 243:Src/stm32f4xx_hal_msp.c ****   /* USER CODE END TIM13_MspInit 1 */
 244:Src/stm32f4xx_hal_msp.c ****   }
 245:Src/stm32f4xx_hal_msp.c ****   else if(htim_base->Instance==TIM14)
 433              		.loc 1 245 0
 434 000a 104A     		ldr	r2, .L35+4
 435 000c 9342     		cmp	r3, r2
 436 000e 0ED0     		beq	.L34
 437              	.L29:
 246:Src/stm32f4xx_hal_msp.c ****   {
 247:Src/stm32f4xx_hal_msp.c ****   /* USER CODE BEGIN TIM14_MspInit 0 */
 248:Src/stm32f4xx_hal_msp.c **** 
 249:Src/stm32f4xx_hal_msp.c ****   /* USER CODE END TIM14_MspInit 0 */
 250:Src/stm32f4xx_hal_msp.c ****     /* Peripheral clock enable */
 251:Src/stm32f4xx_hal_msp.c ****     __HAL_RCC_TIM14_CLK_ENABLE();
 252:Src/stm32f4xx_hal_msp.c ****   /* USER CODE BEGIN TIM14_MspInit 1 */
 253:Src/stm32f4xx_hal_msp.c **** 
 254:Src/stm32f4xx_hal_msp.c ****   /* USER CODE END TIM14_MspInit 1 */
 255:Src/stm32f4xx_hal_msp.c ****   }
 256:Src/stm32f4xx_hal_msp.c **** 
 257:Src/stm32f4xx_hal_msp.c **** }
 438              		.loc 1 257 0
 439 0010 02B0     		add	sp, sp, #8
 440              	.LCFI10:
 441              		.cfi_remember_state
 442              		.cfi_def_cfa_offset 0
 443              		@ sp needed
 444 0012 7047     		bx	lr
 445              	.L33:
 446              	.LCFI11:
 447              		.cfi_restore_state
 448              	.LBB7:
 240:Src/stm32f4xx_hal_msp.c ****   /* USER CODE BEGIN TIM13_MspInit 1 */
 449              		.loc 1 240 0
 450 0014 0023     		movs	r3, #0
 451 0016 0093     		str	r3, [sp]
 452 0018 0D4B     		ldr	r3, .L35+8
 453 001a 1A6C     		ldr	r2, [r3, #64]
 454 001c 42F08002 		orr	r2, r2, #128
 455 0020 1A64     		str	r2, [r3, #64]
 456 0022 1B6C     		ldr	r3, [r3, #64]
 457 0024 03F08003 		and	r3, r3, #128
 458 0028 0093     		str	r3, [sp]
 459 002a 009B     		ldr	r3, [sp]
 460              	.LBE7:
 461 002c F0E7     		b	.L29
 462              	.L34:
 463              	.LBB8:
 251:Src/stm32f4xx_hal_msp.c ****   /* USER CODE BEGIN TIM14_MspInit 1 */
 464              		.loc 1 251 0
 465 002e 0023     		movs	r3, #0
 466 0030 0193     		str	r3, [sp, #4]
ARM GAS  /var/folders/7p/1_dhylqx7nl5s8914_0f_4w00000gn/T//ccOYnT7N.s 			page 14


 467 0032 074B     		ldr	r3, .L35+8
 468 0034 1A6C     		ldr	r2, [r3, #64]
 469 0036 42F48072 		orr	r2, r2, #256
 470 003a 1A64     		str	r2, [r3, #64]
 471 003c 1B6C     		ldr	r3, [r3, #64]
 472 003e 03F48073 		and	r3, r3, #256
 473 0042 0193     		str	r3, [sp, #4]
 474 0044 019B     		ldr	r3, [sp, #4]
 475              	.LBE8:
 476              		.loc 1 257 0
 477 0046 E3E7     		b	.L29
 478              	.L36:
 479              		.align	2
 480              	.L35:
 481 0048 001C0040 		.word	1073748992
 482 004c 00200040 		.word	1073750016
 483 0050 00380240 		.word	1073887232
 484              		.cfi_endproc
 485              	.LFE128:
 487              		.section	.text.HAL_TIM_MspPostInit,"ax",%progbits
 488              		.align	1
 489              		.global	HAL_TIM_MspPostInit
 490              		.syntax unified
 491              		.thumb
 492              		.thumb_func
 493              		.fpu fpv4-sp-d16
 495              	HAL_TIM_MspPostInit:
 496              	.LFB129:
 258:Src/stm32f4xx_hal_msp.c **** 
 259:Src/stm32f4xx_hal_msp.c **** void HAL_TIM_MspPostInit(TIM_HandleTypeDef* htim)
 260:Src/stm32f4xx_hal_msp.c **** {
 497              		.loc 1 260 0
 498              		.cfi_startproc
 499              		@ args = 0, pretend = 0, frame = 24
 500              		@ frame_needed = 0, uses_anonymous_args = 0
 501              	.LVL28:
 502 0000 70B5     		push	{r4, r5, r6, lr}
 503              	.LCFI12:
 504              		.cfi_def_cfa_offset 16
 505              		.cfi_offset 4, -16
 506              		.cfi_offset 5, -12
 507              		.cfi_offset 6, -8
 508              		.cfi_offset 14, -4
 509 0002 86B0     		sub	sp, sp, #24
 510              	.LCFI13:
 511              		.cfi_def_cfa_offset 40
 261:Src/stm32f4xx_hal_msp.c **** 
 262:Src/stm32f4xx_hal_msp.c ****   GPIO_InitTypeDef GPIO_InitStruct;
 263:Src/stm32f4xx_hal_msp.c ****   if(htim->Instance==TIM2)
 512              		.loc 1 263 0
 513 0004 0368     		ldr	r3, [r0]
 514 0006 B3F1804F 		cmp	r3, #1073741824
 515 000a 0DD0     		beq	.L44
 264:Src/stm32f4xx_hal_msp.c ****   {
 265:Src/stm32f4xx_hal_msp.c ****   /* USER CODE BEGIN TIM2_MspPostInit 0 */
 266:Src/stm32f4xx_hal_msp.c **** 
 267:Src/stm32f4xx_hal_msp.c ****   /* USER CODE END TIM2_MspPostInit 0 */
ARM GAS  /var/folders/7p/1_dhylqx7nl5s8914_0f_4w00000gn/T//ccOYnT7N.s 			page 15


 268:Src/stm32f4xx_hal_msp.c ****     /**TIM2 GPIO Configuration    
 269:Src/stm32f4xx_hal_msp.c ****     PA1     ------> TIM2_CH2
 270:Src/stm32f4xx_hal_msp.c ****     PB10     ------> TIM2_CH3
 271:Src/stm32f4xx_hal_msp.c ****     PB11     ------> TIM2_CH4 
 272:Src/stm32f4xx_hal_msp.c ****     */
 273:Src/stm32f4xx_hal_msp.c ****     GPIO_InitStruct.Pin = GPIO_PIN_1;
 274:Src/stm32f4xx_hal_msp.c ****     GPIO_InitStruct.Mode = GPIO_MODE_AF_PP;
 275:Src/stm32f4xx_hal_msp.c ****     GPIO_InitStruct.Pull = GPIO_NOPULL;
 276:Src/stm32f4xx_hal_msp.c ****     GPIO_InitStruct.Speed = GPIO_SPEED_FREQ_LOW;
 277:Src/stm32f4xx_hal_msp.c ****     GPIO_InitStruct.Alternate = GPIO_AF1_TIM2;
 278:Src/stm32f4xx_hal_msp.c ****     HAL_GPIO_Init(GPIOA, &GPIO_InitStruct);
 279:Src/stm32f4xx_hal_msp.c **** 
 280:Src/stm32f4xx_hal_msp.c ****     GPIO_InitStruct.Pin = SwAft_Pin|SwFwd_Pin;
 281:Src/stm32f4xx_hal_msp.c ****     GPIO_InitStruct.Mode = GPIO_MODE_AF_PP;
 282:Src/stm32f4xx_hal_msp.c ****     GPIO_InitStruct.Pull = GPIO_NOPULL;
 283:Src/stm32f4xx_hal_msp.c ****     GPIO_InitStruct.Speed = GPIO_SPEED_FREQ_LOW;
 284:Src/stm32f4xx_hal_msp.c ****     GPIO_InitStruct.Alternate = GPIO_AF1_TIM2;
 285:Src/stm32f4xx_hal_msp.c ****     HAL_GPIO_Init(GPIOB, &GPIO_InitStruct);
 286:Src/stm32f4xx_hal_msp.c **** 
 287:Src/stm32f4xx_hal_msp.c ****   /* USER CODE BEGIN TIM2_MspPostInit 1 */
 288:Src/stm32f4xx_hal_msp.c **** 
 289:Src/stm32f4xx_hal_msp.c ****   /* USER CODE END TIM2_MspPostInit 1 */
 290:Src/stm32f4xx_hal_msp.c ****   }
 291:Src/stm32f4xx_hal_msp.c ****   else if(htim->Instance==TIM3)
 516              		.loc 1 291 0
 517 000c 2D4A     		ldr	r2, .L49
 518 000e 9342     		cmp	r3, r2
 519 0010 22D0     		beq	.L45
 292:Src/stm32f4xx_hal_msp.c ****   {
 293:Src/stm32f4xx_hal_msp.c ****   /* USER CODE BEGIN TIM3_MspPostInit 0 */
 294:Src/stm32f4xx_hal_msp.c **** 
 295:Src/stm32f4xx_hal_msp.c ****   /* USER CODE END TIM3_MspPostInit 0 */
 296:Src/stm32f4xx_hal_msp.c ****   
 297:Src/stm32f4xx_hal_msp.c ****     /**TIM3 GPIO Configuration    
 298:Src/stm32f4xx_hal_msp.c ****     PB0     ------> TIM3_CH3
 299:Src/stm32f4xx_hal_msp.c ****     PB1     ------> TIM3_CH4 
 300:Src/stm32f4xx_hal_msp.c ****     */
 301:Src/stm32f4xx_hal_msp.c ****     GPIO_InitStruct.Pin = GPIO_PIN_0|GPIO_PIN_1;
 302:Src/stm32f4xx_hal_msp.c ****     GPIO_InitStruct.Mode = GPIO_MODE_AF_PP;
 303:Src/stm32f4xx_hal_msp.c ****     GPIO_InitStruct.Pull = GPIO_NOPULL;
 304:Src/stm32f4xx_hal_msp.c ****     GPIO_InitStruct.Speed = GPIO_SPEED_FREQ_LOW;
 305:Src/stm32f4xx_hal_msp.c ****     GPIO_InitStruct.Alternate = GPIO_AF2_TIM3;
 306:Src/stm32f4xx_hal_msp.c ****     HAL_GPIO_Init(GPIOB, &GPIO_InitStruct);
 307:Src/stm32f4xx_hal_msp.c **** 
 308:Src/stm32f4xx_hal_msp.c ****   /* USER CODE BEGIN TIM3_MspPostInit 1 */
 309:Src/stm32f4xx_hal_msp.c **** 
 310:Src/stm32f4xx_hal_msp.c ****   /* USER CODE END TIM3_MspPostInit 1 */
 311:Src/stm32f4xx_hal_msp.c ****   }
 312:Src/stm32f4xx_hal_msp.c ****   else if(htim->Instance==TIM5)
 520              		.loc 1 312 0
 521 0012 2D4A     		ldr	r2, .L49+4
 522 0014 9342     		cmp	r3, r2
 523 0016 2CD0     		beq	.L46
 313:Src/stm32f4xx_hal_msp.c ****   {
 314:Src/stm32f4xx_hal_msp.c ****   /* USER CODE BEGIN TIM5_MspPostInit 0 */
 315:Src/stm32f4xx_hal_msp.c **** 
 316:Src/stm32f4xx_hal_msp.c ****   /* USER CODE END TIM5_MspPostInit 0 */
ARM GAS  /var/folders/7p/1_dhylqx7nl5s8914_0f_4w00000gn/T//ccOYnT7N.s 			page 16


 317:Src/stm32f4xx_hal_msp.c ****   
 318:Src/stm32f4xx_hal_msp.c ****     /**TIM5 GPIO Configuration    
 319:Src/stm32f4xx_hal_msp.c ****     PA3     ------> TIM5_CH4 
 320:Src/stm32f4xx_hal_msp.c ****     */
 321:Src/stm32f4xx_hal_msp.c ****     GPIO_InitStruct.Pin = GPIO_PIN_3;
 322:Src/stm32f4xx_hal_msp.c ****     GPIO_InitStruct.Mode = GPIO_MODE_AF_PP;
 323:Src/stm32f4xx_hal_msp.c ****     GPIO_InitStruct.Pull = GPIO_NOPULL;
 324:Src/stm32f4xx_hal_msp.c ****     GPIO_InitStruct.Speed = GPIO_SPEED_FREQ_LOW;
 325:Src/stm32f4xx_hal_msp.c ****     GPIO_InitStruct.Alternate = GPIO_AF2_TIM5;
 326:Src/stm32f4xx_hal_msp.c ****     HAL_GPIO_Init(GPIOA, &GPIO_InitStruct);
 327:Src/stm32f4xx_hal_msp.c **** 
 328:Src/stm32f4xx_hal_msp.c ****   /* USER CODE BEGIN TIM5_MspPostInit 1 */
 329:Src/stm32f4xx_hal_msp.c **** 
 330:Src/stm32f4xx_hal_msp.c ****   /* USER CODE END TIM5_MspPostInit 1 */
 331:Src/stm32f4xx_hal_msp.c ****   }
 332:Src/stm32f4xx_hal_msp.c ****   else if(htim->Instance==TIM13)
 524              		.loc 1 332 0
 525 0018 2C4A     		ldr	r2, .L49+8
 526 001a 9342     		cmp	r3, r2
 527 001c 36D0     		beq	.L47
 333:Src/stm32f4xx_hal_msp.c ****   {
 334:Src/stm32f4xx_hal_msp.c ****   /* USER CODE BEGIN TIM13_MspPostInit 0 */
 335:Src/stm32f4xx_hal_msp.c **** 
 336:Src/stm32f4xx_hal_msp.c ****   /* USER CODE END TIM13_MspPostInit 0 */
 337:Src/stm32f4xx_hal_msp.c ****   
 338:Src/stm32f4xx_hal_msp.c ****     /**TIM13 GPIO Configuration    
 339:Src/stm32f4xx_hal_msp.c ****     PA6     ------> TIM13_CH1 
 340:Src/stm32f4xx_hal_msp.c ****     */
 341:Src/stm32f4xx_hal_msp.c ****     GPIO_InitStruct.Pin = GPIO_PIN_6;
 342:Src/stm32f4xx_hal_msp.c ****     GPIO_InitStruct.Mode = GPIO_MODE_AF_PP;
 343:Src/stm32f4xx_hal_msp.c ****     GPIO_InitStruct.Pull = GPIO_NOPULL;
 344:Src/stm32f4xx_hal_msp.c ****     GPIO_InitStruct.Speed = GPIO_SPEED_FREQ_LOW;
 345:Src/stm32f4xx_hal_msp.c ****     GPIO_InitStruct.Alternate = GPIO_AF9_TIM13;
 346:Src/stm32f4xx_hal_msp.c ****     HAL_GPIO_Init(GPIOA, &GPIO_InitStruct);
 347:Src/stm32f4xx_hal_msp.c **** 
 348:Src/stm32f4xx_hal_msp.c ****   /* USER CODE BEGIN TIM13_MspPostInit 1 */
 349:Src/stm32f4xx_hal_msp.c **** 
 350:Src/stm32f4xx_hal_msp.c ****   /* USER CODE END TIM13_MspPostInit 1 */
 351:Src/stm32f4xx_hal_msp.c ****   }
 352:Src/stm32f4xx_hal_msp.c ****   else if(htim->Instance==TIM14)
 528              		.loc 1 352 0
 529 001e 2C4A     		ldr	r2, .L49+12
 530 0020 9342     		cmp	r3, r2
 531 0022 41D0     		beq	.L48
 532              	.LVL29:
 533              	.L37:
 353:Src/stm32f4xx_hal_msp.c ****   {
 354:Src/stm32f4xx_hal_msp.c ****   /* USER CODE BEGIN TIM14_MspPostInit 0 */
 355:Src/stm32f4xx_hal_msp.c **** 
 356:Src/stm32f4xx_hal_msp.c ****   /* USER CODE END TIM14_MspPostInit 0 */
 357:Src/stm32f4xx_hal_msp.c ****   
 358:Src/stm32f4xx_hal_msp.c ****     /**TIM14 GPIO Configuration    
 359:Src/stm32f4xx_hal_msp.c ****     PA7     ------> TIM14_CH1 
 360:Src/stm32f4xx_hal_msp.c ****     */
 361:Src/stm32f4xx_hal_msp.c ****     GPIO_InitStruct.Pin = GPIO_PIN_7;
 362:Src/stm32f4xx_hal_msp.c ****     GPIO_InitStruct.Mode = GPIO_MODE_AF_PP;
 363:Src/stm32f4xx_hal_msp.c ****     GPIO_InitStruct.Pull = GPIO_NOPULL;
ARM GAS  /var/folders/7p/1_dhylqx7nl5s8914_0f_4w00000gn/T//ccOYnT7N.s 			page 17


 364:Src/stm32f4xx_hal_msp.c ****     GPIO_InitStruct.Speed = GPIO_SPEED_FREQ_LOW;
 365:Src/stm32f4xx_hal_msp.c ****     GPIO_InitStruct.Alternate = GPIO_AF9_TIM14;
 366:Src/stm32f4xx_hal_msp.c ****     HAL_GPIO_Init(GPIOA, &GPIO_InitStruct);
 367:Src/stm32f4xx_hal_msp.c **** 
 368:Src/stm32f4xx_hal_msp.c ****   /* USER CODE BEGIN TIM14_MspPostInit 1 */
 369:Src/stm32f4xx_hal_msp.c **** 
 370:Src/stm32f4xx_hal_msp.c ****   /* USER CODE END TIM14_MspPostInit 1 */
 371:Src/stm32f4xx_hal_msp.c ****   }
 372:Src/stm32f4xx_hal_msp.c **** 
 373:Src/stm32f4xx_hal_msp.c **** }
 534              		.loc 1 373 0
 535 0024 06B0     		add	sp, sp, #24
 536              	.LCFI14:
 537              		.cfi_remember_state
 538              		.cfi_def_cfa_offset 16
 539              		@ sp needed
 540 0026 70BD     		pop	{r4, r5, r6, pc}
 541              	.LVL30:
 542              	.L44:
 543              	.LCFI15:
 544              		.cfi_restore_state
 273:Src/stm32f4xx_hal_msp.c ****     GPIO_InitStruct.Mode = GPIO_MODE_AF_PP;
 545              		.loc 1 273 0
 546 0028 0225     		movs	r5, #2
 547 002a 0195     		str	r5, [sp, #4]
 274:Src/stm32f4xx_hal_msp.c ****     GPIO_InitStruct.Pull = GPIO_NOPULL;
 548              		.loc 1 274 0
 549 002c 0295     		str	r5, [sp, #8]
 275:Src/stm32f4xx_hal_msp.c ****     GPIO_InitStruct.Speed = GPIO_SPEED_FREQ_LOW;
 550              		.loc 1 275 0
 551 002e 0024     		movs	r4, #0
 552 0030 0394     		str	r4, [sp, #12]
 276:Src/stm32f4xx_hal_msp.c ****     GPIO_InitStruct.Alternate = GPIO_AF1_TIM2;
 553              		.loc 1 276 0
 554 0032 0494     		str	r4, [sp, #16]
 277:Src/stm32f4xx_hal_msp.c ****     HAL_GPIO_Init(GPIOA, &GPIO_InitStruct);
 555              		.loc 1 277 0
 556 0034 0126     		movs	r6, #1
 557 0036 0596     		str	r6, [sp, #20]
 278:Src/stm32f4xx_hal_msp.c **** 
 558              		.loc 1 278 0
 559 0038 01A9     		add	r1, sp, #4
 560 003a 2648     		ldr	r0, .L49+16
 561              	.LVL31:
 562 003c FFF7FEFF 		bl	HAL_GPIO_Init
 563              	.LVL32:
 280:Src/stm32f4xx_hal_msp.c ****     GPIO_InitStruct.Mode = GPIO_MODE_AF_PP;
 564              		.loc 1 280 0
 565 0040 4FF44063 		mov	r3, #3072
 566 0044 0193     		str	r3, [sp, #4]
 281:Src/stm32f4xx_hal_msp.c ****     GPIO_InitStruct.Pull = GPIO_NOPULL;
 567              		.loc 1 281 0
 568 0046 0295     		str	r5, [sp, #8]
 282:Src/stm32f4xx_hal_msp.c ****     GPIO_InitStruct.Speed = GPIO_SPEED_FREQ_LOW;
 569              		.loc 1 282 0
 570 0048 0394     		str	r4, [sp, #12]
 283:Src/stm32f4xx_hal_msp.c ****     GPIO_InitStruct.Alternate = GPIO_AF1_TIM2;
ARM GAS  /var/folders/7p/1_dhylqx7nl5s8914_0f_4w00000gn/T//ccOYnT7N.s 			page 18


 571              		.loc 1 283 0
 572 004a 0494     		str	r4, [sp, #16]
 284:Src/stm32f4xx_hal_msp.c ****     HAL_GPIO_Init(GPIOB, &GPIO_InitStruct);
 573              		.loc 1 284 0
 574 004c 0596     		str	r6, [sp, #20]
 285:Src/stm32f4xx_hal_msp.c **** 
 575              		.loc 1 285 0
 576 004e 01A9     		add	r1, sp, #4
 577 0050 2148     		ldr	r0, .L49+20
 578 0052 FFF7FEFF 		bl	HAL_GPIO_Init
 579              	.LVL33:
 580 0056 E5E7     		b	.L37
 581              	.LVL34:
 582              	.L45:
 301:Src/stm32f4xx_hal_msp.c ****     GPIO_InitStruct.Mode = GPIO_MODE_AF_PP;
 583              		.loc 1 301 0
 584 0058 0323     		movs	r3, #3
 585 005a 0193     		str	r3, [sp, #4]
 302:Src/stm32f4xx_hal_msp.c ****     GPIO_InitStruct.Pull = GPIO_NOPULL;
 586              		.loc 1 302 0
 587 005c 0223     		movs	r3, #2
 588 005e 0293     		str	r3, [sp, #8]
 303:Src/stm32f4xx_hal_msp.c ****     GPIO_InitStruct.Speed = GPIO_SPEED_FREQ_LOW;
 589              		.loc 1 303 0
 590 0060 0022     		movs	r2, #0
 591 0062 0392     		str	r2, [sp, #12]
 304:Src/stm32f4xx_hal_msp.c ****     GPIO_InitStruct.Alternate = GPIO_AF2_TIM3;
 592              		.loc 1 304 0
 593 0064 0492     		str	r2, [sp, #16]
 305:Src/stm32f4xx_hal_msp.c ****     HAL_GPIO_Init(GPIOB, &GPIO_InitStruct);
 594              		.loc 1 305 0
 595 0066 0593     		str	r3, [sp, #20]
 306:Src/stm32f4xx_hal_msp.c **** 
 596              		.loc 1 306 0
 597 0068 01A9     		add	r1, sp, #4
 598 006a 1B48     		ldr	r0, .L49+20
 599              	.LVL35:
 600 006c FFF7FEFF 		bl	HAL_GPIO_Init
 601              	.LVL36:
 602 0070 D8E7     		b	.L37
 603              	.LVL37:
 604              	.L46:
 321:Src/stm32f4xx_hal_msp.c ****     GPIO_InitStruct.Mode = GPIO_MODE_AF_PP;
 605              		.loc 1 321 0
 606 0072 0823     		movs	r3, #8
 607 0074 0193     		str	r3, [sp, #4]
 322:Src/stm32f4xx_hal_msp.c ****     GPIO_InitStruct.Pull = GPIO_NOPULL;
 608              		.loc 1 322 0
 609 0076 0223     		movs	r3, #2
 610 0078 0293     		str	r3, [sp, #8]
 323:Src/stm32f4xx_hal_msp.c ****     GPIO_InitStruct.Speed = GPIO_SPEED_FREQ_LOW;
 611              		.loc 1 323 0
 612 007a 0022     		movs	r2, #0
 613 007c 0392     		str	r2, [sp, #12]
 324:Src/stm32f4xx_hal_msp.c ****     GPIO_InitStruct.Alternate = GPIO_AF2_TIM5;
 614              		.loc 1 324 0
 615 007e 0492     		str	r2, [sp, #16]
ARM GAS  /var/folders/7p/1_dhylqx7nl5s8914_0f_4w00000gn/T//ccOYnT7N.s 			page 19


 325:Src/stm32f4xx_hal_msp.c ****     HAL_GPIO_Init(GPIOA, &GPIO_InitStruct);
 616              		.loc 1 325 0
 617 0080 0593     		str	r3, [sp, #20]
 326:Src/stm32f4xx_hal_msp.c **** 
 618              		.loc 1 326 0
 619 0082 01A9     		add	r1, sp, #4
 620 0084 1348     		ldr	r0, .L49+16
 621              	.LVL38:
 622 0086 FFF7FEFF 		bl	HAL_GPIO_Init
 623              	.LVL39:
 624 008a CBE7     		b	.L37
 625              	.LVL40:
 626              	.L47:
 341:Src/stm32f4xx_hal_msp.c ****     GPIO_InitStruct.Mode = GPIO_MODE_AF_PP;
 627              		.loc 1 341 0
 628 008c 4023     		movs	r3, #64
 629 008e 0193     		str	r3, [sp, #4]
 342:Src/stm32f4xx_hal_msp.c ****     GPIO_InitStruct.Pull = GPIO_NOPULL;
 630              		.loc 1 342 0
 631 0090 0223     		movs	r3, #2
 632 0092 0293     		str	r3, [sp, #8]
 343:Src/stm32f4xx_hal_msp.c ****     GPIO_InitStruct.Speed = GPIO_SPEED_FREQ_LOW;
 633              		.loc 1 343 0
 634 0094 0023     		movs	r3, #0
 635 0096 0393     		str	r3, [sp, #12]
 344:Src/stm32f4xx_hal_msp.c ****     GPIO_InitStruct.Alternate = GPIO_AF9_TIM13;
 636              		.loc 1 344 0
 637 0098 0493     		str	r3, [sp, #16]
 345:Src/stm32f4xx_hal_msp.c ****     HAL_GPIO_Init(GPIOA, &GPIO_InitStruct);
 638              		.loc 1 345 0
 639 009a 0923     		movs	r3, #9
 640 009c 0593     		str	r3, [sp, #20]
 346:Src/stm32f4xx_hal_msp.c **** 
 641              		.loc 1 346 0
 642 009e 01A9     		add	r1, sp, #4
 643 00a0 0C48     		ldr	r0, .L49+16
 644              	.LVL41:
 645 00a2 FFF7FEFF 		bl	HAL_GPIO_Init
 646              	.LVL42:
 647 00a6 BDE7     		b	.L37
 648              	.LVL43:
 649              	.L48:
 361:Src/stm32f4xx_hal_msp.c ****     GPIO_InitStruct.Mode = GPIO_MODE_AF_PP;
 650              		.loc 1 361 0
 651 00a8 8023     		movs	r3, #128
 652 00aa 0193     		str	r3, [sp, #4]
 362:Src/stm32f4xx_hal_msp.c ****     GPIO_InitStruct.Pull = GPIO_NOPULL;
 653              		.loc 1 362 0
 654 00ac 0223     		movs	r3, #2
 655 00ae 0293     		str	r3, [sp, #8]
 363:Src/stm32f4xx_hal_msp.c ****     GPIO_InitStruct.Speed = GPIO_SPEED_FREQ_LOW;
 656              		.loc 1 363 0
 657 00b0 0023     		movs	r3, #0
 658 00b2 0393     		str	r3, [sp, #12]
 364:Src/stm32f4xx_hal_msp.c ****     GPIO_InitStruct.Alternate = GPIO_AF9_TIM14;
 659              		.loc 1 364 0
 660 00b4 0493     		str	r3, [sp, #16]
ARM GAS  /var/folders/7p/1_dhylqx7nl5s8914_0f_4w00000gn/T//ccOYnT7N.s 			page 20


 365:Src/stm32f4xx_hal_msp.c ****     HAL_GPIO_Init(GPIOA, &GPIO_InitStruct);
 661              		.loc 1 365 0
 662 00b6 0923     		movs	r3, #9
 663 00b8 0593     		str	r3, [sp, #20]
 366:Src/stm32f4xx_hal_msp.c **** 
 664              		.loc 1 366 0
 665 00ba 01A9     		add	r1, sp, #4
 666 00bc 0548     		ldr	r0, .L49+16
 667              	.LVL44:
 668 00be FFF7FEFF 		bl	HAL_GPIO_Init
 669              	.LVL45:
 670              		.loc 1 373 0
 671 00c2 AFE7     		b	.L37
 672              	.L50:
 673              		.align	2
 674              	.L49:
 675 00c4 00040040 		.word	1073742848
 676 00c8 000C0040 		.word	1073744896
 677 00cc 001C0040 		.word	1073748992
 678 00d0 00200040 		.word	1073750016
 679 00d4 00000240 		.word	1073872896
 680 00d8 00040240 		.word	1073873920
 681              		.cfi_endproc
 682              	.LFE129:
 684              		.section	.text.HAL_TIM_PWM_MspDeInit,"ax",%progbits
 685              		.align	1
 686              		.global	HAL_TIM_PWM_MspDeInit
 687              		.syntax unified
 688              		.thumb
 689              		.thumb_func
 690              		.fpu fpv4-sp-d16
 692              	HAL_TIM_PWM_MspDeInit:
 693              	.LFB130:
 374:Src/stm32f4xx_hal_msp.c **** 
 375:Src/stm32f4xx_hal_msp.c **** void HAL_TIM_PWM_MspDeInit(TIM_HandleTypeDef* htim_pwm)
 376:Src/stm32f4xx_hal_msp.c **** {
 694              		.loc 1 376 0
 695              		.cfi_startproc
 696              		@ args = 0, pretend = 0, frame = 0
 697              		@ frame_needed = 0, uses_anonymous_args = 0
 698              		@ link register save eliminated.
 699              	.LVL46:
 377:Src/stm32f4xx_hal_msp.c **** 
 378:Src/stm32f4xx_hal_msp.c ****   if(htim_pwm->Instance==TIM2)
 700              		.loc 1 378 0
 701 0000 0368     		ldr	r3, [r0]
 702 0002 B3F1804F 		cmp	r3, #1073741824
 703 0006 06D0     		beq	.L55
 379:Src/stm32f4xx_hal_msp.c ****   {
 380:Src/stm32f4xx_hal_msp.c ****   /* USER CODE BEGIN TIM2_MspDeInit 0 */
 381:Src/stm32f4xx_hal_msp.c **** 
 382:Src/stm32f4xx_hal_msp.c ****   /* USER CODE END TIM2_MspDeInit 0 */
 383:Src/stm32f4xx_hal_msp.c ****     /* Peripheral clock disable */
 384:Src/stm32f4xx_hal_msp.c ****     __HAL_RCC_TIM2_CLK_DISABLE();
 385:Src/stm32f4xx_hal_msp.c ****   /* USER CODE BEGIN TIM2_MspDeInit 1 */
 386:Src/stm32f4xx_hal_msp.c **** 
 387:Src/stm32f4xx_hal_msp.c ****   /* USER CODE END TIM2_MspDeInit 1 */
ARM GAS  /var/folders/7p/1_dhylqx7nl5s8914_0f_4w00000gn/T//ccOYnT7N.s 			page 21


 388:Src/stm32f4xx_hal_msp.c ****   }
 389:Src/stm32f4xx_hal_msp.c ****   else if(htim_pwm->Instance==TIM3)
 704              		.loc 1 389 0
 705 0008 0D4A     		ldr	r2, .L58
 706 000a 9342     		cmp	r3, r2
 707 000c 09D0     		beq	.L56
 390:Src/stm32f4xx_hal_msp.c ****   {
 391:Src/stm32f4xx_hal_msp.c ****   /* USER CODE BEGIN TIM3_MspDeInit 0 */
 392:Src/stm32f4xx_hal_msp.c **** 
 393:Src/stm32f4xx_hal_msp.c ****   /* USER CODE END TIM3_MspDeInit 0 */
 394:Src/stm32f4xx_hal_msp.c ****     /* Peripheral clock disable */
 395:Src/stm32f4xx_hal_msp.c ****     __HAL_RCC_TIM3_CLK_DISABLE();
 396:Src/stm32f4xx_hal_msp.c ****   /* USER CODE BEGIN TIM3_MspDeInit 1 */
 397:Src/stm32f4xx_hal_msp.c **** 
 398:Src/stm32f4xx_hal_msp.c ****   /* USER CODE END TIM3_MspDeInit 1 */
 399:Src/stm32f4xx_hal_msp.c ****   }
 400:Src/stm32f4xx_hal_msp.c ****   else if(htim_pwm->Instance==TIM5)
 708              		.loc 1 400 0
 709 000e 0D4A     		ldr	r2, .L58+4
 710 0010 9342     		cmp	r3, r2
 711 0012 0DD0     		beq	.L57
 712              	.L51:
 713 0014 7047     		bx	lr
 714              	.L55:
 384:Src/stm32f4xx_hal_msp.c ****   /* USER CODE BEGIN TIM2_MspDeInit 1 */
 715              		.loc 1 384 0
 716 0016 0C4A     		ldr	r2, .L58+8
 717 0018 136C     		ldr	r3, [r2, #64]
 718 001a 23F00103 		bic	r3, r3, #1
 719 001e 1364     		str	r3, [r2, #64]
 720 0020 7047     		bx	lr
 721              	.L56:
 395:Src/stm32f4xx_hal_msp.c ****   /* USER CODE BEGIN TIM3_MspDeInit 1 */
 722              		.loc 1 395 0
 723 0022 02F50D32 		add	r2, r2, #144384
 724 0026 136C     		ldr	r3, [r2, #64]
 725 0028 23F00203 		bic	r3, r3, #2
 726 002c 1364     		str	r3, [r2, #64]
 727 002e 7047     		bx	lr
 728              	.L57:
 401:Src/stm32f4xx_hal_msp.c ****   {
 402:Src/stm32f4xx_hal_msp.c ****   /* USER CODE BEGIN TIM5_MspDeInit 0 */
 403:Src/stm32f4xx_hal_msp.c **** 
 404:Src/stm32f4xx_hal_msp.c ****   /* USER CODE END TIM5_MspDeInit 0 */
 405:Src/stm32f4xx_hal_msp.c ****     /* Peripheral clock disable */
 406:Src/stm32f4xx_hal_msp.c ****     __HAL_RCC_TIM5_CLK_DISABLE();
 729              		.loc 1 406 0
 730 0030 02F50B32 		add	r2, r2, #142336
 731 0034 136C     		ldr	r3, [r2, #64]
 732 0036 23F00803 		bic	r3, r3, #8
 733 003a 1364     		str	r3, [r2, #64]
 407:Src/stm32f4xx_hal_msp.c ****   /* USER CODE BEGIN TIM5_MspDeInit 1 */
 408:Src/stm32f4xx_hal_msp.c **** 
 409:Src/stm32f4xx_hal_msp.c ****   /* USER CODE END TIM5_MspDeInit 1 */
 410:Src/stm32f4xx_hal_msp.c ****   }
 411:Src/stm32f4xx_hal_msp.c **** 
 412:Src/stm32f4xx_hal_msp.c **** }
ARM GAS  /var/folders/7p/1_dhylqx7nl5s8914_0f_4w00000gn/T//ccOYnT7N.s 			page 22


 734              		.loc 1 412 0
 735 003c EAE7     		b	.L51
 736              	.L59:
 737 003e 00BF     		.align	2
 738              	.L58:
 739 0040 00040040 		.word	1073742848
 740 0044 000C0040 		.word	1073744896
 741 0048 00380240 		.word	1073887232
 742              		.cfi_endproc
 743              	.LFE130:
 745              		.section	.text.HAL_TIM_Base_MspDeInit,"ax",%progbits
 746              		.align	1
 747              		.global	HAL_TIM_Base_MspDeInit
 748              		.syntax unified
 749              		.thumb
 750              		.thumb_func
 751              		.fpu fpv4-sp-d16
 753              	HAL_TIM_Base_MspDeInit:
 754              	.LFB131:
 413:Src/stm32f4xx_hal_msp.c **** 
 414:Src/stm32f4xx_hal_msp.c **** void HAL_TIM_Base_MspDeInit(TIM_HandleTypeDef* htim_base)
 415:Src/stm32f4xx_hal_msp.c **** {
 755              		.loc 1 415 0
 756              		.cfi_startproc
 757              		@ args = 0, pretend = 0, frame = 0
 758              		@ frame_needed = 0, uses_anonymous_args = 0
 759              		@ link register save eliminated.
 760              	.LVL47:
 416:Src/stm32f4xx_hal_msp.c **** 
 417:Src/stm32f4xx_hal_msp.c ****   if(htim_base->Instance==TIM13)
 761              		.loc 1 417 0
 762 0000 0368     		ldr	r3, [r0]
 763 0002 0A4A     		ldr	r2, .L65
 764 0004 9342     		cmp	r3, r2
 765 0006 03D0     		beq	.L63
 418:Src/stm32f4xx_hal_msp.c ****   {
 419:Src/stm32f4xx_hal_msp.c ****   /* USER CODE BEGIN TIM13_MspDeInit 0 */
 420:Src/stm32f4xx_hal_msp.c **** 
 421:Src/stm32f4xx_hal_msp.c ****   /* USER CODE END TIM13_MspDeInit 0 */
 422:Src/stm32f4xx_hal_msp.c ****     /* Peripheral clock disable */
 423:Src/stm32f4xx_hal_msp.c ****     __HAL_RCC_TIM13_CLK_DISABLE();
 424:Src/stm32f4xx_hal_msp.c ****   /* USER CODE BEGIN TIM13_MspDeInit 1 */
 425:Src/stm32f4xx_hal_msp.c **** 
 426:Src/stm32f4xx_hal_msp.c ****   /* USER CODE END TIM13_MspDeInit 1 */
 427:Src/stm32f4xx_hal_msp.c ****   }
 428:Src/stm32f4xx_hal_msp.c ****   else if(htim_base->Instance==TIM14)
 766              		.loc 1 428 0
 767 0008 094A     		ldr	r2, .L65+4
 768 000a 9342     		cmp	r3, r2
 769 000c 07D0     		beq	.L64
 770              	.L60:
 771 000e 7047     		bx	lr
 772              	.L63:
 423:Src/stm32f4xx_hal_msp.c ****   /* USER CODE BEGIN TIM13_MspDeInit 1 */
 773              		.loc 1 423 0
 774 0010 02F50732 		add	r2, r2, #138240
 775 0014 136C     		ldr	r3, [r2, #64]
ARM GAS  /var/folders/7p/1_dhylqx7nl5s8914_0f_4w00000gn/T//ccOYnT7N.s 			page 23


 776 0016 23F08003 		bic	r3, r3, #128
 777 001a 1364     		str	r3, [r2, #64]
 778 001c 7047     		bx	lr
 779              	.L64:
 429:Src/stm32f4xx_hal_msp.c ****   {
 430:Src/stm32f4xx_hal_msp.c ****   /* USER CODE BEGIN TIM14_MspDeInit 0 */
 431:Src/stm32f4xx_hal_msp.c **** 
 432:Src/stm32f4xx_hal_msp.c ****   /* USER CODE END TIM14_MspDeInit 0 */
 433:Src/stm32f4xx_hal_msp.c ****     /* Peripheral clock disable */
 434:Src/stm32f4xx_hal_msp.c ****     __HAL_RCC_TIM14_CLK_DISABLE();
 780              		.loc 1 434 0
 781 001e 02F50632 		add	r2, r2, #137216
 782 0022 136C     		ldr	r3, [r2, #64]
 783 0024 23F48073 		bic	r3, r3, #256
 784 0028 1364     		str	r3, [r2, #64]
 435:Src/stm32f4xx_hal_msp.c ****   /* USER CODE BEGIN TIM14_MspDeInit 1 */
 436:Src/stm32f4xx_hal_msp.c **** 
 437:Src/stm32f4xx_hal_msp.c ****   /* USER CODE END TIM14_MspDeInit 1 */
 438:Src/stm32f4xx_hal_msp.c ****   }
 439:Src/stm32f4xx_hal_msp.c **** 
 440:Src/stm32f4xx_hal_msp.c **** }
 785              		.loc 1 440 0
 786 002a F0E7     		b	.L60
 787              	.L66:
 788              		.align	2
 789              	.L65:
 790 002c 001C0040 		.word	1073748992
 791 0030 00200040 		.word	1073750016
 792              		.cfi_endproc
 793              	.LFE131:
 795              		.text
 796              	.Letext0:
 797              		.file 2 "/Users/augustmason/Documents/gitHub/riptide_firmware/STM32/gcc-arm-none-eabi-6-2017-q2-up
 798              		.file 3 "/Users/augustmason/Documents/gitHub/riptide_firmware/STM32/gcc-arm-none-eabi-6-2017-q2-up
 799              		.file 4 "Drivers/CMSIS/Include/core_cm4.h"
 800              		.file 5 "Drivers/CMSIS/Device/ST/STM32F4xx/Include/system_stm32f4xx.h"
 801              		.file 6 "Drivers/CMSIS/Device/ST/STM32F4xx/Include/stm32f405xx.h"
 802              		.file 7 "/Users/augustmason/Documents/gitHub/riptide_firmware/STM32/gcc-arm-none-eabi-6-2017-q2-up
 803              		.file 8 "/Users/augustmason/Documents/gitHub/riptide_firmware/STM32/gcc-arm-none-eabi-6-2017-q2-up
 804              		.file 9 "/Users/augustmason/Documents/gitHub/riptide_firmware/STM32/gcc-arm-none-eabi-6-2017-q2-up
 805              		.file 10 "/Users/augustmason/Documents/gitHub/riptide_firmware/STM32/gcc-arm-none-eabi-6-2017-q2-u
 806              		.file 11 "Drivers/STM32F4xx_HAL_Driver/Inc/stm32f4xx_hal_def.h"
 807              		.file 12 "Drivers/STM32F4xx_HAL_Driver/Inc/stm32f4xx_hal_gpio.h"
 808              		.file 13 "Drivers/STM32F4xx_HAL_Driver/Inc/stm32f4xx_hal_dma.h"
 809              		.file 14 "Drivers/STM32F4xx_HAL_Driver/Inc/stm32f4xx_hal_i2c.h"
 810              		.file 15 "Drivers/STM32F4xx_HAL_Driver/Inc/stm32f4xx_hal_tim.h"
 811              		.file 16 "Drivers/STM32F4xx_HAL_Driver/Inc/stm32f4xx_hal_cortex.h"
ARM GAS  /var/folders/7p/1_dhylqx7nl5s8914_0f_4w00000gn/T//ccOYnT7N.s 			page 24

