ARM GAS  /var/folders/7p/1_dhylqx7nl5s8914_0f_4w00000gn/T//ccOoAhdp.s 			page 1


   1              		.cpu cortex-m4
   2              		.eabi_attribute 27, 1
   3              		.eabi_attribute 28, 1
   4              		.eabi_attribute 20, 1
   5              		.eabi_attribute 21, 1
   6              		.eabi_attribute 23, 3
   7              		.eabi_attribute 24, 1
   8              		.eabi_attribute 25, 1
   9              		.eabi_attribute 26, 1
  10              		.eabi_attribute 30, 1
  11              		.eabi_attribute 34, 1
  12              		.eabi_attribute 18, 4
  13              		.file	"stm32f4xx_hal_msp.c"
  14              		.text
  15              	.Ltext0:
  16              		.cfi_sections	.debug_frame
  17              		.section	.text.HAL_MspInit,"ax",%progbits
  18              		.align	1
  19              		.global	HAL_MspInit
  20              		.syntax unified
  21              		.thumb
  22              		.thumb_func
  23              		.fpu fpv4-sp-d16
  25              	HAL_MspInit:
  26              	.LFB124:
  27              		.file 1 "Src/stm32f4xx_hal_msp.c"
   1:Src/stm32f4xx_hal_msp.c **** /**
   2:Src/stm32f4xx_hal_msp.c ****   ******************************************************************************
   3:Src/stm32f4xx_hal_msp.c ****   * File Name          : stm32f4xx_hal_msp.c
   4:Src/stm32f4xx_hal_msp.c ****   * Description        : This file provides code for the MSP Initialization 
   5:Src/stm32f4xx_hal_msp.c ****   *                      and de-Initialization codes.
   6:Src/stm32f4xx_hal_msp.c ****   ******************************************************************************
   7:Src/stm32f4xx_hal_msp.c ****   * This notice applies to any and all portions of this file
   8:Src/stm32f4xx_hal_msp.c ****   * that are not between comment pairs USER CODE BEGIN and
   9:Src/stm32f4xx_hal_msp.c ****   * USER CODE END. Other portions of this file, whether 
  10:Src/stm32f4xx_hal_msp.c ****   * inserted by the user or by software development tools
  11:Src/stm32f4xx_hal_msp.c ****   * are owned by their respective copyright owners.
  12:Src/stm32f4xx_hal_msp.c ****   *
  13:Src/stm32f4xx_hal_msp.c ****   * Copyright (c) 2017 STMicroelectronics International N.V. 
  14:Src/stm32f4xx_hal_msp.c ****   * All rights reserved.
  15:Src/stm32f4xx_hal_msp.c ****   *
  16:Src/stm32f4xx_hal_msp.c ****   * Redistribution and use in source and binary forms, with or without 
  17:Src/stm32f4xx_hal_msp.c ****   * modification, are permitted, provided that the following conditions are met:
  18:Src/stm32f4xx_hal_msp.c ****   *
  19:Src/stm32f4xx_hal_msp.c ****   * 1. Redistribution of source code must retain the above copyright notice, 
  20:Src/stm32f4xx_hal_msp.c ****   *    this list of conditions and the following disclaimer.
  21:Src/stm32f4xx_hal_msp.c ****   * 2. Redistributions in binary form must reproduce the above copyright notice,
  22:Src/stm32f4xx_hal_msp.c ****   *    this list of conditions and the following disclaimer in the documentation
  23:Src/stm32f4xx_hal_msp.c ****   *    and/or other materials provided with the distribution.
  24:Src/stm32f4xx_hal_msp.c ****   * 3. Neither the name of STMicroelectronics nor the names of other 
  25:Src/stm32f4xx_hal_msp.c ****   *    contributors to this software may be used to endorse or promote products 
  26:Src/stm32f4xx_hal_msp.c ****   *    derived from this software without specific written permission.
  27:Src/stm32f4xx_hal_msp.c ****   * 4. This software, including modifications and/or derivative works of this 
  28:Src/stm32f4xx_hal_msp.c ****   *    software, must execute solely and exclusively on microcontroller or
  29:Src/stm32f4xx_hal_msp.c ****   *    microprocessor devices manufactured by or for STMicroelectronics.
  30:Src/stm32f4xx_hal_msp.c ****   * 5. Redistribution and use of this software other than as permitted under 
  31:Src/stm32f4xx_hal_msp.c ****   *    this license is void and will automatically terminate your rights under 
ARM GAS  /var/folders/7p/1_dhylqx7nl5s8914_0f_4w00000gn/T//ccOoAhdp.s 			page 2


  32:Src/stm32f4xx_hal_msp.c ****   *    this license. 
  33:Src/stm32f4xx_hal_msp.c ****   *
  34:Src/stm32f4xx_hal_msp.c ****   * THIS SOFTWARE IS PROVIDED BY STMICROELECTRONICS AND CONTRIBUTORS "AS IS" 
  35:Src/stm32f4xx_hal_msp.c ****   * AND ANY EXPRESS, IMPLIED OR STATUTORY WARRANTIES, INCLUDING, BUT NOT 
  36:Src/stm32f4xx_hal_msp.c ****   * LIMITED TO, THE IMPLIED WARRANTIES OF MERCHANTABILITY, FITNESS FOR A 
  37:Src/stm32f4xx_hal_msp.c ****   * PARTICULAR PURPOSE AND NON-INFRINGEMENT OF THIRD PARTY INTELLECTUAL PROPERTY
  38:Src/stm32f4xx_hal_msp.c ****   * RIGHTS ARE DISCLAIMED TO THE FULLEST EXTENT PERMITTED BY LAW. IN NO EVENT 
  39:Src/stm32f4xx_hal_msp.c ****   * SHALL STMICROELECTRONICS OR CONTRIBUTORS BE LIABLE FOR ANY DIRECT, INDIRECT,
  40:Src/stm32f4xx_hal_msp.c ****   * INCIDENTAL, SPECIAL, EXEMPLARY, OR CONSEQUENTIAL DAMAGES (INCLUDING, BUT NOT
  41:Src/stm32f4xx_hal_msp.c ****   * LIMITED TO, PROCUREMENT OF SUBSTITUTE GOODS OR SERVICES; LOSS OF USE, DATA, 
  42:Src/stm32f4xx_hal_msp.c ****   * OR PROFITS; OR BUSINESS INTERRUPTION) HOWEVER CAUSED AND ON ANY THEORY OF 
  43:Src/stm32f4xx_hal_msp.c ****   * LIABILITY, WHETHER IN CONTRACT, STRICT LIABILITY, OR TORT (INCLUDING 
  44:Src/stm32f4xx_hal_msp.c ****   * NEGLIGENCE OR OTHERWISE) ARISING IN ANY WAY OUT OF THE USE OF THIS SOFTWARE,
  45:Src/stm32f4xx_hal_msp.c ****   * EVEN IF ADVISED OF THE POSSIBILITY OF SUCH DAMAGE.
  46:Src/stm32f4xx_hal_msp.c ****   *
  47:Src/stm32f4xx_hal_msp.c ****   ******************************************************************************
  48:Src/stm32f4xx_hal_msp.c ****   */
  49:Src/stm32f4xx_hal_msp.c **** /* Includes ------------------------------------------------------------------*/
  50:Src/stm32f4xx_hal_msp.c **** #include "stm32f4xx_hal.h"
  51:Src/stm32f4xx_hal_msp.c **** 
  52:Src/stm32f4xx_hal_msp.c **** extern void _Error_Handler(char *, int);
  53:Src/stm32f4xx_hal_msp.c **** /* USER CODE BEGIN 0 */
  54:Src/stm32f4xx_hal_msp.c **** 
  55:Src/stm32f4xx_hal_msp.c **** /* USER CODE END 0 */
  56:Src/stm32f4xx_hal_msp.c **** /**
  57:Src/stm32f4xx_hal_msp.c ****   * Initializes the Global MSP.
  58:Src/stm32f4xx_hal_msp.c ****   */
  59:Src/stm32f4xx_hal_msp.c **** void HAL_MspInit(void)
  60:Src/stm32f4xx_hal_msp.c **** {
  28              		.loc 1 60 0
  29              		.cfi_startproc
  30              		@ args = 0, pretend = 0, frame = 0
  31              		@ frame_needed = 0, uses_anonymous_args = 0
  32 0000 08B5     		push	{r3, lr}
  33              	.LCFI0:
  34              		.cfi_def_cfa_offset 8
  35              		.cfi_offset 3, -8
  36              		.cfi_offset 14, -4
  61:Src/stm32f4xx_hal_msp.c ****   /* USER CODE BEGIN MspInit 0 */
  62:Src/stm32f4xx_hal_msp.c **** 
  63:Src/stm32f4xx_hal_msp.c ****   /* USER CODE END MspInit 0 */
  64:Src/stm32f4xx_hal_msp.c **** 
  65:Src/stm32f4xx_hal_msp.c ****   HAL_NVIC_SetPriorityGrouping(NVIC_PRIORITYGROUP_4);
  37              		.loc 1 65 0
  38 0002 0320     		movs	r0, #3
  39 0004 FFF7FEFF 		bl	HAL_NVIC_SetPriorityGrouping
  40              	.LVL0:
  66:Src/stm32f4xx_hal_msp.c **** 
  67:Src/stm32f4xx_hal_msp.c ****   /* System interrupt init*/
  68:Src/stm32f4xx_hal_msp.c ****   /* MemoryManagement_IRQn interrupt configuration */
  69:Src/stm32f4xx_hal_msp.c ****   HAL_NVIC_SetPriority(MemoryManagement_IRQn, 0, 0);
  41              		.loc 1 69 0
  42 0008 0022     		movs	r2, #0
  43 000a 1146     		mov	r1, r2
  44 000c 6FF00B00 		mvn	r0, #11
  45 0010 FFF7FEFF 		bl	HAL_NVIC_SetPriority
  46              	.LVL1:
ARM GAS  /var/folders/7p/1_dhylqx7nl5s8914_0f_4w00000gn/T//ccOoAhdp.s 			page 3


  70:Src/stm32f4xx_hal_msp.c ****   /* BusFault_IRQn interrupt configuration */
  71:Src/stm32f4xx_hal_msp.c ****   HAL_NVIC_SetPriority(BusFault_IRQn, 0, 0);
  47              		.loc 1 71 0
  48 0014 0022     		movs	r2, #0
  49 0016 1146     		mov	r1, r2
  50 0018 6FF00A00 		mvn	r0, #10
  51 001c FFF7FEFF 		bl	HAL_NVIC_SetPriority
  52              	.LVL2:
  72:Src/stm32f4xx_hal_msp.c ****   /* UsageFault_IRQn interrupt configuration */
  73:Src/stm32f4xx_hal_msp.c ****   HAL_NVIC_SetPriority(UsageFault_IRQn, 0, 0);
  53              		.loc 1 73 0
  54 0020 0022     		movs	r2, #0
  55 0022 1146     		mov	r1, r2
  56 0024 6FF00900 		mvn	r0, #9
  57 0028 FFF7FEFF 		bl	HAL_NVIC_SetPriority
  58              	.LVL3:
  74:Src/stm32f4xx_hal_msp.c ****   /* SVCall_IRQn interrupt configuration */
  75:Src/stm32f4xx_hal_msp.c ****   HAL_NVIC_SetPriority(SVCall_IRQn, 0, 0);
  59              		.loc 1 75 0
  60 002c 0022     		movs	r2, #0
  61 002e 1146     		mov	r1, r2
  62 0030 6FF00400 		mvn	r0, #4
  63 0034 FFF7FEFF 		bl	HAL_NVIC_SetPriority
  64              	.LVL4:
  76:Src/stm32f4xx_hal_msp.c ****   /* DebugMonitor_IRQn interrupt configuration */
  77:Src/stm32f4xx_hal_msp.c ****   HAL_NVIC_SetPriority(DebugMonitor_IRQn, 0, 0);
  65              		.loc 1 77 0
  66 0038 0022     		movs	r2, #0
  67 003a 1146     		mov	r1, r2
  68 003c 6FF00300 		mvn	r0, #3
  69 0040 FFF7FEFF 		bl	HAL_NVIC_SetPriority
  70              	.LVL5:
  78:Src/stm32f4xx_hal_msp.c ****   /* PendSV_IRQn interrupt configuration */
  79:Src/stm32f4xx_hal_msp.c ****   HAL_NVIC_SetPriority(PendSV_IRQn, 15, 0);
  71              		.loc 1 79 0
  72 0044 0022     		movs	r2, #0
  73 0046 0F21     		movs	r1, #15
  74 0048 6FF00100 		mvn	r0, #1
  75 004c FFF7FEFF 		bl	HAL_NVIC_SetPriority
  76              	.LVL6:
  80:Src/stm32f4xx_hal_msp.c ****   /* SysTick_IRQn interrupt configuration */
  81:Src/stm32f4xx_hal_msp.c ****   HAL_NVIC_SetPriority(SysTick_IRQn, 15, 0);
  77              		.loc 1 81 0
  78 0050 0022     		movs	r2, #0
  79 0052 0F21     		movs	r1, #15
  80 0054 4FF0FF30 		mov	r0, #-1
  81 0058 FFF7FEFF 		bl	HAL_NVIC_SetPriority
  82              	.LVL7:
  83 005c 08BD     		pop	{r3, pc}
  84              		.cfi_endproc
  85              	.LFE124:
  87              		.section	.text.HAL_ADC_MspInit,"ax",%progbits
  88              		.align	1
  89              		.global	HAL_ADC_MspInit
  90              		.syntax unified
  91              		.thumb
  92              		.thumb_func
ARM GAS  /var/folders/7p/1_dhylqx7nl5s8914_0f_4w00000gn/T//ccOoAhdp.s 			page 4


  93              		.fpu fpv4-sp-d16
  95              	HAL_ADC_MspInit:
  96              	.LFB125:
  82:Src/stm32f4xx_hal_msp.c **** 
  83:Src/stm32f4xx_hal_msp.c ****   /* USER CODE BEGIN MspInit 1 */
  84:Src/stm32f4xx_hal_msp.c **** 
  85:Src/stm32f4xx_hal_msp.c ****   /* USER CODE END MspInit 1 */
  86:Src/stm32f4xx_hal_msp.c **** }
  87:Src/stm32f4xx_hal_msp.c **** 
  88:Src/stm32f4xx_hal_msp.c **** void HAL_ADC_MspInit(ADC_HandleTypeDef* hadc)
  89:Src/stm32f4xx_hal_msp.c **** {
  97              		.loc 1 89 0
  98              		.cfi_startproc
  99              		@ args = 0, pretend = 0, frame = 24
 100              		@ frame_needed = 0, uses_anonymous_args = 0
 101              	.LVL8:
  90:Src/stm32f4xx_hal_msp.c **** 
  91:Src/stm32f4xx_hal_msp.c ****   GPIO_InitTypeDef GPIO_InitStruct;
  92:Src/stm32f4xx_hal_msp.c ****   if(hadc->Instance==ADC3)
 102              		.loc 1 92 0
 103 0000 0268     		ldr	r2, [r0]
 104 0002 0F4B     		ldr	r3, .L10
 105 0004 9A42     		cmp	r2, r3
 106 0006 00D0     		beq	.L9
 107 0008 7047     		bx	lr
 108              	.L9:
  89:Src/stm32f4xx_hal_msp.c **** 
 109              		.loc 1 89 0
 110 000a 00B5     		push	{lr}
 111              	.LCFI1:
 112              		.cfi_def_cfa_offset 4
 113              		.cfi_offset 14, -4
 114 000c 87B0     		sub	sp, sp, #28
 115              	.LCFI2:
 116              		.cfi_def_cfa_offset 32
 117              	.LBB2:
  93:Src/stm32f4xx_hal_msp.c ****   {
  94:Src/stm32f4xx_hal_msp.c ****   /* USER CODE BEGIN ADC3_MspInit 0 */
  95:Src/stm32f4xx_hal_msp.c **** 
  96:Src/stm32f4xx_hal_msp.c ****   /* USER CODE END ADC3_MspInit 0 */
  97:Src/stm32f4xx_hal_msp.c ****     /* Peripheral clock enable */
  98:Src/stm32f4xx_hal_msp.c ****     __HAL_RCC_ADC3_CLK_ENABLE();
 118              		.loc 1 98 0
 119 000e 0021     		movs	r1, #0
 120 0010 0091     		str	r1, [sp]
 121 0012 03F58B33 		add	r3, r3, #71168
 122 0016 5A6C     		ldr	r2, [r3, #68]
 123 0018 42F48062 		orr	r2, r2, #1024
 124 001c 5A64     		str	r2, [r3, #68]
 125 001e 5B6C     		ldr	r3, [r3, #68]
 126 0020 03F48063 		and	r3, r3, #1024
 127 0024 0093     		str	r3, [sp]
 128 0026 009B     		ldr	r3, [sp]
 129              	.LBE2:
  99:Src/stm32f4xx_hal_msp.c ****   
 100:Src/stm32f4xx_hal_msp.c ****     /**ADC3 GPIO Configuration    
 101:Src/stm32f4xx_hal_msp.c ****     PC0     ------> ADC3_IN10 
ARM GAS  /var/folders/7p/1_dhylqx7nl5s8914_0f_4w00000gn/T//ccOoAhdp.s 			page 5


 102:Src/stm32f4xx_hal_msp.c ****     */
 103:Src/stm32f4xx_hal_msp.c ****     GPIO_InitStruct.Pin = GPIO_PIN_0;
 130              		.loc 1 103 0
 131 0028 0123     		movs	r3, #1
 132 002a 0193     		str	r3, [sp, #4]
 104:Src/stm32f4xx_hal_msp.c ****     GPIO_InitStruct.Mode = GPIO_MODE_ANALOG;
 133              		.loc 1 104 0
 134 002c 0323     		movs	r3, #3
 135 002e 0293     		str	r3, [sp, #8]
 105:Src/stm32f4xx_hal_msp.c ****     GPIO_InitStruct.Pull = GPIO_NOPULL;
 136              		.loc 1 105 0
 137 0030 0391     		str	r1, [sp, #12]
 106:Src/stm32f4xx_hal_msp.c ****     HAL_GPIO_Init(GPIOC, &GPIO_InitStruct);
 138              		.loc 1 106 0
 139 0032 01A9     		add	r1, sp, #4
 140 0034 0348     		ldr	r0, .L10+4
 141              	.LVL9:
 142 0036 FFF7FEFF 		bl	HAL_GPIO_Init
 143              	.LVL10:
 107:Src/stm32f4xx_hal_msp.c **** 
 108:Src/stm32f4xx_hal_msp.c ****   /* USER CODE BEGIN ADC3_MspInit 1 */
 109:Src/stm32f4xx_hal_msp.c **** 
 110:Src/stm32f4xx_hal_msp.c ****   /* USER CODE END ADC3_MspInit 1 */
 111:Src/stm32f4xx_hal_msp.c ****   }
 112:Src/stm32f4xx_hal_msp.c **** 
 113:Src/stm32f4xx_hal_msp.c **** }
 144              		.loc 1 113 0
 145 003a 07B0     		add	sp, sp, #28
 146              	.LCFI3:
 147              		.cfi_def_cfa_offset 4
 148              		@ sp needed
 149 003c 5DF804FB 		ldr	pc, [sp], #4
 150              	.L11:
 151              		.align	2
 152              	.L10:
 153 0040 00220140 		.word	1073816064
 154 0044 00080240 		.word	1073874944
 155              		.cfi_endproc
 156              	.LFE125:
 158              		.section	.text.HAL_ADC_MspDeInit,"ax",%progbits
 159              		.align	1
 160              		.global	HAL_ADC_MspDeInit
 161              		.syntax unified
 162              		.thumb
 163              		.thumb_func
 164              		.fpu fpv4-sp-d16
 166              	HAL_ADC_MspDeInit:
 167              	.LFB126:
 114:Src/stm32f4xx_hal_msp.c **** 
 115:Src/stm32f4xx_hal_msp.c **** void HAL_ADC_MspDeInit(ADC_HandleTypeDef* hadc)
 116:Src/stm32f4xx_hal_msp.c **** {
 168              		.loc 1 116 0
 169              		.cfi_startproc
 170              		@ args = 0, pretend = 0, frame = 0
 171              		@ frame_needed = 0, uses_anonymous_args = 0
 172              	.LVL11:
 173 0000 08B5     		push	{r3, lr}
ARM GAS  /var/folders/7p/1_dhylqx7nl5s8914_0f_4w00000gn/T//ccOoAhdp.s 			page 6


 174              	.LCFI4:
 175              		.cfi_def_cfa_offset 8
 176              		.cfi_offset 3, -8
 177              		.cfi_offset 14, -4
 117:Src/stm32f4xx_hal_msp.c **** 
 118:Src/stm32f4xx_hal_msp.c ****   if(hadc->Instance==ADC3)
 178              		.loc 1 118 0
 179 0002 0268     		ldr	r2, [r0]
 180 0004 064B     		ldr	r3, .L16
 181 0006 9A42     		cmp	r2, r3
 182 0008 00D0     		beq	.L15
 183              	.LVL12:
 184              	.L12:
 185 000a 08BD     		pop	{r3, pc}
 186              	.LVL13:
 187              	.L15:
 119:Src/stm32f4xx_hal_msp.c ****   {
 120:Src/stm32f4xx_hal_msp.c ****   /* USER CODE BEGIN ADC3_MspDeInit 0 */
 121:Src/stm32f4xx_hal_msp.c **** 
 122:Src/stm32f4xx_hal_msp.c ****   /* USER CODE END ADC3_MspDeInit 0 */
 123:Src/stm32f4xx_hal_msp.c ****     /* Peripheral clock disable */
 124:Src/stm32f4xx_hal_msp.c ****     __HAL_RCC_ADC3_CLK_DISABLE();
 188              		.loc 1 124 0
 189 000c 054A     		ldr	r2, .L16+4
 190 000e 536C     		ldr	r3, [r2, #68]
 191 0010 23F48063 		bic	r3, r3, #1024
 192 0014 5364     		str	r3, [r2, #68]
 125:Src/stm32f4xx_hal_msp.c ****   
 126:Src/stm32f4xx_hal_msp.c ****     /**ADC3 GPIO Configuration    
 127:Src/stm32f4xx_hal_msp.c ****     PC0     ------> ADC3_IN10 
 128:Src/stm32f4xx_hal_msp.c ****     */
 129:Src/stm32f4xx_hal_msp.c ****     HAL_GPIO_DeInit(GPIOC, GPIO_PIN_0);
 193              		.loc 1 129 0
 194 0016 0121     		movs	r1, #1
 195 0018 0348     		ldr	r0, .L16+8
 196              	.LVL14:
 197 001a FFF7FEFF 		bl	HAL_GPIO_DeInit
 198              	.LVL15:
 130:Src/stm32f4xx_hal_msp.c **** 
 131:Src/stm32f4xx_hal_msp.c ****   /* USER CODE BEGIN ADC3_MspDeInit 1 */
 132:Src/stm32f4xx_hal_msp.c **** 
 133:Src/stm32f4xx_hal_msp.c ****   /* USER CODE END ADC3_MspDeInit 1 */
 134:Src/stm32f4xx_hal_msp.c ****   }
 135:Src/stm32f4xx_hal_msp.c **** 
 136:Src/stm32f4xx_hal_msp.c **** }
 199              		.loc 1 136 0
 200 001e F4E7     		b	.L12
 201              	.L17:
 202              		.align	2
 203              	.L16:
 204 0020 00220140 		.word	1073816064
 205 0024 00380240 		.word	1073887232
 206 0028 00080240 		.word	1073874944
 207              		.cfi_endproc
 208              	.LFE126:
 210              		.section	.text.HAL_CAN_MspInit,"ax",%progbits
 211              		.align	1
ARM GAS  /var/folders/7p/1_dhylqx7nl5s8914_0f_4w00000gn/T//ccOoAhdp.s 			page 7


 212              		.global	HAL_CAN_MspInit
 213              		.syntax unified
 214              		.thumb
 215              		.thumb_func
 216              		.fpu fpv4-sp-d16
 218              	HAL_CAN_MspInit:
 219              	.LFB127:
 137:Src/stm32f4xx_hal_msp.c **** 
 138:Src/stm32f4xx_hal_msp.c **** void HAL_CAN_MspInit(CAN_HandleTypeDef* hcan)
 139:Src/stm32f4xx_hal_msp.c **** {
 220              		.loc 1 139 0
 221              		.cfi_startproc
 222              		@ args = 0, pretend = 0, frame = 24
 223              		@ frame_needed = 0, uses_anonymous_args = 0
 224              	.LVL16:
 140:Src/stm32f4xx_hal_msp.c **** 
 141:Src/stm32f4xx_hal_msp.c ****   GPIO_InitTypeDef GPIO_InitStruct;
 142:Src/stm32f4xx_hal_msp.c ****   if(hcan->Instance==CAN1)
 225              		.loc 1 142 0
 226 0000 0268     		ldr	r2, [r0]
 227 0002 124B     		ldr	r3, .L25
 228 0004 9A42     		cmp	r2, r3
 229 0006 00D0     		beq	.L24
 230 0008 7047     		bx	lr
 231              	.L24:
 139:Src/stm32f4xx_hal_msp.c **** 
 232              		.loc 1 139 0
 233 000a 00B5     		push	{lr}
 234              	.LCFI5:
 235              		.cfi_def_cfa_offset 4
 236              		.cfi_offset 14, -4
 237 000c 87B0     		sub	sp, sp, #28
 238              	.LCFI6:
 239              		.cfi_def_cfa_offset 32
 240              	.LBB3:
 143:Src/stm32f4xx_hal_msp.c ****   {
 144:Src/stm32f4xx_hal_msp.c ****   /* USER CODE BEGIN CAN1_MspInit 0 */
 145:Src/stm32f4xx_hal_msp.c **** 
 146:Src/stm32f4xx_hal_msp.c ****   /* USER CODE END CAN1_MspInit 0 */
 147:Src/stm32f4xx_hal_msp.c ****     /* Peripheral clock enable */
 148:Src/stm32f4xx_hal_msp.c ****     __HAL_RCC_CAN1_CLK_ENABLE();
 241              		.loc 1 148 0
 242 000e 0021     		movs	r1, #0
 243 0010 0091     		str	r1, [sp]
 244 0012 03F5EA33 		add	r3, r3, #119808
 245 0016 1A6C     		ldr	r2, [r3, #64]
 246 0018 42F00072 		orr	r2, r2, #33554432
 247 001c 1A64     		str	r2, [r3, #64]
 248 001e 1B6C     		ldr	r3, [r3, #64]
 249 0020 03F00073 		and	r3, r3, #33554432
 250 0024 0093     		str	r3, [sp]
 251 0026 009B     		ldr	r3, [sp]
 252              	.LBE3:
 149:Src/stm32f4xx_hal_msp.c ****   
 150:Src/stm32f4xx_hal_msp.c ****     /**CAN1 GPIO Configuration    
 151:Src/stm32f4xx_hal_msp.c ****     PA11     ------> CAN1_RX
 152:Src/stm32f4xx_hal_msp.c ****     PA12     ------> CAN1_TX 
ARM GAS  /var/folders/7p/1_dhylqx7nl5s8914_0f_4w00000gn/T//ccOoAhdp.s 			page 8


 153:Src/stm32f4xx_hal_msp.c ****     */
 154:Src/stm32f4xx_hal_msp.c ****     GPIO_InitStruct.Pin = GPIO_PIN_11|GPIO_PIN_12;
 253              		.loc 1 154 0
 254 0028 4FF4C053 		mov	r3, #6144
 255 002c 0193     		str	r3, [sp, #4]
 155:Src/stm32f4xx_hal_msp.c ****     GPIO_InitStruct.Mode = GPIO_MODE_AF_PP;
 256              		.loc 1 155 0
 257 002e 0223     		movs	r3, #2
 258 0030 0293     		str	r3, [sp, #8]
 156:Src/stm32f4xx_hal_msp.c ****     GPIO_InitStruct.Pull = GPIO_NOPULL;
 259              		.loc 1 156 0
 260 0032 0391     		str	r1, [sp, #12]
 157:Src/stm32f4xx_hal_msp.c ****     GPIO_InitStruct.Speed = GPIO_SPEED_FREQ_VERY_HIGH;
 261              		.loc 1 157 0
 262 0034 0323     		movs	r3, #3
 263 0036 0493     		str	r3, [sp, #16]
 158:Src/stm32f4xx_hal_msp.c ****     GPIO_InitStruct.Alternate = GPIO_AF9_CAN1;
 264              		.loc 1 158 0
 265 0038 0923     		movs	r3, #9
 266 003a 0593     		str	r3, [sp, #20]
 159:Src/stm32f4xx_hal_msp.c ****     HAL_GPIO_Init(GPIOA, &GPIO_InitStruct);
 267              		.loc 1 159 0
 268 003c 01A9     		add	r1, sp, #4
 269 003e 0448     		ldr	r0, .L25+4
 270              	.LVL17:
 271 0040 FFF7FEFF 		bl	HAL_GPIO_Init
 272              	.LVL18:
 160:Src/stm32f4xx_hal_msp.c **** 
 161:Src/stm32f4xx_hal_msp.c ****   /* USER CODE BEGIN CAN1_MspInit 1 */
 162:Src/stm32f4xx_hal_msp.c **** 
 163:Src/stm32f4xx_hal_msp.c ****   /* USER CODE END CAN1_MspInit 1 */
 164:Src/stm32f4xx_hal_msp.c ****   }
 165:Src/stm32f4xx_hal_msp.c **** 
 166:Src/stm32f4xx_hal_msp.c **** }
 273              		.loc 1 166 0
 274 0044 07B0     		add	sp, sp, #28
 275              	.LCFI7:
 276              		.cfi_def_cfa_offset 4
 277              		@ sp needed
 278 0046 5DF804FB 		ldr	pc, [sp], #4
 279              	.L26:
 280 004a 00BF     		.align	2
 281              	.L25:
 282 004c 00640040 		.word	1073767424
 283 0050 00000240 		.word	1073872896
 284              		.cfi_endproc
 285              	.LFE127:
 287              		.section	.text.HAL_CAN_MspDeInit,"ax",%progbits
 288              		.align	1
 289              		.global	HAL_CAN_MspDeInit
 290              		.syntax unified
 291              		.thumb
 292              		.thumb_func
 293              		.fpu fpv4-sp-d16
 295              	HAL_CAN_MspDeInit:
 296              	.LFB128:
 167:Src/stm32f4xx_hal_msp.c **** 
ARM GAS  /var/folders/7p/1_dhylqx7nl5s8914_0f_4w00000gn/T//ccOoAhdp.s 			page 9


 168:Src/stm32f4xx_hal_msp.c **** void HAL_CAN_MspDeInit(CAN_HandleTypeDef* hcan)
 169:Src/stm32f4xx_hal_msp.c **** {
 297              		.loc 1 169 0
 298              		.cfi_startproc
 299              		@ args = 0, pretend = 0, frame = 0
 300              		@ frame_needed = 0, uses_anonymous_args = 0
 301              	.LVL19:
 302 0000 08B5     		push	{r3, lr}
 303              	.LCFI8:
 304              		.cfi_def_cfa_offset 8
 305              		.cfi_offset 3, -8
 306              		.cfi_offset 14, -4
 170:Src/stm32f4xx_hal_msp.c **** 
 171:Src/stm32f4xx_hal_msp.c ****   if(hcan->Instance==CAN1)
 307              		.loc 1 171 0
 308 0002 0268     		ldr	r2, [r0]
 309 0004 074B     		ldr	r3, .L31
 310 0006 9A42     		cmp	r2, r3
 311 0008 00D0     		beq	.L30
 312              	.LVL20:
 313              	.L27:
 314 000a 08BD     		pop	{r3, pc}
 315              	.LVL21:
 316              	.L30:
 172:Src/stm32f4xx_hal_msp.c ****   {
 173:Src/stm32f4xx_hal_msp.c ****   /* USER CODE BEGIN CAN1_MspDeInit 0 */
 174:Src/stm32f4xx_hal_msp.c **** 
 175:Src/stm32f4xx_hal_msp.c ****   /* USER CODE END CAN1_MspDeInit 0 */
 176:Src/stm32f4xx_hal_msp.c ****     /* Peripheral clock disable */
 177:Src/stm32f4xx_hal_msp.c ****     __HAL_RCC_CAN1_CLK_DISABLE();
 317              		.loc 1 177 0
 318 000c 064A     		ldr	r2, .L31+4
 319 000e 136C     		ldr	r3, [r2, #64]
 320 0010 23F00073 		bic	r3, r3, #33554432
 321 0014 1364     		str	r3, [r2, #64]
 178:Src/stm32f4xx_hal_msp.c ****   
 179:Src/stm32f4xx_hal_msp.c ****     /**CAN1 GPIO Configuration    
 180:Src/stm32f4xx_hal_msp.c ****     PA11     ------> CAN1_RX
 181:Src/stm32f4xx_hal_msp.c ****     PA12     ------> CAN1_TX 
 182:Src/stm32f4xx_hal_msp.c ****     */
 183:Src/stm32f4xx_hal_msp.c ****     HAL_GPIO_DeInit(GPIOA, GPIO_PIN_11|GPIO_PIN_12);
 322              		.loc 1 183 0
 323 0016 4FF4C051 		mov	r1, #6144
 324 001a 0448     		ldr	r0, .L31+8
 325              	.LVL22:
 326 001c FFF7FEFF 		bl	HAL_GPIO_DeInit
 327              	.LVL23:
 184:Src/stm32f4xx_hal_msp.c **** 
 185:Src/stm32f4xx_hal_msp.c ****   /* USER CODE BEGIN CAN1_MspDeInit 1 */
 186:Src/stm32f4xx_hal_msp.c **** 
 187:Src/stm32f4xx_hal_msp.c ****   /* USER CODE END CAN1_MspDeInit 1 */
 188:Src/stm32f4xx_hal_msp.c ****   }
 189:Src/stm32f4xx_hal_msp.c **** 
 190:Src/stm32f4xx_hal_msp.c **** }
 328              		.loc 1 190 0
 329 0020 F3E7     		b	.L27
 330              	.L32:
ARM GAS  /var/folders/7p/1_dhylqx7nl5s8914_0f_4w00000gn/T//ccOoAhdp.s 			page 10


 331 0022 00BF     		.align	2
 332              	.L31:
 333 0024 00640040 		.word	1073767424
 334 0028 00380240 		.word	1073887232
 335 002c 00000240 		.word	1073872896
 336              		.cfi_endproc
 337              	.LFE128:
 339              		.section	.text.HAL_I2C_MspInit,"ax",%progbits
 340              		.align	1
 341              		.global	HAL_I2C_MspInit
 342              		.syntax unified
 343              		.thumb
 344              		.thumb_func
 345              		.fpu fpv4-sp-d16
 347              	HAL_I2C_MspInit:
 348              	.LFB129:
 191:Src/stm32f4xx_hal_msp.c **** 
 192:Src/stm32f4xx_hal_msp.c **** void HAL_I2C_MspInit(I2C_HandleTypeDef* hi2c)
 193:Src/stm32f4xx_hal_msp.c **** {
 349              		.loc 1 193 0
 350              		.cfi_startproc
 351              		@ args = 0, pretend = 0, frame = 24
 352              		@ frame_needed = 0, uses_anonymous_args = 0
 353              	.LVL24:
 194:Src/stm32f4xx_hal_msp.c **** 
 195:Src/stm32f4xx_hal_msp.c ****   GPIO_InitTypeDef GPIO_InitStruct;
 196:Src/stm32f4xx_hal_msp.c ****   if(hi2c->Instance==I2C1)
 354              		.loc 1 196 0
 355 0000 0268     		ldr	r2, [r0]
 356 0002 124B     		ldr	r3, .L40
 357 0004 9A42     		cmp	r2, r3
 358 0006 00D0     		beq	.L39
 359 0008 7047     		bx	lr
 360              	.L39:
 193:Src/stm32f4xx_hal_msp.c **** 
 361              		.loc 1 193 0
 362 000a 00B5     		push	{lr}
 363              	.LCFI9:
 364              		.cfi_def_cfa_offset 4
 365              		.cfi_offset 14, -4
 366 000c 87B0     		sub	sp, sp, #28
 367              	.LCFI10:
 368              		.cfi_def_cfa_offset 32
 197:Src/stm32f4xx_hal_msp.c ****   {
 198:Src/stm32f4xx_hal_msp.c ****   /* USER CODE BEGIN I2C1_MspInit 0 */
 199:Src/stm32f4xx_hal_msp.c **** 
 200:Src/stm32f4xx_hal_msp.c ****   /* USER CODE END I2C1_MspInit 0 */
 201:Src/stm32f4xx_hal_msp.c ****   
 202:Src/stm32f4xx_hal_msp.c ****     /**I2C1 GPIO Configuration    
 203:Src/stm32f4xx_hal_msp.c ****     PB8     ------> I2C1_SCL
 204:Src/stm32f4xx_hal_msp.c ****     PB9     ------> I2C1_SDA 
 205:Src/stm32f4xx_hal_msp.c ****     */
 206:Src/stm32f4xx_hal_msp.c ****     GPIO_InitStruct.Pin = GPIO_PIN_8|GPIO_PIN_9;
 369              		.loc 1 206 0
 370 000e 4FF44073 		mov	r3, #768
 371 0012 0193     		str	r3, [sp, #4]
 207:Src/stm32f4xx_hal_msp.c ****     GPIO_InitStruct.Mode = GPIO_MODE_AF_OD;
ARM GAS  /var/folders/7p/1_dhylqx7nl5s8914_0f_4w00000gn/T//ccOoAhdp.s 			page 11


 372              		.loc 1 207 0
 373 0014 1223     		movs	r3, #18
 374 0016 0293     		str	r3, [sp, #8]
 208:Src/stm32f4xx_hal_msp.c ****     GPIO_InitStruct.Pull = GPIO_PULLUP;
 375              		.loc 1 208 0
 376 0018 0123     		movs	r3, #1
 377 001a 0393     		str	r3, [sp, #12]
 209:Src/stm32f4xx_hal_msp.c ****     GPIO_InitStruct.Speed = GPIO_SPEED_FREQ_VERY_HIGH;
 378              		.loc 1 209 0
 379 001c 0323     		movs	r3, #3
 380 001e 0493     		str	r3, [sp, #16]
 210:Src/stm32f4xx_hal_msp.c ****     GPIO_InitStruct.Alternate = GPIO_AF4_I2C1;
 381              		.loc 1 210 0
 382 0020 0423     		movs	r3, #4
 383 0022 0593     		str	r3, [sp, #20]
 211:Src/stm32f4xx_hal_msp.c ****     HAL_GPIO_Init(GPIOB, &GPIO_InitStruct);
 384              		.loc 1 211 0
 385 0024 0DEB0301 		add	r1, sp, r3
 386 0028 0948     		ldr	r0, .L40+4
 387              	.LVL25:
 388 002a FFF7FEFF 		bl	HAL_GPIO_Init
 389              	.LVL26:
 390              	.LBB4:
 212:Src/stm32f4xx_hal_msp.c **** 
 213:Src/stm32f4xx_hal_msp.c ****     /* Peripheral clock enable */
 214:Src/stm32f4xx_hal_msp.c ****     __HAL_RCC_I2C1_CLK_ENABLE();
 391              		.loc 1 214 0
 392 002e 0023     		movs	r3, #0
 393 0030 0093     		str	r3, [sp]
 394 0032 084B     		ldr	r3, .L40+8
 395 0034 1A6C     		ldr	r2, [r3, #64]
 396 0036 42F40012 		orr	r2, r2, #2097152
 397 003a 1A64     		str	r2, [r3, #64]
 398 003c 1B6C     		ldr	r3, [r3, #64]
 399 003e 03F40013 		and	r3, r3, #2097152
 400 0042 0093     		str	r3, [sp]
 401 0044 009B     		ldr	r3, [sp]
 402              	.LBE4:
 215:Src/stm32f4xx_hal_msp.c ****   /* USER CODE BEGIN I2C1_MspInit 1 */
 216:Src/stm32f4xx_hal_msp.c **** 
 217:Src/stm32f4xx_hal_msp.c ****   /* USER CODE END I2C1_MspInit 1 */
 218:Src/stm32f4xx_hal_msp.c ****   }
 219:Src/stm32f4xx_hal_msp.c **** 
 220:Src/stm32f4xx_hal_msp.c **** }
 403              		.loc 1 220 0
 404 0046 07B0     		add	sp, sp, #28
 405              	.LCFI11:
 406              		.cfi_def_cfa_offset 4
 407              		@ sp needed
 408 0048 5DF804FB 		ldr	pc, [sp], #4
 409              	.L41:
 410              		.align	2
 411              	.L40:
 412 004c 00540040 		.word	1073763328
 413 0050 00040240 		.word	1073873920
 414 0054 00380240 		.word	1073887232
 415              		.cfi_endproc
ARM GAS  /var/folders/7p/1_dhylqx7nl5s8914_0f_4w00000gn/T//ccOoAhdp.s 			page 12


 416              	.LFE129:
 418              		.section	.text.HAL_I2C_MspDeInit,"ax",%progbits
 419              		.align	1
 420              		.global	HAL_I2C_MspDeInit
 421              		.syntax unified
 422              		.thumb
 423              		.thumb_func
 424              		.fpu fpv4-sp-d16
 426              	HAL_I2C_MspDeInit:
 427              	.LFB130:
 221:Src/stm32f4xx_hal_msp.c **** 
 222:Src/stm32f4xx_hal_msp.c **** void HAL_I2C_MspDeInit(I2C_HandleTypeDef* hi2c)
 223:Src/stm32f4xx_hal_msp.c **** {
 428              		.loc 1 223 0
 429              		.cfi_startproc
 430              		@ args = 0, pretend = 0, frame = 0
 431              		@ frame_needed = 0, uses_anonymous_args = 0
 432              	.LVL27:
 433 0000 08B5     		push	{r3, lr}
 434              	.LCFI12:
 435              		.cfi_def_cfa_offset 8
 436              		.cfi_offset 3, -8
 437              		.cfi_offset 14, -4
 224:Src/stm32f4xx_hal_msp.c **** 
 225:Src/stm32f4xx_hal_msp.c ****   if(hi2c->Instance==I2C1)
 438              		.loc 1 225 0
 439 0002 0268     		ldr	r2, [r0]
 440 0004 074B     		ldr	r3, .L46
 441 0006 9A42     		cmp	r2, r3
 442 0008 00D0     		beq	.L45
 443              	.LVL28:
 444              	.L42:
 445 000a 08BD     		pop	{r3, pc}
 446              	.LVL29:
 447              	.L45:
 226:Src/stm32f4xx_hal_msp.c ****   {
 227:Src/stm32f4xx_hal_msp.c ****   /* USER CODE BEGIN I2C1_MspDeInit 0 */
 228:Src/stm32f4xx_hal_msp.c **** 
 229:Src/stm32f4xx_hal_msp.c ****   /* USER CODE END I2C1_MspDeInit 0 */
 230:Src/stm32f4xx_hal_msp.c ****     /* Peripheral clock disable */
 231:Src/stm32f4xx_hal_msp.c ****     __HAL_RCC_I2C1_CLK_DISABLE();
 448              		.loc 1 231 0
 449 000c 064A     		ldr	r2, .L46+4
 450 000e 136C     		ldr	r3, [r2, #64]
 451 0010 23F40013 		bic	r3, r3, #2097152
 452 0014 1364     		str	r3, [r2, #64]
 232:Src/stm32f4xx_hal_msp.c ****   
 233:Src/stm32f4xx_hal_msp.c ****     /**I2C1 GPIO Configuration    
 234:Src/stm32f4xx_hal_msp.c ****     PB8     ------> I2C1_SCL
 235:Src/stm32f4xx_hal_msp.c ****     PB9     ------> I2C1_SDA 
 236:Src/stm32f4xx_hal_msp.c ****     */
 237:Src/stm32f4xx_hal_msp.c ****     HAL_GPIO_DeInit(GPIOB, GPIO_PIN_8|GPIO_PIN_9);
 453              		.loc 1 237 0
 454 0016 4FF44071 		mov	r1, #768
 455 001a 0448     		ldr	r0, .L46+8
 456              	.LVL30:
 457 001c FFF7FEFF 		bl	HAL_GPIO_DeInit
ARM GAS  /var/folders/7p/1_dhylqx7nl5s8914_0f_4w00000gn/T//ccOoAhdp.s 			page 13


 458              	.LVL31:
 238:Src/stm32f4xx_hal_msp.c **** 
 239:Src/stm32f4xx_hal_msp.c ****   /* USER CODE BEGIN I2C1_MspDeInit 1 */
 240:Src/stm32f4xx_hal_msp.c **** 
 241:Src/stm32f4xx_hal_msp.c ****   /* USER CODE END I2C1_MspDeInit 1 */
 242:Src/stm32f4xx_hal_msp.c ****   }
 243:Src/stm32f4xx_hal_msp.c **** 
 244:Src/stm32f4xx_hal_msp.c **** }
 459              		.loc 1 244 0
 460 0020 F3E7     		b	.L42
 461              	.L47:
 462 0022 00BF     		.align	2
 463              	.L46:
 464 0024 00540040 		.word	1073763328
 465 0028 00380240 		.word	1073887232
 466 002c 00040240 		.word	1073873920
 467              		.cfi_endproc
 468              	.LFE130:
 470              		.section	.text.HAL_RNG_MspInit,"ax",%progbits
 471              		.align	1
 472              		.global	HAL_RNG_MspInit
 473              		.syntax unified
 474              		.thumb
 475              		.thumb_func
 476              		.fpu fpv4-sp-d16
 478              	HAL_RNG_MspInit:
 479              	.LFB131:
 245:Src/stm32f4xx_hal_msp.c **** 
 246:Src/stm32f4xx_hal_msp.c **** void HAL_RNG_MspInit(RNG_HandleTypeDef* hrng)
 247:Src/stm32f4xx_hal_msp.c **** {
 480              		.loc 1 247 0
 481              		.cfi_startproc
 482              		@ args = 0, pretend = 0, frame = 8
 483              		@ frame_needed = 0, uses_anonymous_args = 0
 484              		@ link register save eliminated.
 485              	.LVL32:
 248:Src/stm32f4xx_hal_msp.c **** 
 249:Src/stm32f4xx_hal_msp.c ****   if(hrng->Instance==RNG)
 486              		.loc 1 249 0
 487 0000 0268     		ldr	r2, [r0]
 488 0002 094B     		ldr	r3, .L56
 489 0004 9A42     		cmp	r2, r3
 490 0006 00D0     		beq	.L55
 491              	.L54:
 250:Src/stm32f4xx_hal_msp.c ****   {
 251:Src/stm32f4xx_hal_msp.c ****   /* USER CODE BEGIN RNG_MspInit 0 */
 252:Src/stm32f4xx_hal_msp.c **** 
 253:Src/stm32f4xx_hal_msp.c ****   /* USER CODE END RNG_MspInit 0 */
 254:Src/stm32f4xx_hal_msp.c ****     /* Peripheral clock enable */
 255:Src/stm32f4xx_hal_msp.c ****     __HAL_RCC_RNG_CLK_ENABLE();
 256:Src/stm32f4xx_hal_msp.c ****   /* USER CODE BEGIN RNG_MspInit 1 */
 257:Src/stm32f4xx_hal_msp.c **** 
 258:Src/stm32f4xx_hal_msp.c ****   /* USER CODE END RNG_MspInit 1 */
 259:Src/stm32f4xx_hal_msp.c ****   }
 260:Src/stm32f4xx_hal_msp.c **** 
 261:Src/stm32f4xx_hal_msp.c **** }
 492              		.loc 1 261 0
ARM GAS  /var/folders/7p/1_dhylqx7nl5s8914_0f_4w00000gn/T//ccOoAhdp.s 			page 14


 493 0008 7047     		bx	lr
 494              	.L55:
 247:Src/stm32f4xx_hal_msp.c **** 
 495              		.loc 1 247 0
 496 000a 82B0     		sub	sp, sp, #8
 497              	.LCFI13:
 498              		.cfi_def_cfa_offset 8
 499              	.LBB5:
 255:Src/stm32f4xx_hal_msp.c ****   /* USER CODE BEGIN RNG_MspInit 1 */
 500              		.loc 1 255 0
 501 000c 0023     		movs	r3, #0
 502 000e 0193     		str	r3, [sp, #4]
 503 0010 064B     		ldr	r3, .L56+4
 504 0012 5A6B     		ldr	r2, [r3, #52]
 505 0014 42F04002 		orr	r2, r2, #64
 506 0018 5A63     		str	r2, [r3, #52]
 507 001a 5B6B     		ldr	r3, [r3, #52]
 508 001c 03F04003 		and	r3, r3, #64
 509 0020 0193     		str	r3, [sp, #4]
 510 0022 019B     		ldr	r3, [sp, #4]
 511              	.LBE5:
 512              		.loc 1 261 0
 513 0024 02B0     		add	sp, sp, #8
 514              	.LCFI14:
 515              		.cfi_def_cfa_offset 0
 516              		@ sp needed
 517 0026 EFE7     		b	.L54
 518              	.L57:
 519              		.align	2
 520              	.L56:
 521 0028 00080650 		.word	1342572544
 522 002c 00380240 		.word	1073887232
 523              		.cfi_endproc
 524              	.LFE131:
 526              		.section	.text.HAL_RNG_MspDeInit,"ax",%progbits
 527              		.align	1
 528              		.global	HAL_RNG_MspDeInit
 529              		.syntax unified
 530              		.thumb
 531              		.thumb_func
 532              		.fpu fpv4-sp-d16
 534              	HAL_RNG_MspDeInit:
 535              	.LFB132:
 262:Src/stm32f4xx_hal_msp.c **** 
 263:Src/stm32f4xx_hal_msp.c **** void HAL_RNG_MspDeInit(RNG_HandleTypeDef* hrng)
 264:Src/stm32f4xx_hal_msp.c **** {
 536              		.loc 1 264 0
 537              		.cfi_startproc
 538              		@ args = 0, pretend = 0, frame = 0
 539              		@ frame_needed = 0, uses_anonymous_args = 0
 540              		@ link register save eliminated.
 541              	.LVL33:
 265:Src/stm32f4xx_hal_msp.c **** 
 266:Src/stm32f4xx_hal_msp.c ****   if(hrng->Instance==RNG)
 542              		.loc 1 266 0
 543 0000 0268     		ldr	r2, [r0]
 544 0002 054B     		ldr	r3, .L61
ARM GAS  /var/folders/7p/1_dhylqx7nl5s8914_0f_4w00000gn/T//ccOoAhdp.s 			page 15


 545 0004 9A42     		cmp	r2, r3
 546 0006 00D0     		beq	.L60
 547              	.L58:
 548 0008 7047     		bx	lr
 549              	.L60:
 267:Src/stm32f4xx_hal_msp.c ****   {
 268:Src/stm32f4xx_hal_msp.c ****   /* USER CODE BEGIN RNG_MspDeInit 0 */
 269:Src/stm32f4xx_hal_msp.c **** 
 270:Src/stm32f4xx_hal_msp.c ****   /* USER CODE END RNG_MspDeInit 0 */
 271:Src/stm32f4xx_hal_msp.c ****     /* Peripheral clock disable */
 272:Src/stm32f4xx_hal_msp.c ****     __HAL_RCC_RNG_CLK_DISABLE();
 550              		.loc 1 272 0
 551 000a 044A     		ldr	r2, .L61+4
 552 000c 536B     		ldr	r3, [r2, #52]
 553 000e 23F04003 		bic	r3, r3, #64
 554 0012 5363     		str	r3, [r2, #52]
 273:Src/stm32f4xx_hal_msp.c ****   /* USER CODE BEGIN RNG_MspDeInit 1 */
 274:Src/stm32f4xx_hal_msp.c **** 
 275:Src/stm32f4xx_hal_msp.c ****   /* USER CODE END RNG_MspDeInit 1 */
 276:Src/stm32f4xx_hal_msp.c ****   }
 277:Src/stm32f4xx_hal_msp.c **** 
 278:Src/stm32f4xx_hal_msp.c **** }
 555              		.loc 1 278 0
 556 0014 F8E7     		b	.L58
 557              	.L62:
 558 0016 00BF     		.align	2
 559              	.L61:
 560 0018 00080650 		.word	1342572544
 561 001c 00380240 		.word	1073887232
 562              		.cfi_endproc
 563              	.LFE132:
 565              		.section	.text.HAL_SD_MspInit,"ax",%progbits
 566              		.align	1
 567              		.global	HAL_SD_MspInit
 568              		.syntax unified
 569              		.thumb
 570              		.thumb_func
 571              		.fpu fpv4-sp-d16
 573              	HAL_SD_MspInit:
 574              	.LFB133:
 279:Src/stm32f4xx_hal_msp.c **** 
 280:Src/stm32f4xx_hal_msp.c **** void HAL_SD_MspInit(SD_HandleTypeDef* hsd)
 281:Src/stm32f4xx_hal_msp.c **** {
 575              		.loc 1 281 0
 576              		.cfi_startproc
 577              		@ args = 0, pretend = 0, frame = 24
 578              		@ frame_needed = 0, uses_anonymous_args = 0
 579              	.LVL34:
 282:Src/stm32f4xx_hal_msp.c **** 
 283:Src/stm32f4xx_hal_msp.c ****   GPIO_InitTypeDef GPIO_InitStruct;
 284:Src/stm32f4xx_hal_msp.c ****   if(hsd->Instance==SDIO)
 580              		.loc 1 284 0
 581 0000 0268     		ldr	r2, [r0]
 582 0002 174B     		ldr	r3, .L70
 583 0004 9A42     		cmp	r2, r3
 584 0006 00D0     		beq	.L69
 585 0008 7047     		bx	lr
ARM GAS  /var/folders/7p/1_dhylqx7nl5s8914_0f_4w00000gn/T//ccOoAhdp.s 			page 16


 586              	.L69:
 281:Src/stm32f4xx_hal_msp.c **** 
 587              		.loc 1 281 0
 588 000a F0B5     		push	{r4, r5, r6, r7, lr}
 589              	.LCFI15:
 590              		.cfi_def_cfa_offset 20
 591              		.cfi_offset 4, -20
 592              		.cfi_offset 5, -16
 593              		.cfi_offset 6, -12
 594              		.cfi_offset 7, -8
 595              		.cfi_offset 14, -4
 596 000c 87B0     		sub	sp, sp, #28
 597              	.LCFI16:
 598              		.cfi_def_cfa_offset 48
 599              	.LBB6:
 285:Src/stm32f4xx_hal_msp.c ****   {
 286:Src/stm32f4xx_hal_msp.c ****   /* USER CODE BEGIN SDIO_MspInit 0 */
 287:Src/stm32f4xx_hal_msp.c **** 
 288:Src/stm32f4xx_hal_msp.c ****   /* USER CODE END SDIO_MspInit 0 */
 289:Src/stm32f4xx_hal_msp.c ****     /* Peripheral clock enable */
 290:Src/stm32f4xx_hal_msp.c ****     __HAL_RCC_SDIO_CLK_ENABLE();
 600              		.loc 1 290 0
 601 000e 0024     		movs	r4, #0
 602 0010 0094     		str	r4, [sp]
 603 0012 03F58633 		add	r3, r3, #68608
 604 0016 5A6C     		ldr	r2, [r3, #68]
 605 0018 42F40062 		orr	r2, r2, #2048
 606 001c 5A64     		str	r2, [r3, #68]
 607 001e 5B6C     		ldr	r3, [r3, #68]
 608 0020 03F40063 		and	r3, r3, #2048
 609 0024 0093     		str	r3, [sp]
 610 0026 009B     		ldr	r3, [sp]
 611              	.LBE6:
 291:Src/stm32f4xx_hal_msp.c ****   
 292:Src/stm32f4xx_hal_msp.c ****     /**SDIO GPIO Configuration    
 293:Src/stm32f4xx_hal_msp.c ****     PC8     ------> SDIO_D0
 294:Src/stm32f4xx_hal_msp.c ****     PC12     ------> SDIO_CK
 295:Src/stm32f4xx_hal_msp.c ****     PD2     ------> SDIO_CMD 
 296:Src/stm32f4xx_hal_msp.c ****     */
 297:Src/stm32f4xx_hal_msp.c ****     GPIO_InitStruct.Pin = GPIO_PIN_8|GPIO_PIN_12;
 612              		.loc 1 297 0
 613 0028 4FF48853 		mov	r3, #4352
 614 002c 0193     		str	r3, [sp, #4]
 298:Src/stm32f4xx_hal_msp.c ****     GPIO_InitStruct.Mode = GPIO_MODE_AF_PP;
 615              		.loc 1 298 0
 616 002e 0227     		movs	r7, #2
 617 0030 0297     		str	r7, [sp, #8]
 299:Src/stm32f4xx_hal_msp.c ****     GPIO_InitStruct.Pull = GPIO_NOPULL;
 618              		.loc 1 299 0
 619 0032 0394     		str	r4, [sp, #12]
 300:Src/stm32f4xx_hal_msp.c ****     GPIO_InitStruct.Speed = GPIO_SPEED_FREQ_VERY_HIGH;
 620              		.loc 1 300 0
 621 0034 0326     		movs	r6, #3
 622 0036 0496     		str	r6, [sp, #16]
 301:Src/stm32f4xx_hal_msp.c ****     GPIO_InitStruct.Alternate = GPIO_AF12_SDIO;
 623              		.loc 1 301 0
 624 0038 0C25     		movs	r5, #12
ARM GAS  /var/folders/7p/1_dhylqx7nl5s8914_0f_4w00000gn/T//ccOoAhdp.s 			page 17


 625 003a 0595     		str	r5, [sp, #20]
 302:Src/stm32f4xx_hal_msp.c ****     HAL_GPIO_Init(GPIOC, &GPIO_InitStruct);
 626              		.loc 1 302 0
 627 003c 01A9     		add	r1, sp, #4
 628 003e 0948     		ldr	r0, .L70+4
 629              	.LVL35:
 630 0040 FFF7FEFF 		bl	HAL_GPIO_Init
 631              	.LVL36:
 303:Src/stm32f4xx_hal_msp.c **** 
 304:Src/stm32f4xx_hal_msp.c ****     GPIO_InitStruct.Pin = GPIO_PIN_2;
 632              		.loc 1 304 0
 633 0044 0423     		movs	r3, #4
 634 0046 0193     		str	r3, [sp, #4]
 305:Src/stm32f4xx_hal_msp.c ****     GPIO_InitStruct.Mode = GPIO_MODE_AF_PP;
 635              		.loc 1 305 0
 636 0048 0297     		str	r7, [sp, #8]
 306:Src/stm32f4xx_hal_msp.c ****     GPIO_InitStruct.Pull = GPIO_NOPULL;
 637              		.loc 1 306 0
 638 004a 0394     		str	r4, [sp, #12]
 307:Src/stm32f4xx_hal_msp.c ****     GPIO_InitStruct.Speed = GPIO_SPEED_FREQ_VERY_HIGH;
 639              		.loc 1 307 0
 640 004c 0496     		str	r6, [sp, #16]
 308:Src/stm32f4xx_hal_msp.c ****     GPIO_InitStruct.Alternate = GPIO_AF12_SDIO;
 641              		.loc 1 308 0
 642 004e 0595     		str	r5, [sp, #20]
 309:Src/stm32f4xx_hal_msp.c ****     HAL_GPIO_Init(GPIOD, &GPIO_InitStruct);
 643              		.loc 1 309 0
 644 0050 0DEB0301 		add	r1, sp, r3
 645 0054 0448     		ldr	r0, .L70+8
 646 0056 FFF7FEFF 		bl	HAL_GPIO_Init
 647              	.LVL37:
 310:Src/stm32f4xx_hal_msp.c **** 
 311:Src/stm32f4xx_hal_msp.c ****   /* USER CODE BEGIN SDIO_MspInit 1 */
 312:Src/stm32f4xx_hal_msp.c **** 
 313:Src/stm32f4xx_hal_msp.c ****   /* USER CODE END SDIO_MspInit 1 */
 314:Src/stm32f4xx_hal_msp.c ****   }
 315:Src/stm32f4xx_hal_msp.c **** 
 316:Src/stm32f4xx_hal_msp.c **** }
 648              		.loc 1 316 0
 649 005a 07B0     		add	sp, sp, #28
 650              	.LCFI17:
 651              		.cfi_def_cfa_offset 20
 652              		@ sp needed
 653 005c F0BD     		pop	{r4, r5, r6, r7, pc}
 654              	.L71:
 655 005e 00BF     		.align	2
 656              	.L70:
 657 0060 002C0140 		.word	1073818624
 658 0064 00080240 		.word	1073874944
 659 0068 000C0240 		.word	1073875968
 660              		.cfi_endproc
 661              	.LFE133:
 663              		.section	.text.HAL_SD_MspDeInit,"ax",%progbits
 664              		.align	1
 665              		.global	HAL_SD_MspDeInit
 666              		.syntax unified
 667              		.thumb
ARM GAS  /var/folders/7p/1_dhylqx7nl5s8914_0f_4w00000gn/T//ccOoAhdp.s 			page 18


 668              		.thumb_func
 669              		.fpu fpv4-sp-d16
 671              	HAL_SD_MspDeInit:
 672              	.LFB134:
 317:Src/stm32f4xx_hal_msp.c **** 
 318:Src/stm32f4xx_hal_msp.c **** void HAL_SD_MspDeInit(SD_HandleTypeDef* hsd)
 319:Src/stm32f4xx_hal_msp.c **** {
 673              		.loc 1 319 0
 674              		.cfi_startproc
 675              		@ args = 0, pretend = 0, frame = 0
 676              		@ frame_needed = 0, uses_anonymous_args = 0
 677              	.LVL38:
 678 0000 08B5     		push	{r3, lr}
 679              	.LCFI18:
 680              		.cfi_def_cfa_offset 8
 681              		.cfi_offset 3, -8
 682              		.cfi_offset 14, -4
 320:Src/stm32f4xx_hal_msp.c **** 
 321:Src/stm32f4xx_hal_msp.c ****   if(hsd->Instance==SDIO)
 683              		.loc 1 321 0
 684 0002 0268     		ldr	r2, [r0]
 685 0004 094B     		ldr	r3, .L76
 686 0006 9A42     		cmp	r2, r3
 687 0008 00D0     		beq	.L75
 688              	.LVL39:
 689              	.L72:
 690 000a 08BD     		pop	{r3, pc}
 691              	.LVL40:
 692              	.L75:
 322:Src/stm32f4xx_hal_msp.c ****   {
 323:Src/stm32f4xx_hal_msp.c ****   /* USER CODE BEGIN SDIO_MspDeInit 0 */
 324:Src/stm32f4xx_hal_msp.c **** 
 325:Src/stm32f4xx_hal_msp.c ****   /* USER CODE END SDIO_MspDeInit 0 */
 326:Src/stm32f4xx_hal_msp.c ****     /* Peripheral clock disable */
 327:Src/stm32f4xx_hal_msp.c ****     __HAL_RCC_SDIO_CLK_DISABLE();
 693              		.loc 1 327 0
 694 000c 084A     		ldr	r2, .L76+4
 695 000e 536C     		ldr	r3, [r2, #68]
 696 0010 23F40063 		bic	r3, r3, #2048
 697 0014 5364     		str	r3, [r2, #68]
 328:Src/stm32f4xx_hal_msp.c ****   
 329:Src/stm32f4xx_hal_msp.c ****     /**SDIO GPIO Configuration    
 330:Src/stm32f4xx_hal_msp.c ****     PC8     ------> SDIO_D0
 331:Src/stm32f4xx_hal_msp.c ****     PC12     ------> SDIO_CK
 332:Src/stm32f4xx_hal_msp.c ****     PD2     ------> SDIO_CMD 
 333:Src/stm32f4xx_hal_msp.c ****     */
 334:Src/stm32f4xx_hal_msp.c ****     HAL_GPIO_DeInit(GPIOC, GPIO_PIN_8|GPIO_PIN_12);
 698              		.loc 1 334 0
 699 0016 4FF48851 		mov	r1, #4352
 700 001a 0648     		ldr	r0, .L76+8
 701              	.LVL41:
 702 001c FFF7FEFF 		bl	HAL_GPIO_DeInit
 703              	.LVL42:
 335:Src/stm32f4xx_hal_msp.c **** 
 336:Src/stm32f4xx_hal_msp.c ****     HAL_GPIO_DeInit(GPIOD, GPIO_PIN_2);
 704              		.loc 1 336 0
 705 0020 0421     		movs	r1, #4
ARM GAS  /var/folders/7p/1_dhylqx7nl5s8914_0f_4w00000gn/T//ccOoAhdp.s 			page 19


 706 0022 0548     		ldr	r0, .L76+12
 707 0024 FFF7FEFF 		bl	HAL_GPIO_DeInit
 708              	.LVL43:
 337:Src/stm32f4xx_hal_msp.c **** 
 338:Src/stm32f4xx_hal_msp.c ****   /* USER CODE BEGIN SDIO_MspDeInit 1 */
 339:Src/stm32f4xx_hal_msp.c **** 
 340:Src/stm32f4xx_hal_msp.c ****   /* USER CODE END SDIO_MspDeInit 1 */
 341:Src/stm32f4xx_hal_msp.c ****   }
 342:Src/stm32f4xx_hal_msp.c **** 
 343:Src/stm32f4xx_hal_msp.c **** }
 709              		.loc 1 343 0
 710 0028 EFE7     		b	.L72
 711              	.L77:
 712 002a 00BF     		.align	2
 713              	.L76:
 714 002c 002C0140 		.word	1073818624
 715 0030 00380240 		.word	1073887232
 716 0034 00080240 		.word	1073874944
 717 0038 000C0240 		.word	1073875968
 718              		.cfi_endproc
 719              	.LFE134:
 721              		.section	.text.HAL_TIM_PWM_MspInit,"ax",%progbits
 722              		.align	1
 723              		.global	HAL_TIM_PWM_MspInit
 724              		.syntax unified
 725              		.thumb
 726              		.thumb_func
 727              		.fpu fpv4-sp-d16
 729              	HAL_TIM_PWM_MspInit:
 730              	.LFB135:
 344:Src/stm32f4xx_hal_msp.c **** 
 345:Src/stm32f4xx_hal_msp.c **** void HAL_TIM_PWM_MspInit(TIM_HandleTypeDef* htim_pwm)
 346:Src/stm32f4xx_hal_msp.c **** {
 731              		.loc 1 346 0
 732              		.cfi_startproc
 733              		@ args = 0, pretend = 0, frame = 16
 734              		@ frame_needed = 0, uses_anonymous_args = 0
 735              		@ link register save eliminated.
 736              	.LVL44:
 737 0000 84B0     		sub	sp, sp, #16
 738              	.LCFI19:
 739              		.cfi_def_cfa_offset 16
 347:Src/stm32f4xx_hal_msp.c **** 
 348:Src/stm32f4xx_hal_msp.c ****   if(htim_pwm->Instance==TIM2)
 740              		.loc 1 348 0
 741 0002 0368     		ldr	r3, [r0]
 742 0004 B3F1804F 		cmp	r3, #1073741824
 743 0008 07D0     		beq	.L83
 349:Src/stm32f4xx_hal_msp.c ****   {
 350:Src/stm32f4xx_hal_msp.c ****   /* USER CODE BEGIN TIM2_MspInit 0 */
 351:Src/stm32f4xx_hal_msp.c **** 
 352:Src/stm32f4xx_hal_msp.c ****   /* USER CODE END TIM2_MspInit 0 */
 353:Src/stm32f4xx_hal_msp.c ****     /* Peripheral clock enable */
 354:Src/stm32f4xx_hal_msp.c ****     __HAL_RCC_TIM2_CLK_ENABLE();
 355:Src/stm32f4xx_hal_msp.c ****   /* USER CODE BEGIN TIM2_MspInit 1 */
 356:Src/stm32f4xx_hal_msp.c **** 
 357:Src/stm32f4xx_hal_msp.c ****   /* USER CODE END TIM2_MspInit 1 */
ARM GAS  /var/folders/7p/1_dhylqx7nl5s8914_0f_4w00000gn/T//ccOoAhdp.s 			page 20


 358:Src/stm32f4xx_hal_msp.c ****   }
 359:Src/stm32f4xx_hal_msp.c ****   else if(htim_pwm->Instance==TIM3)
 744              		.loc 1 359 0
 745 000a 174A     		ldr	r2, .L86
 746 000c 9342     		cmp	r3, r2
 747 000e 11D0     		beq	.L84
 360:Src/stm32f4xx_hal_msp.c ****   {
 361:Src/stm32f4xx_hal_msp.c ****   /* USER CODE BEGIN TIM3_MspInit 0 */
 362:Src/stm32f4xx_hal_msp.c **** 
 363:Src/stm32f4xx_hal_msp.c ****   /* USER CODE END TIM3_MspInit 0 */
 364:Src/stm32f4xx_hal_msp.c ****     /* Peripheral clock enable */
 365:Src/stm32f4xx_hal_msp.c ****     __HAL_RCC_TIM3_CLK_ENABLE();
 366:Src/stm32f4xx_hal_msp.c ****   /* USER CODE BEGIN TIM3_MspInit 1 */
 367:Src/stm32f4xx_hal_msp.c **** 
 368:Src/stm32f4xx_hal_msp.c ****   /* USER CODE END TIM3_MspInit 1 */
 369:Src/stm32f4xx_hal_msp.c ****   }
 370:Src/stm32f4xx_hal_msp.c ****   else if(htim_pwm->Instance==TIM5)
 748              		.loc 1 370 0
 749 0010 164A     		ldr	r2, .L86+4
 750 0012 9342     		cmp	r3, r2
 751 0014 1BD0     		beq	.L85
 752              	.L78:
 371:Src/stm32f4xx_hal_msp.c ****   {
 372:Src/stm32f4xx_hal_msp.c ****   /* USER CODE BEGIN TIM5_MspInit 0 */
 373:Src/stm32f4xx_hal_msp.c **** 
 374:Src/stm32f4xx_hal_msp.c ****   /* USER CODE END TIM5_MspInit 0 */
 375:Src/stm32f4xx_hal_msp.c ****     /* Peripheral clock enable */
 376:Src/stm32f4xx_hal_msp.c ****     __HAL_RCC_TIM5_CLK_ENABLE();
 377:Src/stm32f4xx_hal_msp.c ****   /* USER CODE BEGIN TIM5_MspInit 1 */
 378:Src/stm32f4xx_hal_msp.c **** 
 379:Src/stm32f4xx_hal_msp.c ****   /* USER CODE END TIM5_MspInit 1 */
 380:Src/stm32f4xx_hal_msp.c ****   }
 381:Src/stm32f4xx_hal_msp.c **** 
 382:Src/stm32f4xx_hal_msp.c **** }
 753              		.loc 1 382 0
 754 0016 04B0     		add	sp, sp, #16
 755              	.LCFI20:
 756              		.cfi_remember_state
 757              		.cfi_def_cfa_offset 0
 758              		@ sp needed
 759 0018 7047     		bx	lr
 760              	.L83:
 761              	.LCFI21:
 762              		.cfi_restore_state
 763              	.LBB7:
 354:Src/stm32f4xx_hal_msp.c ****   /* USER CODE BEGIN TIM2_MspInit 1 */
 764              		.loc 1 354 0
 765 001a 0023     		movs	r3, #0
 766 001c 0193     		str	r3, [sp, #4]
 767 001e 144B     		ldr	r3, .L86+8
 768 0020 1A6C     		ldr	r2, [r3, #64]
 769 0022 42F00102 		orr	r2, r2, #1
 770 0026 1A64     		str	r2, [r3, #64]
 771 0028 1B6C     		ldr	r3, [r3, #64]
 772 002a 03F00103 		and	r3, r3, #1
 773 002e 0193     		str	r3, [sp, #4]
 774 0030 019B     		ldr	r3, [sp, #4]
ARM GAS  /var/folders/7p/1_dhylqx7nl5s8914_0f_4w00000gn/T//ccOoAhdp.s 			page 21


 775              	.LBE7:
 776 0032 F0E7     		b	.L78
 777              	.L84:
 778              	.LBB8:
 365:Src/stm32f4xx_hal_msp.c ****   /* USER CODE BEGIN TIM3_MspInit 1 */
 779              		.loc 1 365 0
 780 0034 0023     		movs	r3, #0
 781 0036 0293     		str	r3, [sp, #8]
 782 0038 0D4B     		ldr	r3, .L86+8
 783 003a 1A6C     		ldr	r2, [r3, #64]
 784 003c 42F00202 		orr	r2, r2, #2
 785 0040 1A64     		str	r2, [r3, #64]
 786 0042 1B6C     		ldr	r3, [r3, #64]
 787 0044 03F00203 		and	r3, r3, #2
 788 0048 0293     		str	r3, [sp, #8]
 789 004a 029B     		ldr	r3, [sp, #8]
 790              	.LBE8:
 791 004c E3E7     		b	.L78
 792              	.L85:
 793              	.LBB9:
 376:Src/stm32f4xx_hal_msp.c ****   /* USER CODE BEGIN TIM5_MspInit 1 */
 794              		.loc 1 376 0
 795 004e 0023     		movs	r3, #0
 796 0050 0393     		str	r3, [sp, #12]
 797 0052 074B     		ldr	r3, .L86+8
 798 0054 1A6C     		ldr	r2, [r3, #64]
 799 0056 42F00802 		orr	r2, r2, #8
 800 005a 1A64     		str	r2, [r3, #64]
 801 005c 1B6C     		ldr	r3, [r3, #64]
 802 005e 03F00803 		and	r3, r3, #8
 803 0062 0393     		str	r3, [sp, #12]
 804 0064 039B     		ldr	r3, [sp, #12]
 805              	.LBE9:
 806              		.loc 1 382 0
 807 0066 D6E7     		b	.L78
 808              	.L87:
 809              		.align	2
 810              	.L86:
 811 0068 00040040 		.word	1073742848
 812 006c 000C0040 		.word	1073744896
 813 0070 00380240 		.word	1073887232
 814              		.cfi_endproc
 815              	.LFE135:
 817              		.section	.text.HAL_TIM_Base_MspInit,"ax",%progbits
 818              		.align	1
 819              		.global	HAL_TIM_Base_MspInit
 820              		.syntax unified
 821              		.thumb
 822              		.thumb_func
 823              		.fpu fpv4-sp-d16
 825              	HAL_TIM_Base_MspInit:
 826              	.LFB136:
 383:Src/stm32f4xx_hal_msp.c **** 
 384:Src/stm32f4xx_hal_msp.c **** void HAL_TIM_Base_MspInit(TIM_HandleTypeDef* htim_base)
 385:Src/stm32f4xx_hal_msp.c **** {
 827              		.loc 1 385 0
 828              		.cfi_startproc
ARM GAS  /var/folders/7p/1_dhylqx7nl5s8914_0f_4w00000gn/T//ccOoAhdp.s 			page 22


 829              		@ args = 0, pretend = 0, frame = 8
 830              		@ frame_needed = 0, uses_anonymous_args = 0
 831              		@ link register save eliminated.
 832              	.LVL45:
 833 0000 82B0     		sub	sp, sp, #8
 834              	.LCFI22:
 835              		.cfi_def_cfa_offset 8
 386:Src/stm32f4xx_hal_msp.c **** 
 387:Src/stm32f4xx_hal_msp.c ****   if(htim_base->Instance==TIM13)
 836              		.loc 1 387 0
 837 0002 0368     		ldr	r3, [r0]
 838 0004 104A     		ldr	r2, .L94
 839 0006 9342     		cmp	r3, r2
 840 0008 04D0     		beq	.L92
 388:Src/stm32f4xx_hal_msp.c ****   {
 389:Src/stm32f4xx_hal_msp.c ****   /* USER CODE BEGIN TIM13_MspInit 0 */
 390:Src/stm32f4xx_hal_msp.c **** 
 391:Src/stm32f4xx_hal_msp.c ****   /* USER CODE END TIM13_MspInit 0 */
 392:Src/stm32f4xx_hal_msp.c ****     /* Peripheral clock enable */
 393:Src/stm32f4xx_hal_msp.c ****     __HAL_RCC_TIM13_CLK_ENABLE();
 394:Src/stm32f4xx_hal_msp.c ****   /* USER CODE BEGIN TIM13_MspInit 1 */
 395:Src/stm32f4xx_hal_msp.c **** 
 396:Src/stm32f4xx_hal_msp.c ****   /* USER CODE END TIM13_MspInit 1 */
 397:Src/stm32f4xx_hal_msp.c ****   }
 398:Src/stm32f4xx_hal_msp.c ****   else if(htim_base->Instance==TIM14)
 841              		.loc 1 398 0
 842 000a 104A     		ldr	r2, .L94+4
 843 000c 9342     		cmp	r3, r2
 844 000e 0ED0     		beq	.L93
 845              	.L88:
 399:Src/stm32f4xx_hal_msp.c ****   {
 400:Src/stm32f4xx_hal_msp.c ****   /* USER CODE BEGIN TIM14_MspInit 0 */
 401:Src/stm32f4xx_hal_msp.c **** 
 402:Src/stm32f4xx_hal_msp.c ****   /* USER CODE END TIM14_MspInit 0 */
 403:Src/stm32f4xx_hal_msp.c ****     /* Peripheral clock enable */
 404:Src/stm32f4xx_hal_msp.c ****     __HAL_RCC_TIM14_CLK_ENABLE();
 405:Src/stm32f4xx_hal_msp.c ****   /* USER CODE BEGIN TIM14_MspInit 1 */
 406:Src/stm32f4xx_hal_msp.c **** 
 407:Src/stm32f4xx_hal_msp.c ****   /* USER CODE END TIM14_MspInit 1 */
 408:Src/stm32f4xx_hal_msp.c ****   }
 409:Src/stm32f4xx_hal_msp.c **** 
 410:Src/stm32f4xx_hal_msp.c **** }
 846              		.loc 1 410 0
 847 0010 02B0     		add	sp, sp, #8
 848              	.LCFI23:
 849              		.cfi_remember_state
 850              		.cfi_def_cfa_offset 0
 851              		@ sp needed
 852 0012 7047     		bx	lr
 853              	.L92:
 854              	.LCFI24:
 855              		.cfi_restore_state
 856              	.LBB10:
 393:Src/stm32f4xx_hal_msp.c ****   /* USER CODE BEGIN TIM13_MspInit 1 */
 857              		.loc 1 393 0
 858 0014 0023     		movs	r3, #0
 859 0016 0093     		str	r3, [sp]
ARM GAS  /var/folders/7p/1_dhylqx7nl5s8914_0f_4w00000gn/T//ccOoAhdp.s 			page 23


 860 0018 0D4B     		ldr	r3, .L94+8
 861 001a 1A6C     		ldr	r2, [r3, #64]
 862 001c 42F08002 		orr	r2, r2, #128
 863 0020 1A64     		str	r2, [r3, #64]
 864 0022 1B6C     		ldr	r3, [r3, #64]
 865 0024 03F08003 		and	r3, r3, #128
 866 0028 0093     		str	r3, [sp]
 867 002a 009B     		ldr	r3, [sp]
 868              	.LBE10:
 869 002c F0E7     		b	.L88
 870              	.L93:
 871              	.LBB11:
 404:Src/stm32f4xx_hal_msp.c ****   /* USER CODE BEGIN TIM14_MspInit 1 */
 872              		.loc 1 404 0
 873 002e 0023     		movs	r3, #0
 874 0030 0193     		str	r3, [sp, #4]
 875 0032 074B     		ldr	r3, .L94+8
 876 0034 1A6C     		ldr	r2, [r3, #64]
 877 0036 42F48072 		orr	r2, r2, #256
 878 003a 1A64     		str	r2, [r3, #64]
 879 003c 1B6C     		ldr	r3, [r3, #64]
 880 003e 03F48073 		and	r3, r3, #256
 881 0042 0193     		str	r3, [sp, #4]
 882 0044 019B     		ldr	r3, [sp, #4]
 883              	.LBE11:
 884              		.loc 1 410 0
 885 0046 E3E7     		b	.L88
 886              	.L95:
 887              		.align	2
 888              	.L94:
 889 0048 001C0040 		.word	1073748992
 890 004c 00200040 		.word	1073750016
 891 0050 00380240 		.word	1073887232
 892              		.cfi_endproc
 893              	.LFE136:
 895              		.section	.text.HAL_TIM_MspPostInit,"ax",%progbits
 896              		.align	1
 897              		.global	HAL_TIM_MspPostInit
 898              		.syntax unified
 899              		.thumb
 900              		.thumb_func
 901              		.fpu fpv4-sp-d16
 903              	HAL_TIM_MspPostInit:
 904              	.LFB137:
 411:Src/stm32f4xx_hal_msp.c **** 
 412:Src/stm32f4xx_hal_msp.c **** void HAL_TIM_MspPostInit(TIM_HandleTypeDef* htim)
 413:Src/stm32f4xx_hal_msp.c **** {
 905              		.loc 1 413 0
 906              		.cfi_startproc
 907              		@ args = 0, pretend = 0, frame = 24
 908              		@ frame_needed = 0, uses_anonymous_args = 0
 909              	.LVL46:
 910 0000 00B5     		push	{lr}
 911              	.LCFI25:
 912              		.cfi_def_cfa_offset 4
 913              		.cfi_offset 14, -4
 914 0002 87B0     		sub	sp, sp, #28
ARM GAS  /var/folders/7p/1_dhylqx7nl5s8914_0f_4w00000gn/T//ccOoAhdp.s 			page 24


 915              	.LCFI26:
 916              		.cfi_def_cfa_offset 32
 414:Src/stm32f4xx_hal_msp.c **** 
 415:Src/stm32f4xx_hal_msp.c ****   GPIO_InitTypeDef GPIO_InitStruct;
 416:Src/stm32f4xx_hal_msp.c ****   if(htim->Instance==TIM2)
 917              		.loc 1 416 0
 918 0004 0368     		ldr	r3, [r0]
 919 0006 B3F1804F 		cmp	r3, #1073741824
 920 000a 0ED0     		beq	.L103
 417:Src/stm32f4xx_hal_msp.c ****   {
 418:Src/stm32f4xx_hal_msp.c ****   /* USER CODE BEGIN TIM2_MspPostInit 0 */
 419:Src/stm32f4xx_hal_msp.c **** 
 420:Src/stm32f4xx_hal_msp.c ****   /* USER CODE END TIM2_MspPostInit 0 */
 421:Src/stm32f4xx_hal_msp.c ****     /**TIM2 GPIO Configuration    
 422:Src/stm32f4xx_hal_msp.c ****     PB10     ------> TIM2_CH3
 423:Src/stm32f4xx_hal_msp.c ****     PB11     ------> TIM2_CH4 
 424:Src/stm32f4xx_hal_msp.c ****     */
 425:Src/stm32f4xx_hal_msp.c ****     GPIO_InitStruct.Pin = GPIO_PIN_10|GPIO_PIN_11;
 426:Src/stm32f4xx_hal_msp.c ****     GPIO_InitStruct.Mode = GPIO_MODE_AF_PP;
 427:Src/stm32f4xx_hal_msp.c ****     GPIO_InitStruct.Pull = GPIO_NOPULL;
 428:Src/stm32f4xx_hal_msp.c ****     GPIO_InitStruct.Speed = GPIO_SPEED_FREQ_LOW;
 429:Src/stm32f4xx_hal_msp.c ****     GPIO_InitStruct.Alternate = GPIO_AF1_TIM2;
 430:Src/stm32f4xx_hal_msp.c ****     HAL_GPIO_Init(GPIOB, &GPIO_InitStruct);
 431:Src/stm32f4xx_hal_msp.c **** 
 432:Src/stm32f4xx_hal_msp.c ****   /* USER CODE BEGIN TIM2_MspPostInit 1 */
 433:Src/stm32f4xx_hal_msp.c **** 
 434:Src/stm32f4xx_hal_msp.c ****   /* USER CODE END TIM2_MspPostInit 1 */
 435:Src/stm32f4xx_hal_msp.c ****   }
 436:Src/stm32f4xx_hal_msp.c ****   else if(htim->Instance==TIM3)
 921              		.loc 1 436 0
 922 000c 294A     		ldr	r2, .L108
 923 000e 9342     		cmp	r3, r2
 924 0010 1AD0     		beq	.L104
 437:Src/stm32f4xx_hal_msp.c ****   {
 438:Src/stm32f4xx_hal_msp.c ****   /* USER CODE BEGIN TIM3_MspPostInit 0 */
 439:Src/stm32f4xx_hal_msp.c **** 
 440:Src/stm32f4xx_hal_msp.c ****   /* USER CODE END TIM3_MspPostInit 0 */
 441:Src/stm32f4xx_hal_msp.c ****   
 442:Src/stm32f4xx_hal_msp.c ****     /**TIM3 GPIO Configuration    
 443:Src/stm32f4xx_hal_msp.c ****     PB0     ------> TIM3_CH3
 444:Src/stm32f4xx_hal_msp.c ****     PB1     ------> TIM3_CH4 
 445:Src/stm32f4xx_hal_msp.c ****     */
 446:Src/stm32f4xx_hal_msp.c ****     GPIO_InitStruct.Pin = GPIO_PIN_0|GPIO_PIN_1;
 447:Src/stm32f4xx_hal_msp.c ****     GPIO_InitStruct.Mode = GPIO_MODE_AF_PP;
 448:Src/stm32f4xx_hal_msp.c ****     GPIO_InitStruct.Pull = GPIO_NOPULL;
 449:Src/stm32f4xx_hal_msp.c ****     GPIO_InitStruct.Speed = GPIO_SPEED_FREQ_LOW;
 450:Src/stm32f4xx_hal_msp.c ****     GPIO_InitStruct.Alternate = GPIO_AF2_TIM3;
 451:Src/stm32f4xx_hal_msp.c ****     HAL_GPIO_Init(GPIOB, &GPIO_InitStruct);
 452:Src/stm32f4xx_hal_msp.c **** 
 453:Src/stm32f4xx_hal_msp.c ****   /* USER CODE BEGIN TIM3_MspPostInit 1 */
 454:Src/stm32f4xx_hal_msp.c **** 
 455:Src/stm32f4xx_hal_msp.c ****   /* USER CODE END TIM3_MspPostInit 1 */
 456:Src/stm32f4xx_hal_msp.c ****   }
 457:Src/stm32f4xx_hal_msp.c ****   else if(htim->Instance==TIM5)
 925              		.loc 1 457 0
 926 0012 294A     		ldr	r2, .L108+4
 927 0014 9342     		cmp	r3, r2
ARM GAS  /var/folders/7p/1_dhylqx7nl5s8914_0f_4w00000gn/T//ccOoAhdp.s 			page 25


 928 0016 24D0     		beq	.L105
 458:Src/stm32f4xx_hal_msp.c ****   {
 459:Src/stm32f4xx_hal_msp.c ****   /* USER CODE BEGIN TIM5_MspPostInit 0 */
 460:Src/stm32f4xx_hal_msp.c **** 
 461:Src/stm32f4xx_hal_msp.c ****   /* USER CODE END TIM5_MspPostInit 0 */
 462:Src/stm32f4xx_hal_msp.c ****   
 463:Src/stm32f4xx_hal_msp.c ****     /**TIM5 GPIO Configuration    
 464:Src/stm32f4xx_hal_msp.c ****     PA0-WKUP     ------> TIM5_CH1
 465:Src/stm32f4xx_hal_msp.c ****     PA1     ------> TIM5_CH2
 466:Src/stm32f4xx_hal_msp.c ****     PA2     ------> TIM5_CH3
 467:Src/stm32f4xx_hal_msp.c ****     PA3     ------> TIM5_CH4 
 468:Src/stm32f4xx_hal_msp.c ****     */
 469:Src/stm32f4xx_hal_msp.c ****     GPIO_InitStruct.Pin = GPIO_PIN_0|GPIO_PIN_1|GPIO_PIN_2|GPIO_PIN_3;
 470:Src/stm32f4xx_hal_msp.c ****     GPIO_InitStruct.Mode = GPIO_MODE_AF_PP;
 471:Src/stm32f4xx_hal_msp.c ****     GPIO_InitStruct.Pull = GPIO_NOPULL;
 472:Src/stm32f4xx_hal_msp.c ****     GPIO_InitStruct.Speed = GPIO_SPEED_FREQ_LOW;
 473:Src/stm32f4xx_hal_msp.c ****     GPIO_InitStruct.Alternate = GPIO_AF2_TIM5;
 474:Src/stm32f4xx_hal_msp.c ****     HAL_GPIO_Init(GPIOA, &GPIO_InitStruct);
 475:Src/stm32f4xx_hal_msp.c **** 
 476:Src/stm32f4xx_hal_msp.c ****   /* USER CODE BEGIN TIM5_MspPostInit 1 */
 477:Src/stm32f4xx_hal_msp.c **** 
 478:Src/stm32f4xx_hal_msp.c ****   /* USER CODE END TIM5_MspPostInit 1 */
 479:Src/stm32f4xx_hal_msp.c ****   }
 480:Src/stm32f4xx_hal_msp.c ****   else if(htim->Instance==TIM13)
 929              		.loc 1 480 0
 930 0018 284A     		ldr	r2, .L108+8
 931 001a 9342     		cmp	r3, r2
 932 001c 2ED0     		beq	.L106
 481:Src/stm32f4xx_hal_msp.c ****   {
 482:Src/stm32f4xx_hal_msp.c ****   /* USER CODE BEGIN TIM13_MspPostInit 0 */
 483:Src/stm32f4xx_hal_msp.c **** 
 484:Src/stm32f4xx_hal_msp.c ****   /* USER CODE END TIM13_MspPostInit 0 */
 485:Src/stm32f4xx_hal_msp.c ****   
 486:Src/stm32f4xx_hal_msp.c ****     /**TIM13 GPIO Configuration    
 487:Src/stm32f4xx_hal_msp.c ****     PA6     ------> TIM13_CH1 
 488:Src/stm32f4xx_hal_msp.c ****     */
 489:Src/stm32f4xx_hal_msp.c ****     GPIO_InitStruct.Pin = GPIO_PIN_6;
 490:Src/stm32f4xx_hal_msp.c ****     GPIO_InitStruct.Mode = GPIO_MODE_AF_PP;
 491:Src/stm32f4xx_hal_msp.c ****     GPIO_InitStruct.Pull = GPIO_NOPULL;
 492:Src/stm32f4xx_hal_msp.c ****     GPIO_InitStruct.Speed = GPIO_SPEED_FREQ_LOW;
 493:Src/stm32f4xx_hal_msp.c ****     GPIO_InitStruct.Alternate = GPIO_AF9_TIM13;
 494:Src/stm32f4xx_hal_msp.c ****     HAL_GPIO_Init(GPIOA, &GPIO_InitStruct);
 495:Src/stm32f4xx_hal_msp.c **** 
 496:Src/stm32f4xx_hal_msp.c ****   /* USER CODE BEGIN TIM13_MspPostInit 1 */
 497:Src/stm32f4xx_hal_msp.c **** 
 498:Src/stm32f4xx_hal_msp.c ****   /* USER CODE END TIM13_MspPostInit 1 */
 499:Src/stm32f4xx_hal_msp.c ****   }
 500:Src/stm32f4xx_hal_msp.c ****   else if(htim->Instance==TIM14)
 933              		.loc 1 500 0
 934 001e 284A     		ldr	r2, .L108+12
 935 0020 9342     		cmp	r3, r2
 936 0022 39D0     		beq	.L107
 937              	.LVL47:
 938              	.L96:
 501:Src/stm32f4xx_hal_msp.c ****   {
 502:Src/stm32f4xx_hal_msp.c ****   /* USER CODE BEGIN TIM14_MspPostInit 0 */
 503:Src/stm32f4xx_hal_msp.c **** 
ARM GAS  /var/folders/7p/1_dhylqx7nl5s8914_0f_4w00000gn/T//ccOoAhdp.s 			page 26


 504:Src/stm32f4xx_hal_msp.c ****   /* USER CODE END TIM14_MspPostInit 0 */
 505:Src/stm32f4xx_hal_msp.c ****   
 506:Src/stm32f4xx_hal_msp.c ****     /**TIM14 GPIO Configuration    
 507:Src/stm32f4xx_hal_msp.c ****     PA7     ------> TIM14_CH1 
 508:Src/stm32f4xx_hal_msp.c ****     */
 509:Src/stm32f4xx_hal_msp.c ****     GPIO_InitStruct.Pin = GPIO_PIN_7;
 510:Src/stm32f4xx_hal_msp.c ****     GPIO_InitStruct.Mode = GPIO_MODE_AF_PP;
 511:Src/stm32f4xx_hal_msp.c ****     GPIO_InitStruct.Pull = GPIO_NOPULL;
 512:Src/stm32f4xx_hal_msp.c ****     GPIO_InitStruct.Speed = GPIO_SPEED_FREQ_LOW;
 513:Src/stm32f4xx_hal_msp.c ****     GPIO_InitStruct.Alternate = GPIO_AF9_TIM14;
 514:Src/stm32f4xx_hal_msp.c ****     HAL_GPIO_Init(GPIOA, &GPIO_InitStruct);
 515:Src/stm32f4xx_hal_msp.c **** 
 516:Src/stm32f4xx_hal_msp.c ****   /* USER CODE BEGIN TIM14_MspPostInit 1 */
 517:Src/stm32f4xx_hal_msp.c **** 
 518:Src/stm32f4xx_hal_msp.c ****   /* USER CODE END TIM14_MspPostInit 1 */
 519:Src/stm32f4xx_hal_msp.c ****   }
 520:Src/stm32f4xx_hal_msp.c **** 
 521:Src/stm32f4xx_hal_msp.c **** }
 939              		.loc 1 521 0
 940 0024 07B0     		add	sp, sp, #28
 941              	.LCFI27:
 942              		.cfi_remember_state
 943              		.cfi_def_cfa_offset 4
 944              		@ sp needed
 945 0026 5DF804FB 		ldr	pc, [sp], #4
 946              	.LVL48:
 947              	.L103:
 948              	.LCFI28:
 949              		.cfi_restore_state
 425:Src/stm32f4xx_hal_msp.c ****     GPIO_InitStruct.Mode = GPIO_MODE_AF_PP;
 950              		.loc 1 425 0
 951 002a 4FF44063 		mov	r3, #3072
 952 002e 0193     		str	r3, [sp, #4]
 426:Src/stm32f4xx_hal_msp.c ****     GPIO_InitStruct.Pull = GPIO_NOPULL;
 953              		.loc 1 426 0
 954 0030 0223     		movs	r3, #2
 955 0032 0293     		str	r3, [sp, #8]
 427:Src/stm32f4xx_hal_msp.c ****     GPIO_InitStruct.Speed = GPIO_SPEED_FREQ_LOW;
 956              		.loc 1 427 0
 957 0034 0023     		movs	r3, #0
 958 0036 0393     		str	r3, [sp, #12]
 428:Src/stm32f4xx_hal_msp.c ****     GPIO_InitStruct.Alternate = GPIO_AF1_TIM2;
 959              		.loc 1 428 0
 960 0038 0493     		str	r3, [sp, #16]
 429:Src/stm32f4xx_hal_msp.c ****     HAL_GPIO_Init(GPIOB, &GPIO_InitStruct);
 961              		.loc 1 429 0
 962 003a 0123     		movs	r3, #1
 963 003c 0593     		str	r3, [sp, #20]
 430:Src/stm32f4xx_hal_msp.c **** 
 964              		.loc 1 430 0
 965 003e 01A9     		add	r1, sp, #4
 966 0040 2048     		ldr	r0, .L108+16
 967              	.LVL49:
 968 0042 FFF7FEFF 		bl	HAL_GPIO_Init
 969              	.LVL50:
 970 0046 EDE7     		b	.L96
 971              	.LVL51:
ARM GAS  /var/folders/7p/1_dhylqx7nl5s8914_0f_4w00000gn/T//ccOoAhdp.s 			page 27


 972              	.L104:
 446:Src/stm32f4xx_hal_msp.c ****     GPIO_InitStruct.Mode = GPIO_MODE_AF_PP;
 973              		.loc 1 446 0
 974 0048 0323     		movs	r3, #3
 975 004a 0193     		str	r3, [sp, #4]
 447:Src/stm32f4xx_hal_msp.c ****     GPIO_InitStruct.Pull = GPIO_NOPULL;
 976              		.loc 1 447 0
 977 004c 0223     		movs	r3, #2
 978 004e 0293     		str	r3, [sp, #8]
 448:Src/stm32f4xx_hal_msp.c ****     GPIO_InitStruct.Speed = GPIO_SPEED_FREQ_LOW;
 979              		.loc 1 448 0
 980 0050 0022     		movs	r2, #0
 981 0052 0392     		str	r2, [sp, #12]
 449:Src/stm32f4xx_hal_msp.c ****     GPIO_InitStruct.Alternate = GPIO_AF2_TIM3;
 982              		.loc 1 449 0
 983 0054 0492     		str	r2, [sp, #16]
 450:Src/stm32f4xx_hal_msp.c ****     HAL_GPIO_Init(GPIOB, &GPIO_InitStruct);
 984              		.loc 1 450 0
 985 0056 0593     		str	r3, [sp, #20]
 451:Src/stm32f4xx_hal_msp.c **** 
 986              		.loc 1 451 0
 987 0058 01A9     		add	r1, sp, #4
 988 005a 1A48     		ldr	r0, .L108+16
 989              	.LVL52:
 990 005c FFF7FEFF 		bl	HAL_GPIO_Init
 991              	.LVL53:
 992 0060 E0E7     		b	.L96
 993              	.LVL54:
 994              	.L105:
 469:Src/stm32f4xx_hal_msp.c ****     GPIO_InitStruct.Mode = GPIO_MODE_AF_PP;
 995              		.loc 1 469 0
 996 0062 0F23     		movs	r3, #15
 997 0064 0193     		str	r3, [sp, #4]
 470:Src/stm32f4xx_hal_msp.c ****     GPIO_InitStruct.Pull = GPIO_NOPULL;
 998              		.loc 1 470 0
 999 0066 0223     		movs	r3, #2
 1000 0068 0293     		str	r3, [sp, #8]
 471:Src/stm32f4xx_hal_msp.c ****     GPIO_InitStruct.Speed = GPIO_SPEED_FREQ_LOW;
 1001              		.loc 1 471 0
 1002 006a 0022     		movs	r2, #0
 1003 006c 0392     		str	r2, [sp, #12]
 472:Src/stm32f4xx_hal_msp.c ****     GPIO_InitStruct.Alternate = GPIO_AF2_TIM5;
 1004              		.loc 1 472 0
 1005 006e 0492     		str	r2, [sp, #16]
 473:Src/stm32f4xx_hal_msp.c ****     HAL_GPIO_Init(GPIOA, &GPIO_InitStruct);
 1006              		.loc 1 473 0
 1007 0070 0593     		str	r3, [sp, #20]
 474:Src/stm32f4xx_hal_msp.c **** 
 1008              		.loc 1 474 0
 1009 0072 01A9     		add	r1, sp, #4
 1010 0074 1448     		ldr	r0, .L108+20
 1011              	.LVL55:
 1012 0076 FFF7FEFF 		bl	HAL_GPIO_Init
 1013              	.LVL56:
 1014 007a D3E7     		b	.L96
 1015              	.LVL57:
 1016              	.L106:
ARM GAS  /var/folders/7p/1_dhylqx7nl5s8914_0f_4w00000gn/T//ccOoAhdp.s 			page 28


 489:Src/stm32f4xx_hal_msp.c ****     GPIO_InitStruct.Mode = GPIO_MODE_AF_PP;
 1017              		.loc 1 489 0
 1018 007c 4023     		movs	r3, #64
 1019 007e 0193     		str	r3, [sp, #4]
 490:Src/stm32f4xx_hal_msp.c ****     GPIO_InitStruct.Pull = GPIO_NOPULL;
 1020              		.loc 1 490 0
 1021 0080 0223     		movs	r3, #2
 1022 0082 0293     		str	r3, [sp, #8]
 491:Src/stm32f4xx_hal_msp.c ****     GPIO_InitStruct.Speed = GPIO_SPEED_FREQ_LOW;
 1023              		.loc 1 491 0
 1024 0084 0023     		movs	r3, #0
 1025 0086 0393     		str	r3, [sp, #12]
 492:Src/stm32f4xx_hal_msp.c ****     GPIO_InitStruct.Alternate = GPIO_AF9_TIM13;
 1026              		.loc 1 492 0
 1027 0088 0493     		str	r3, [sp, #16]
 493:Src/stm32f4xx_hal_msp.c ****     HAL_GPIO_Init(GPIOA, &GPIO_InitStruct);
 1028              		.loc 1 493 0
 1029 008a 0923     		movs	r3, #9
 1030 008c 0593     		str	r3, [sp, #20]
 494:Src/stm32f4xx_hal_msp.c **** 
 1031              		.loc 1 494 0
 1032 008e 01A9     		add	r1, sp, #4
 1033 0090 0D48     		ldr	r0, .L108+20
 1034              	.LVL58:
 1035 0092 FFF7FEFF 		bl	HAL_GPIO_Init
 1036              	.LVL59:
 1037 0096 C5E7     		b	.L96
 1038              	.LVL60:
 1039              	.L107:
 509:Src/stm32f4xx_hal_msp.c ****     GPIO_InitStruct.Mode = GPIO_MODE_AF_PP;
 1040              		.loc 1 509 0
 1041 0098 8023     		movs	r3, #128
 1042 009a 0193     		str	r3, [sp, #4]
 510:Src/stm32f4xx_hal_msp.c ****     GPIO_InitStruct.Pull = GPIO_NOPULL;
 1043              		.loc 1 510 0
 1044 009c 0223     		movs	r3, #2
 1045 009e 0293     		str	r3, [sp, #8]
 511:Src/stm32f4xx_hal_msp.c ****     GPIO_InitStruct.Speed = GPIO_SPEED_FREQ_LOW;
 1046              		.loc 1 511 0
 1047 00a0 0023     		movs	r3, #0
 1048 00a2 0393     		str	r3, [sp, #12]
 512:Src/stm32f4xx_hal_msp.c ****     GPIO_InitStruct.Alternate = GPIO_AF9_TIM14;
 1049              		.loc 1 512 0
 1050 00a4 0493     		str	r3, [sp, #16]
 513:Src/stm32f4xx_hal_msp.c ****     HAL_GPIO_Init(GPIOA, &GPIO_InitStruct);
 1051              		.loc 1 513 0
 1052 00a6 0923     		movs	r3, #9
 1053 00a8 0593     		str	r3, [sp, #20]
 514:Src/stm32f4xx_hal_msp.c **** 
 1054              		.loc 1 514 0
 1055 00aa 01A9     		add	r1, sp, #4
 1056 00ac 0648     		ldr	r0, .L108+20
 1057              	.LVL61:
 1058 00ae FFF7FEFF 		bl	HAL_GPIO_Init
 1059              	.LVL62:
 1060              		.loc 1 521 0
 1061 00b2 B7E7     		b	.L96
ARM GAS  /var/folders/7p/1_dhylqx7nl5s8914_0f_4w00000gn/T//ccOoAhdp.s 			page 29


 1062              	.L109:
 1063              		.align	2
 1064              	.L108:
 1065 00b4 00040040 		.word	1073742848
 1066 00b8 000C0040 		.word	1073744896
 1067 00bc 001C0040 		.word	1073748992
 1068 00c0 00200040 		.word	1073750016
 1069 00c4 00040240 		.word	1073873920
 1070 00c8 00000240 		.word	1073872896
 1071              		.cfi_endproc
 1072              	.LFE137:
 1074              		.section	.text.HAL_TIM_PWM_MspDeInit,"ax",%progbits
 1075              		.align	1
 1076              		.global	HAL_TIM_PWM_MspDeInit
 1077              		.syntax unified
 1078              		.thumb
 1079              		.thumb_func
 1080              		.fpu fpv4-sp-d16
 1082              	HAL_TIM_PWM_MspDeInit:
 1083              	.LFB138:
 522:Src/stm32f4xx_hal_msp.c **** 
 523:Src/stm32f4xx_hal_msp.c **** void HAL_TIM_PWM_MspDeInit(TIM_HandleTypeDef* htim_pwm)
 524:Src/stm32f4xx_hal_msp.c **** {
 1084              		.loc 1 524 0
 1085              		.cfi_startproc
 1086              		@ args = 0, pretend = 0, frame = 0
 1087              		@ frame_needed = 0, uses_anonymous_args = 0
 1088              		@ link register save eliminated.
 1089              	.LVL63:
 525:Src/stm32f4xx_hal_msp.c **** 
 526:Src/stm32f4xx_hal_msp.c ****   if(htim_pwm->Instance==TIM2)
 1090              		.loc 1 526 0
 1091 0000 0368     		ldr	r3, [r0]
 1092 0002 B3F1804F 		cmp	r3, #1073741824
 1093 0006 06D0     		beq	.L114
 527:Src/stm32f4xx_hal_msp.c ****   {
 528:Src/stm32f4xx_hal_msp.c ****   /* USER CODE BEGIN TIM2_MspDeInit 0 */
 529:Src/stm32f4xx_hal_msp.c **** 
 530:Src/stm32f4xx_hal_msp.c ****   /* USER CODE END TIM2_MspDeInit 0 */
 531:Src/stm32f4xx_hal_msp.c ****     /* Peripheral clock disable */
 532:Src/stm32f4xx_hal_msp.c ****     __HAL_RCC_TIM2_CLK_DISABLE();
 533:Src/stm32f4xx_hal_msp.c ****   /* USER CODE BEGIN TIM2_MspDeInit 1 */
 534:Src/stm32f4xx_hal_msp.c **** 
 535:Src/stm32f4xx_hal_msp.c ****   /* USER CODE END TIM2_MspDeInit 1 */
 536:Src/stm32f4xx_hal_msp.c ****   }
 537:Src/stm32f4xx_hal_msp.c ****   else if(htim_pwm->Instance==TIM3)
 1094              		.loc 1 537 0
 1095 0008 0D4A     		ldr	r2, .L117
 1096 000a 9342     		cmp	r3, r2
 1097 000c 09D0     		beq	.L115
 538:Src/stm32f4xx_hal_msp.c ****   {
 539:Src/stm32f4xx_hal_msp.c ****   /* USER CODE BEGIN TIM3_MspDeInit 0 */
 540:Src/stm32f4xx_hal_msp.c **** 
 541:Src/stm32f4xx_hal_msp.c ****   /* USER CODE END TIM3_MspDeInit 0 */
 542:Src/stm32f4xx_hal_msp.c ****     /* Peripheral clock disable */
 543:Src/stm32f4xx_hal_msp.c ****     __HAL_RCC_TIM3_CLK_DISABLE();
 544:Src/stm32f4xx_hal_msp.c ****   /* USER CODE BEGIN TIM3_MspDeInit 1 */
ARM GAS  /var/folders/7p/1_dhylqx7nl5s8914_0f_4w00000gn/T//ccOoAhdp.s 			page 30


 545:Src/stm32f4xx_hal_msp.c **** 
 546:Src/stm32f4xx_hal_msp.c ****   /* USER CODE END TIM3_MspDeInit 1 */
 547:Src/stm32f4xx_hal_msp.c ****   }
 548:Src/stm32f4xx_hal_msp.c ****   else if(htim_pwm->Instance==TIM5)
 1098              		.loc 1 548 0
 1099 000e 0D4A     		ldr	r2, .L117+4
 1100 0010 9342     		cmp	r3, r2
 1101 0012 0DD0     		beq	.L116
 1102              	.L110:
 1103 0014 7047     		bx	lr
 1104              	.L114:
 532:Src/stm32f4xx_hal_msp.c ****   /* USER CODE BEGIN TIM2_MspDeInit 1 */
 1105              		.loc 1 532 0
 1106 0016 0C4A     		ldr	r2, .L117+8
 1107 0018 136C     		ldr	r3, [r2, #64]
 1108 001a 23F00103 		bic	r3, r3, #1
 1109 001e 1364     		str	r3, [r2, #64]
 1110 0020 7047     		bx	lr
 1111              	.L115:
 543:Src/stm32f4xx_hal_msp.c ****   /* USER CODE BEGIN TIM3_MspDeInit 1 */
 1112              		.loc 1 543 0
 1113 0022 02F50D32 		add	r2, r2, #144384
 1114 0026 136C     		ldr	r3, [r2, #64]
 1115 0028 23F00203 		bic	r3, r3, #2
 1116 002c 1364     		str	r3, [r2, #64]
 1117 002e 7047     		bx	lr
 1118              	.L116:
 549:Src/stm32f4xx_hal_msp.c ****   {
 550:Src/stm32f4xx_hal_msp.c ****   /* USER CODE BEGIN TIM5_MspDeInit 0 */
 551:Src/stm32f4xx_hal_msp.c **** 
 552:Src/stm32f4xx_hal_msp.c ****   /* USER CODE END TIM5_MspDeInit 0 */
 553:Src/stm32f4xx_hal_msp.c ****     /* Peripheral clock disable */
 554:Src/stm32f4xx_hal_msp.c ****     __HAL_RCC_TIM5_CLK_DISABLE();
 1119              		.loc 1 554 0
 1120 0030 02F50B32 		add	r2, r2, #142336
 1121 0034 136C     		ldr	r3, [r2, #64]
 1122 0036 23F00803 		bic	r3, r3, #8
 1123 003a 1364     		str	r3, [r2, #64]
 555:Src/stm32f4xx_hal_msp.c ****   /* USER CODE BEGIN TIM5_MspDeInit 1 */
 556:Src/stm32f4xx_hal_msp.c **** 
 557:Src/stm32f4xx_hal_msp.c ****   /* USER CODE END TIM5_MspDeInit 1 */
 558:Src/stm32f4xx_hal_msp.c ****   }
 559:Src/stm32f4xx_hal_msp.c **** 
 560:Src/stm32f4xx_hal_msp.c **** }
 1124              		.loc 1 560 0
 1125 003c EAE7     		b	.L110
 1126              	.L118:
 1127 003e 00BF     		.align	2
 1128              	.L117:
 1129 0040 00040040 		.word	1073742848
 1130 0044 000C0040 		.word	1073744896
 1131 0048 00380240 		.word	1073887232
 1132              		.cfi_endproc
 1133              	.LFE138:
 1135              		.section	.text.HAL_TIM_Base_MspDeInit,"ax",%progbits
 1136              		.align	1
 1137              		.global	HAL_TIM_Base_MspDeInit
ARM GAS  /var/folders/7p/1_dhylqx7nl5s8914_0f_4w00000gn/T//ccOoAhdp.s 			page 31


 1138              		.syntax unified
 1139              		.thumb
 1140              		.thumb_func
 1141              		.fpu fpv4-sp-d16
 1143              	HAL_TIM_Base_MspDeInit:
 1144              	.LFB139:
 561:Src/stm32f4xx_hal_msp.c **** 
 562:Src/stm32f4xx_hal_msp.c **** void HAL_TIM_Base_MspDeInit(TIM_HandleTypeDef* htim_base)
 563:Src/stm32f4xx_hal_msp.c **** {
 1145              		.loc 1 563 0
 1146              		.cfi_startproc
 1147              		@ args = 0, pretend = 0, frame = 0
 1148              		@ frame_needed = 0, uses_anonymous_args = 0
 1149              		@ link register save eliminated.
 1150              	.LVL64:
 564:Src/stm32f4xx_hal_msp.c **** 
 565:Src/stm32f4xx_hal_msp.c ****   if(htim_base->Instance==TIM13)
 1151              		.loc 1 565 0
 1152 0000 0368     		ldr	r3, [r0]
 1153 0002 0A4A     		ldr	r2, .L124
 1154 0004 9342     		cmp	r3, r2
 1155 0006 03D0     		beq	.L122
 566:Src/stm32f4xx_hal_msp.c ****   {
 567:Src/stm32f4xx_hal_msp.c ****   /* USER CODE BEGIN TIM13_MspDeInit 0 */
 568:Src/stm32f4xx_hal_msp.c **** 
 569:Src/stm32f4xx_hal_msp.c ****   /* USER CODE END TIM13_MspDeInit 0 */
 570:Src/stm32f4xx_hal_msp.c ****     /* Peripheral clock disable */
 571:Src/stm32f4xx_hal_msp.c ****     __HAL_RCC_TIM13_CLK_DISABLE();
 572:Src/stm32f4xx_hal_msp.c ****   /* USER CODE BEGIN TIM13_MspDeInit 1 */
 573:Src/stm32f4xx_hal_msp.c **** 
 574:Src/stm32f4xx_hal_msp.c ****   /* USER CODE END TIM13_MspDeInit 1 */
 575:Src/stm32f4xx_hal_msp.c ****   }
 576:Src/stm32f4xx_hal_msp.c ****   else if(htim_base->Instance==TIM14)
 1156              		.loc 1 576 0
 1157 0008 094A     		ldr	r2, .L124+4
 1158 000a 9342     		cmp	r3, r2
 1159 000c 07D0     		beq	.L123
 1160              	.L119:
 1161 000e 7047     		bx	lr
 1162              	.L122:
 571:Src/stm32f4xx_hal_msp.c ****   /* USER CODE BEGIN TIM13_MspDeInit 1 */
 1163              		.loc 1 571 0
 1164 0010 02F50732 		add	r2, r2, #138240
 1165 0014 136C     		ldr	r3, [r2, #64]
 1166 0016 23F08003 		bic	r3, r3, #128
 1167 001a 1364     		str	r3, [r2, #64]
 1168 001c 7047     		bx	lr
 1169              	.L123:
 577:Src/stm32f4xx_hal_msp.c ****   {
 578:Src/stm32f4xx_hal_msp.c ****   /* USER CODE BEGIN TIM14_MspDeInit 0 */
 579:Src/stm32f4xx_hal_msp.c **** 
 580:Src/stm32f4xx_hal_msp.c ****   /* USER CODE END TIM14_MspDeInit 0 */
 581:Src/stm32f4xx_hal_msp.c ****     /* Peripheral clock disable */
 582:Src/stm32f4xx_hal_msp.c ****     __HAL_RCC_TIM14_CLK_DISABLE();
 1170              		.loc 1 582 0
 1171 001e 02F50632 		add	r2, r2, #137216
 1172 0022 136C     		ldr	r3, [r2, #64]
ARM GAS  /var/folders/7p/1_dhylqx7nl5s8914_0f_4w00000gn/T//ccOoAhdp.s 			page 32


 1173 0024 23F48073 		bic	r3, r3, #256
 1174 0028 1364     		str	r3, [r2, #64]
 583:Src/stm32f4xx_hal_msp.c ****   /* USER CODE BEGIN TIM14_MspDeInit 1 */
 584:Src/stm32f4xx_hal_msp.c **** 
 585:Src/stm32f4xx_hal_msp.c ****   /* USER CODE END TIM14_MspDeInit 1 */
 586:Src/stm32f4xx_hal_msp.c ****   }
 587:Src/stm32f4xx_hal_msp.c **** 
 588:Src/stm32f4xx_hal_msp.c **** }
 1175              		.loc 1 588 0
 1176 002a F0E7     		b	.L119
 1177              	.L125:
 1178              		.align	2
 1179              	.L124:
 1180 002c 001C0040 		.word	1073748992
 1181 0030 00200040 		.word	1073750016
 1182              		.cfi_endproc
 1183              	.LFE139:
 1185              		.section	.text.HAL_WWDG_MspInit,"ax",%progbits
 1186              		.align	1
 1187              		.global	HAL_WWDG_MspInit
 1188              		.syntax unified
 1189              		.thumb
 1190              		.thumb_func
 1191              		.fpu fpv4-sp-d16
 1193              	HAL_WWDG_MspInit:
 1194              	.LFB140:
 589:Src/stm32f4xx_hal_msp.c **** 
 590:Src/stm32f4xx_hal_msp.c **** void HAL_WWDG_MspInit(WWDG_HandleTypeDef* hwwdg)
 591:Src/stm32f4xx_hal_msp.c **** {
 1195              		.loc 1 591 0
 1196              		.cfi_startproc
 1197              		@ args = 0, pretend = 0, frame = 8
 1198              		@ frame_needed = 0, uses_anonymous_args = 0
 1199              		@ link register save eliminated.
 1200              	.LVL65:
 592:Src/stm32f4xx_hal_msp.c **** 
 593:Src/stm32f4xx_hal_msp.c ****   if(hwwdg->Instance==WWDG)
 1201              		.loc 1 593 0
 1202 0000 0268     		ldr	r2, [r0]
 1203 0002 094B     		ldr	r3, .L134
 1204 0004 9A42     		cmp	r2, r3
 1205 0006 00D0     		beq	.L133
 1206              	.L132:
 594:Src/stm32f4xx_hal_msp.c ****   {
 595:Src/stm32f4xx_hal_msp.c ****   /* USER CODE BEGIN WWDG_MspInit 0 */
 596:Src/stm32f4xx_hal_msp.c **** 
 597:Src/stm32f4xx_hal_msp.c ****   /* USER CODE END WWDG_MspInit 0 */
 598:Src/stm32f4xx_hal_msp.c ****     /* Peripheral clock enable */
 599:Src/stm32f4xx_hal_msp.c ****     __HAL_RCC_WWDG_CLK_ENABLE();
 600:Src/stm32f4xx_hal_msp.c ****   /* USER CODE BEGIN WWDG_MspInit 1 */
 601:Src/stm32f4xx_hal_msp.c **** 
 602:Src/stm32f4xx_hal_msp.c ****   /* USER CODE END WWDG_MspInit 1 */
 603:Src/stm32f4xx_hal_msp.c ****   }
 604:Src/stm32f4xx_hal_msp.c **** 
 605:Src/stm32f4xx_hal_msp.c **** }
 1207              		.loc 1 605 0
 1208 0008 7047     		bx	lr
ARM GAS  /var/folders/7p/1_dhylqx7nl5s8914_0f_4w00000gn/T//ccOoAhdp.s 			page 33


 1209              	.L133:
 591:Src/stm32f4xx_hal_msp.c **** 
 1210              		.loc 1 591 0
 1211 000a 82B0     		sub	sp, sp, #8
 1212              	.LCFI29:
 1213              		.cfi_def_cfa_offset 8
 1214              	.LBB12:
 599:Src/stm32f4xx_hal_msp.c ****   /* USER CODE BEGIN WWDG_MspInit 1 */
 1215              		.loc 1 599 0
 1216 000c 0023     		movs	r3, #0
 1217 000e 0193     		str	r3, [sp, #4]
 1218 0010 064B     		ldr	r3, .L134+4
 1219 0012 1A6C     		ldr	r2, [r3, #64]
 1220 0014 42F40062 		orr	r2, r2, #2048
 1221 0018 1A64     		str	r2, [r3, #64]
 1222 001a 1B6C     		ldr	r3, [r3, #64]
 1223 001c 03F40063 		and	r3, r3, #2048
 1224 0020 0193     		str	r3, [sp, #4]
 1225 0022 019B     		ldr	r3, [sp, #4]
 1226              	.LBE12:
 1227              		.loc 1 605 0
 1228 0024 02B0     		add	sp, sp, #8
 1229              	.LCFI30:
 1230              		.cfi_def_cfa_offset 0
 1231              		@ sp needed
 1232 0026 EFE7     		b	.L132
 1233              	.L135:
 1234              		.align	2
 1235              	.L134:
 1236 0028 002C0040 		.word	1073753088
 1237 002c 00380240 		.word	1073887232
 1238              		.cfi_endproc
 1239              	.LFE140:
 1241              		.text
 1242              	.Letext0:
 1243              		.file 2 "/Users/augustmason/Documents/GitHub/riptide_firmware/STM32/gcc-arm-none-eabi-6-2017-q2-up
 1244              		.file 3 "/Users/augustmason/Documents/GitHub/riptide_firmware/STM32/gcc-arm-none-eabi-6-2017-q2-up
 1245              		.file 4 "Drivers/CMSIS/Include/core_cm4.h"
 1246              		.file 5 "Drivers/CMSIS/Device/ST/STM32F4xx/Include/system_stm32f4xx.h"
 1247              		.file 6 "Drivers/CMSIS/Device/ST/STM32F4xx/Include/stm32f405xx.h"
 1248              		.file 7 "/Users/augustmason/Documents/GitHub/riptide_firmware/STM32/gcc-arm-none-eabi-6-2017-q2-up
 1249              		.file 8 "/Users/augustmason/Documents/GitHub/riptide_firmware/STM32/gcc-arm-none-eabi-6-2017-q2-up
 1250              		.file 9 "/Users/augustmason/Documents/GitHub/riptide_firmware/STM32/gcc-arm-none-eabi-6-2017-q2-up
 1251              		.file 10 "/Users/augustmason/Documents/GitHub/riptide_firmware/STM32/gcc-arm-none-eabi-6-2017-q2-u
 1252              		.file 11 "Drivers/STM32F4xx_HAL_Driver/Inc/stm32f4xx_hal_def.h"
 1253              		.file 12 "Drivers/STM32F4xx_HAL_Driver/Inc/stm32f4xx_hal_gpio.h"
 1254              		.file 13 "Drivers/STM32F4xx_HAL_Driver/Inc/stm32f4xx_hal_dma.h"
 1255              		.file 14 "Drivers/STM32F4xx_HAL_Driver/Inc/stm32f4xx_hal_adc.h"
 1256              		.file 15 "Drivers/STM32F4xx_HAL_Driver/Inc/stm32f4xx_hal_can.h"
 1257              		.file 16 "Drivers/STM32F4xx_HAL_Driver/Inc/stm32f4xx_hal_i2c.h"
 1258              		.file 17 "Drivers/STM32F4xx_HAL_Driver/Inc/stm32f4xx_hal_rng.h"
 1259              		.file 18 "Drivers/STM32F4xx_HAL_Driver/Inc/stm32f4xx_ll_sdmmc.h"
 1260              		.file 19 "Drivers/STM32F4xx_HAL_Driver/Inc/stm32f4xx_hal_sd.h"
 1261              		.file 20 "Drivers/STM32F4xx_HAL_Driver/Inc/stm32f4xx_hal_tim.h"
 1262              		.file 21 "Drivers/STM32F4xx_HAL_Driver/Inc/stm32f4xx_hal_wwdg.h"
 1263              		.file 22 "Drivers/STM32F4xx_HAL_Driver/Inc/stm32f4xx_hal_cortex.h"
ARM GAS  /var/folders/7p/1_dhylqx7nl5s8914_0f_4w00000gn/T//ccOoAhdp.s 			page 34

