ARM GAS  /var/folders/7p/1_dhylqx7nl5s8914_0f_4w00000gn/T//ccwMce4h.s 			page 1


   1              		.cpu cortex-m4
   2              		.eabi_attribute 27, 1
   3              		.eabi_attribute 28, 1
   4              		.eabi_attribute 20, 1
   5              		.eabi_attribute 21, 1
   6              		.eabi_attribute 23, 3
   7              		.eabi_attribute 24, 1
   8              		.eabi_attribute 25, 1
   9              		.eabi_attribute 26, 1
  10              		.eabi_attribute 30, 1
  11              		.eabi_attribute 34, 1
  12              		.eabi_attribute 18, 4
  13              		.file	"usbd_cdc_if.c"
  14              		.text
  15              	.Ltext0:
  16              		.cfi_sections	.debug_frame
  17              		.section	.text.CDC_DeInit_HS,"ax",%progbits
  18              		.align	1
  19              		.syntax unified
  20              		.thumb
  21              		.thumb_func
  22              		.fpu fpv4-sp-d16
  24              	CDC_DeInit_HS:
  25              	.LFB125:
  26              		.file 1 "Src/usbd_cdc_if.c"
   1:Src/usbd_cdc_if.c **** /**
   2:Src/usbd_cdc_if.c ****   ******************************************************************************
   3:Src/usbd_cdc_if.c ****   * @file           : usbd_cdc_if.c
   4:Src/usbd_cdc_if.c ****   * @brief          :
   5:Src/usbd_cdc_if.c ****   ******************************************************************************
   6:Src/usbd_cdc_if.c ****   * This notice applies to any and all portions of this file
   7:Src/usbd_cdc_if.c ****   * that are not between comment pairs USER CODE BEGIN and
   8:Src/usbd_cdc_if.c ****   * USER CODE END. Other portions of this file, whether 
   9:Src/usbd_cdc_if.c ****   * inserted by the user or by software development tools
  10:Src/usbd_cdc_if.c ****   * are owned by their respective copyright owners.
  11:Src/usbd_cdc_if.c ****   *
  12:Src/usbd_cdc_if.c ****   * Copyright (c) 2017 STMicroelectronics International N.V. 
  13:Src/usbd_cdc_if.c ****   * All rights reserved.
  14:Src/usbd_cdc_if.c ****   *
  15:Src/usbd_cdc_if.c ****   * Redistribution and use in source and binary forms, with or without 
  16:Src/usbd_cdc_if.c ****   * modification, are permitted, provided that the following conditions are met:
  17:Src/usbd_cdc_if.c ****   *
  18:Src/usbd_cdc_if.c ****   * 1. Redistribution of source code must retain the above copyright notice, 
  19:Src/usbd_cdc_if.c ****   *    this list of conditions and the following disclaimer.
  20:Src/usbd_cdc_if.c ****   * 2. Redistributions in binary form must reproduce the above copyright notice,
  21:Src/usbd_cdc_if.c ****   *    this list of conditions and the following disclaimer in the documentation
  22:Src/usbd_cdc_if.c ****   *    and/or other materials provided with the distribution.
  23:Src/usbd_cdc_if.c ****   * 3. Neither the name of STMicroelectronics nor the names of other 
  24:Src/usbd_cdc_if.c ****   *    contributors to this software may be used to endorse or promote products 
  25:Src/usbd_cdc_if.c ****   *    derived from this software without specific written permission.
  26:Src/usbd_cdc_if.c ****   * 4. This software, including modifications and/or derivative works of this 
  27:Src/usbd_cdc_if.c ****   *    software, must execute solely and exclusively on microcontroller or
  28:Src/usbd_cdc_if.c ****   *    microprocessor devices manufactured by or for STMicroelectronics.
  29:Src/usbd_cdc_if.c ****   * 5. Redistribution and use of this software other than as permitted under 
  30:Src/usbd_cdc_if.c ****   *    this license is void and will automatically terminate your rights under 
  31:Src/usbd_cdc_if.c ****   *    this license. 
  32:Src/usbd_cdc_if.c ****   *
ARM GAS  /var/folders/7p/1_dhylqx7nl5s8914_0f_4w00000gn/T//ccwMce4h.s 			page 2


  33:Src/usbd_cdc_if.c ****   * THIS SOFTWARE IS PROVIDED BY STMICROELECTRONICS AND CONTRIBUTORS "AS IS" 
  34:Src/usbd_cdc_if.c ****   * AND ANY EXPRESS, IMPLIED OR STATUTORY WARRANTIES, INCLUDING, BUT NOT 
  35:Src/usbd_cdc_if.c ****   * LIMITED TO, THE IMPLIED WARRANTIES OF MERCHANTABILITY, FITNESS FOR A 
  36:Src/usbd_cdc_if.c ****   * PARTICULAR PURPOSE AND NON-INFRINGEMENT OF THIRD PARTY INTELLECTUAL PROPERTY
  37:Src/usbd_cdc_if.c ****   * RIGHTS ARE DISCLAIMED TO THE FULLEST EXTENT PERMITTED BY LAW. IN NO EVENT 
  38:Src/usbd_cdc_if.c ****   * SHALL STMICROELECTRONICS OR CONTRIBUTORS BE LIABLE FOR ANY DIRECT, INDIRECT,
  39:Src/usbd_cdc_if.c ****   * INCIDENTAL, SPECIAL, EXEMPLARY, OR CONSEQUENTIAL DAMAGES (INCLUDING, BUT NOT
  40:Src/usbd_cdc_if.c ****   * LIMITED TO, PROCUREMENT OF SUBSTITUTE GOODS OR SERVICES; LOSS OF USE, DATA, 
  41:Src/usbd_cdc_if.c ****   * OR PROFITS; OR BUSINESS INTERRUPTION) HOWEVER CAUSED AND ON ANY THEORY OF 
  42:Src/usbd_cdc_if.c ****   * LIABILITY, WHETHER IN CONTRACT, STRICT LIABILITY, OR TORT (INCLUDING 
  43:Src/usbd_cdc_if.c ****   * NEGLIGENCE OR OTHERWISE) ARISING IN ANY WAY OUT OF THE USE OF THIS SOFTWARE,
  44:Src/usbd_cdc_if.c ****   * EVEN IF ADVISED OF THE POSSIBILITY OF SUCH DAMAGE.
  45:Src/usbd_cdc_if.c ****   *
  46:Src/usbd_cdc_if.c ****   ******************************************************************************
  47:Src/usbd_cdc_if.c **** */
  48:Src/usbd_cdc_if.c **** 
  49:Src/usbd_cdc_if.c **** /* Includes ------------------------------------------------------------------*/
  50:Src/usbd_cdc_if.c **** #include "usbd_cdc_if.h"
  51:Src/usbd_cdc_if.c **** /* USER CODE BEGIN INCLUDE */
  52:Src/usbd_cdc_if.c **** /* USER CODE END INCLUDE */
  53:Src/usbd_cdc_if.c **** 
  54:Src/usbd_cdc_if.c **** /** @addtogroup STM32_USB_OTG_DEVICE_LIBRARY
  55:Src/usbd_cdc_if.c ****   * @{
  56:Src/usbd_cdc_if.c ****   */
  57:Src/usbd_cdc_if.c **** 
  58:Src/usbd_cdc_if.c **** /** @defgroup USBD_CDC 
  59:Src/usbd_cdc_if.c ****   * @brief usbd core module
  60:Src/usbd_cdc_if.c ****   * @{
  61:Src/usbd_cdc_if.c ****   */ 
  62:Src/usbd_cdc_if.c **** 
  63:Src/usbd_cdc_if.c **** /** @defgroup USBD_CDC_Private_TypesDefinitions
  64:Src/usbd_cdc_if.c ****   * @{
  65:Src/usbd_cdc_if.c ****   */ 
  66:Src/usbd_cdc_if.c **** /* USER CODE BEGIN PRIVATE_TYPES */
  67:Src/usbd_cdc_if.c **** /* USER CODE END PRIVATE_TYPES */ 
  68:Src/usbd_cdc_if.c **** /**
  69:Src/usbd_cdc_if.c ****   * @}
  70:Src/usbd_cdc_if.c ****   */ 
  71:Src/usbd_cdc_if.c **** 
  72:Src/usbd_cdc_if.c **** /** @defgroup USBD_CDC_Private_Defines
  73:Src/usbd_cdc_if.c ****   * @{
  74:Src/usbd_cdc_if.c ****   */ 
  75:Src/usbd_cdc_if.c **** /* USER CODE BEGIN PRIVATE_DEFINES */
  76:Src/usbd_cdc_if.c **** /* Define size for the receive and transmit buffer over CDC */
  77:Src/usbd_cdc_if.c **** /* It's up to user to redefine and/or remove those define */
  78:Src/usbd_cdc_if.c **** #define APP_RX_DATA_SIZE  4
  79:Src/usbd_cdc_if.c **** #define APP_TX_DATA_SIZE  4
  80:Src/usbd_cdc_if.c **** /* USER CODE END PRIVATE_DEFINES */
  81:Src/usbd_cdc_if.c **** /**
  82:Src/usbd_cdc_if.c ****   * @}
  83:Src/usbd_cdc_if.c ****   */ 
  84:Src/usbd_cdc_if.c **** 
  85:Src/usbd_cdc_if.c **** /** @defgroup USBD_CDC_Private_Macros
  86:Src/usbd_cdc_if.c ****   * @{
  87:Src/usbd_cdc_if.c ****   */ 
  88:Src/usbd_cdc_if.c **** /* USER CODE BEGIN PRIVATE_MACRO */
  89:Src/usbd_cdc_if.c **** /* USER CODE END PRIVATE_MACRO */
ARM GAS  /var/folders/7p/1_dhylqx7nl5s8914_0f_4w00000gn/T//ccwMce4h.s 			page 3


  90:Src/usbd_cdc_if.c **** 
  91:Src/usbd_cdc_if.c **** /**
  92:Src/usbd_cdc_if.c ****   * @}
  93:Src/usbd_cdc_if.c ****   */ 
  94:Src/usbd_cdc_if.c ****   
  95:Src/usbd_cdc_if.c **** /** @defgroup USBD_CDC_Private_Variables
  96:Src/usbd_cdc_if.c ****   * @{
  97:Src/usbd_cdc_if.c ****   */
  98:Src/usbd_cdc_if.c **** 
  99:Src/usbd_cdc_if.c **** /* Create buffer for reception and transmission           */
 100:Src/usbd_cdc_if.c **** /* It's up to user to redefine and/or remove those define */
 101:Src/usbd_cdc_if.c **** /* Received Data over USB are stored in this buffer       */
 102:Src/usbd_cdc_if.c **** uint8_t UserRxBufferHS[APP_RX_DATA_SIZE];
 103:Src/usbd_cdc_if.c **** 
 104:Src/usbd_cdc_if.c **** /* Send Data over USB CDC are stored in this buffer       */
 105:Src/usbd_cdc_if.c **** uint8_t UserTxBufferHS[APP_TX_DATA_SIZE];
 106:Src/usbd_cdc_if.c **** 
 107:Src/usbd_cdc_if.c **** /* USER CODE BEGIN PRIVATE_VARIABLES */
 108:Src/usbd_cdc_if.c **** /* USER CODE END PRIVATE_VARIABLES */
 109:Src/usbd_cdc_if.c **** 
 110:Src/usbd_cdc_if.c **** /**
 111:Src/usbd_cdc_if.c ****   * @}
 112:Src/usbd_cdc_if.c ****   */ 
 113:Src/usbd_cdc_if.c ****   
 114:Src/usbd_cdc_if.c **** /** @defgroup USBD_CDC_IF_Exported_Variables
 115:Src/usbd_cdc_if.c ****   * @{
 116:Src/usbd_cdc_if.c ****   */ 
 117:Src/usbd_cdc_if.c ****   extern USBD_HandleTypeDef hUsbDeviceHS;  
 118:Src/usbd_cdc_if.c **** /* USER CODE BEGIN EXPORTED_VARIABLES */
 119:Src/usbd_cdc_if.c **** /* USER CODE END EXPORTED_VARIABLES */
 120:Src/usbd_cdc_if.c **** 
 121:Src/usbd_cdc_if.c **** /**
 122:Src/usbd_cdc_if.c ****   * @}
 123:Src/usbd_cdc_if.c ****   */ 
 124:Src/usbd_cdc_if.c ****   
 125:Src/usbd_cdc_if.c **** /** @defgroup USBD_CDC_Private_FunctionPrototypes
 126:Src/usbd_cdc_if.c ****   * @{
 127:Src/usbd_cdc_if.c ****   */
 128:Src/usbd_cdc_if.c **** 
 129:Src/usbd_cdc_if.c **** static int8_t CDC_Init_HS     (void);
 130:Src/usbd_cdc_if.c **** static int8_t CDC_DeInit_HS   (void);
 131:Src/usbd_cdc_if.c **** static int8_t CDC_Control_HS  (uint8_t cmd, uint8_t* pbuf, uint16_t length);
 132:Src/usbd_cdc_if.c **** static int8_t CDC_Receive_HS  (uint8_t* pbuf, uint32_t *Len);
 133:Src/usbd_cdc_if.c **** /* USER CODE BEGIN PRIVATE_FUNCTIONS_DECLARATION */
 134:Src/usbd_cdc_if.c **** /* USER CODE END PRIVATE_FUNCTIONS_DECLARATION */
 135:Src/usbd_cdc_if.c **** 
 136:Src/usbd_cdc_if.c **** /**
 137:Src/usbd_cdc_if.c ****   * @}
 138:Src/usbd_cdc_if.c ****   */ 
 139:Src/usbd_cdc_if.c ****   
 140:Src/usbd_cdc_if.c **** 
 141:Src/usbd_cdc_if.c **** USBD_CDC_ItfTypeDef USBD_Interface_fops_HS = 
 142:Src/usbd_cdc_if.c **** {
 143:Src/usbd_cdc_if.c ****   CDC_Init_HS,
 144:Src/usbd_cdc_if.c ****   CDC_DeInit_HS,
 145:Src/usbd_cdc_if.c ****   CDC_Control_HS,  
 146:Src/usbd_cdc_if.c ****   CDC_Receive_HS
ARM GAS  /var/folders/7p/1_dhylqx7nl5s8914_0f_4w00000gn/T//ccwMce4h.s 			page 4


 147:Src/usbd_cdc_if.c **** };
 148:Src/usbd_cdc_if.c **** 
 149:Src/usbd_cdc_if.c **** /* Private functions ---------------------------------------------------------*/
 150:Src/usbd_cdc_if.c **** 
 151:Src/usbd_cdc_if.c **** /**
 152:Src/usbd_cdc_if.c ****   * @brief  CDC_Init_HS
 153:Src/usbd_cdc_if.c ****   *         Initializes the CDC media low layer over the USB HS IP
 154:Src/usbd_cdc_if.c ****   * @param  None
 155:Src/usbd_cdc_if.c ****   * @retval Result of the operation: USBD_OK if all operations are OK else USBD_FAIL
 156:Src/usbd_cdc_if.c ****   */
 157:Src/usbd_cdc_if.c **** static int8_t CDC_Init_HS(void)
 158:Src/usbd_cdc_if.c **** { 
 159:Src/usbd_cdc_if.c ****   /* USER CODE BEGIN 8 */ 
 160:Src/usbd_cdc_if.c ****   /* Set Application Buffers */
 161:Src/usbd_cdc_if.c ****   USBD_CDC_SetTxBuffer(&hUsbDeviceHS, UserTxBufferHS, 0);
 162:Src/usbd_cdc_if.c ****   USBD_CDC_SetRxBuffer(&hUsbDeviceHS, UserRxBufferHS);
 163:Src/usbd_cdc_if.c ****   return (USBD_OK);
 164:Src/usbd_cdc_if.c ****   /* USER CODE END 8 */ 
 165:Src/usbd_cdc_if.c **** }
 166:Src/usbd_cdc_if.c **** 
 167:Src/usbd_cdc_if.c **** /**
 168:Src/usbd_cdc_if.c ****   * @brief  CDC_DeInit_HS
 169:Src/usbd_cdc_if.c ****   *         DeInitializes the CDC media low layer
 170:Src/usbd_cdc_if.c ****   * @param  None
 171:Src/usbd_cdc_if.c ****   * @retval Result of the operation: USBD_OK if all operations are OK else USBD_FAIL
 172:Src/usbd_cdc_if.c ****   */
 173:Src/usbd_cdc_if.c **** static int8_t CDC_DeInit_HS(void)
 174:Src/usbd_cdc_if.c **** {
  27              		.loc 1 174 0
  28              		.cfi_startproc
  29              		@ args = 0, pretend = 0, frame = 0
  30              		@ frame_needed = 0, uses_anonymous_args = 0
  31              		@ link register save eliminated.
 175:Src/usbd_cdc_if.c ****   /* USER CODE BEGIN 9 */ 
 176:Src/usbd_cdc_if.c ****   return (USBD_OK);
 177:Src/usbd_cdc_if.c ****   /* USER CODE END 9 */ 
 178:Src/usbd_cdc_if.c **** }
  32              		.loc 1 178 0
  33 0000 0020     		movs	r0, #0
  34 0002 7047     		bx	lr
  35              		.cfi_endproc
  36              	.LFE125:
  38              		.section	.text.CDC_Control_HS,"ax",%progbits
  39              		.align	1
  40              		.syntax unified
  41              		.thumb
  42              		.thumb_func
  43              		.fpu fpv4-sp-d16
  45              	CDC_Control_HS:
  46              	.LFB126:
 179:Src/usbd_cdc_if.c **** 
 180:Src/usbd_cdc_if.c **** /**
 181:Src/usbd_cdc_if.c ****   * @brief  CDC_Control_HS
 182:Src/usbd_cdc_if.c ****   *         Manage the CDC class requests
 183:Src/usbd_cdc_if.c ****   * @param  cmd: Command code            
 184:Src/usbd_cdc_if.c ****   * @param  pbuf: Buffer containing command data (request parameters)
 185:Src/usbd_cdc_if.c ****   * @param  length: Number of data to be sent (in bytes)
ARM GAS  /var/folders/7p/1_dhylqx7nl5s8914_0f_4w00000gn/T//ccwMce4h.s 			page 5


 186:Src/usbd_cdc_if.c ****   * @retval Result of the operation: USBD_OK if all operations are OK else USBD_FAIL
 187:Src/usbd_cdc_if.c ****   */
 188:Src/usbd_cdc_if.c **** static int8_t CDC_Control_HS  (uint8_t cmd, uint8_t* pbuf, uint16_t length)
 189:Src/usbd_cdc_if.c **** { 
  47              		.loc 1 189 0
  48              		.cfi_startproc
  49              		@ args = 0, pretend = 0, frame = 0
  50              		@ frame_needed = 0, uses_anonymous_args = 0
  51              		@ link register save eliminated.
  52              	.LVL0:
 190:Src/usbd_cdc_if.c ****   /* USER CODE BEGIN 10 */
 191:Src/usbd_cdc_if.c ****   switch (cmd)
 192:Src/usbd_cdc_if.c ****   {
 193:Src/usbd_cdc_if.c ****   case CDC_SEND_ENCAPSULATED_COMMAND:
 194:Src/usbd_cdc_if.c ****  
 195:Src/usbd_cdc_if.c ****     break;
 196:Src/usbd_cdc_if.c **** 
 197:Src/usbd_cdc_if.c ****   case CDC_GET_ENCAPSULATED_RESPONSE:
 198:Src/usbd_cdc_if.c ****  
 199:Src/usbd_cdc_if.c ****     break;
 200:Src/usbd_cdc_if.c **** 
 201:Src/usbd_cdc_if.c ****   case CDC_SET_COMM_FEATURE:
 202:Src/usbd_cdc_if.c ****  
 203:Src/usbd_cdc_if.c ****     break;
 204:Src/usbd_cdc_if.c **** 
 205:Src/usbd_cdc_if.c ****   case CDC_GET_COMM_FEATURE:
 206:Src/usbd_cdc_if.c **** 
 207:Src/usbd_cdc_if.c ****     break;
 208:Src/usbd_cdc_if.c **** 
 209:Src/usbd_cdc_if.c ****   case CDC_CLEAR_COMM_FEATURE:
 210:Src/usbd_cdc_if.c **** 
 211:Src/usbd_cdc_if.c ****     break;
 212:Src/usbd_cdc_if.c **** 
 213:Src/usbd_cdc_if.c ****   /*******************************************************************************/
 214:Src/usbd_cdc_if.c ****   /* Line Coding Structure                                                       */
 215:Src/usbd_cdc_if.c ****   /*-----------------------------------------------------------------------------*/
 216:Src/usbd_cdc_if.c ****   /* Offset | Field       | Size | Value  | Description                          */
 217:Src/usbd_cdc_if.c ****   /* 0      | dwDTERate   |   4  | Number |Data terminal rate, in bits per second*/
 218:Src/usbd_cdc_if.c ****   /* 4      | bCharFormat |   1  | Number | Stop bits                            */
 219:Src/usbd_cdc_if.c ****   /*                                        0 - 1 Stop bit                       */
 220:Src/usbd_cdc_if.c ****   /*                                        1 - 1.5 Stop bits                    */
 221:Src/usbd_cdc_if.c ****   /*                                        2 - 2 Stop bits                      */
 222:Src/usbd_cdc_if.c ****   /* 5      | bParityType |  1   | Number | Parity                               */
 223:Src/usbd_cdc_if.c ****   /*                                        0 - None                             */
 224:Src/usbd_cdc_if.c ****   /*                                        1 - Odd                              */ 
 225:Src/usbd_cdc_if.c ****   /*                                        2 - Even                             */
 226:Src/usbd_cdc_if.c ****   /*                                        3 - Mark                             */
 227:Src/usbd_cdc_if.c ****   /*                                        4 - Space                            */
 228:Src/usbd_cdc_if.c ****   /* 6      | bDataBits  |   1   | Number Data bits (5, 6, 7, 8 or 16).          */
 229:Src/usbd_cdc_if.c ****   /*******************************************************************************/
 230:Src/usbd_cdc_if.c ****   case CDC_SET_LINE_CODING:   
 231:Src/usbd_cdc_if.c **** 	
 232:Src/usbd_cdc_if.c ****     break;
 233:Src/usbd_cdc_if.c **** 
 234:Src/usbd_cdc_if.c ****   case CDC_GET_LINE_CODING:     
 235:Src/usbd_cdc_if.c **** 
 236:Src/usbd_cdc_if.c ****     break;
ARM GAS  /var/folders/7p/1_dhylqx7nl5s8914_0f_4w00000gn/T//ccwMce4h.s 			page 6


 237:Src/usbd_cdc_if.c **** 
 238:Src/usbd_cdc_if.c ****   case CDC_SET_CONTROL_LINE_STATE:
 239:Src/usbd_cdc_if.c **** 
 240:Src/usbd_cdc_if.c ****     break;
 241:Src/usbd_cdc_if.c **** 
 242:Src/usbd_cdc_if.c ****   case CDC_SEND_BREAK:
 243:Src/usbd_cdc_if.c ****  
 244:Src/usbd_cdc_if.c ****     break;    
 245:Src/usbd_cdc_if.c ****     
 246:Src/usbd_cdc_if.c ****   default:
 247:Src/usbd_cdc_if.c ****     break;
 248:Src/usbd_cdc_if.c ****   }
 249:Src/usbd_cdc_if.c **** 
 250:Src/usbd_cdc_if.c ****   return (USBD_OK);
 251:Src/usbd_cdc_if.c ****   /* USER CODE END 10 */
 252:Src/usbd_cdc_if.c **** }
  53              		.loc 1 252 0
  54 0000 0020     		movs	r0, #0
  55              	.LVL1:
  56 0002 7047     		bx	lr
  57              		.cfi_endproc
  58              	.LFE126:
  60              		.section	.text.CDC_Receive_HS,"ax",%progbits
  61              		.align	1
  62              		.syntax unified
  63              		.thumb
  64              		.thumb_func
  65              		.fpu fpv4-sp-d16
  67              	CDC_Receive_HS:
  68              	.LFB127:
 253:Src/usbd_cdc_if.c **** 
 254:Src/usbd_cdc_if.c **** /**
 255:Src/usbd_cdc_if.c ****   * @brief  CDC_Receive_HS
 256:Src/usbd_cdc_if.c ****   *         Data received over USB OUT endpoint are sent over CDC interface 
 257:Src/usbd_cdc_if.c ****   *         through this function.
 258:Src/usbd_cdc_if.c ****   *           
 259:Src/usbd_cdc_if.c ****   *         @note
 260:Src/usbd_cdc_if.c ****   *         This function will block any OUT packet reception on USB endpoint 
 261:Src/usbd_cdc_if.c ****   *         untill exiting this function. If you exit this function before transfer
 262:Src/usbd_cdc_if.c ****   *         is complete on CDC interface (ie. using DMA controller) it will result 
 263:Src/usbd_cdc_if.c ****   *         in receiving more data while previous ones are still not sent.
 264:Src/usbd_cdc_if.c ****   *                 
 265:Src/usbd_cdc_if.c ****   * @param  Buf: Buffer of data to be received
 266:Src/usbd_cdc_if.c ****   * @param  Len: Number of data received (in bytes)
 267:Src/usbd_cdc_if.c ****   * @retval Result of the operation: USBD_OK if all operations are OK else USBD_FAIL
 268:Src/usbd_cdc_if.c ****   */
 269:Src/usbd_cdc_if.c **** static int8_t CDC_Receive_HS (uint8_t* Buf, uint32_t *Len)
 270:Src/usbd_cdc_if.c **** {
  69              		.loc 1 270 0
  70              		.cfi_startproc
  71              		@ args = 0, pretend = 0, frame = 0
  72              		@ frame_needed = 0, uses_anonymous_args = 0
  73              	.LVL2:
  74 0000 10B5     		push	{r4, lr}
  75              	.LCFI0:
  76              		.cfi_def_cfa_offset 8
  77              		.cfi_offset 4, -8
ARM GAS  /var/folders/7p/1_dhylqx7nl5s8914_0f_4w00000gn/T//ccwMce4h.s 			page 7


  78              		.cfi_offset 14, -4
 271:Src/usbd_cdc_if.c ****   /* USER CODE BEGIN 11 */ 
 272:Src/usbd_cdc_if.c ****   USBD_CDC_SetRxBuffer(&hUsbDeviceHS, &Buf[0]);
  79              		.loc 1 272 0
  80 0002 054C     		ldr	r4, .L5
  81 0004 0146     		mov	r1, r0
  82              	.LVL3:
  83 0006 2046     		mov	r0, r4
  84              	.LVL4:
  85 0008 FFF7FEFF 		bl	USBD_CDC_SetRxBuffer
  86              	.LVL5:
 273:Src/usbd_cdc_if.c ****   USBD_CDC_ReceivePacket(&hUsbDeviceHS);
  87              		.loc 1 273 0
  88 000c 2046     		mov	r0, r4
  89 000e FFF7FEFF 		bl	USBD_CDC_ReceivePacket
  90              	.LVL6:
 274:Src/usbd_cdc_if.c ****   return (USBD_OK);
 275:Src/usbd_cdc_if.c ****   /* USER CODE END 11 */ 
 276:Src/usbd_cdc_if.c **** }
  91              		.loc 1 276 0
  92 0012 0020     		movs	r0, #0
  93 0014 10BD     		pop	{r4, pc}
  94              	.L6:
  95 0016 00BF     		.align	2
  96              	.L5:
  97 0018 00000000 		.word	hUsbDeviceHS
  98              		.cfi_endproc
  99              	.LFE127:
 101              		.section	.text.CDC_Init_HS,"ax",%progbits
 102              		.align	1
 103              		.syntax unified
 104              		.thumb
 105              		.thumb_func
 106              		.fpu fpv4-sp-d16
 108              	CDC_Init_HS:
 109              	.LFB124:
 158:Src/usbd_cdc_if.c ****   /* USER CODE BEGIN 8 */ 
 110              		.loc 1 158 0
 111              		.cfi_startproc
 112              		@ args = 0, pretend = 0, frame = 0
 113              		@ frame_needed = 0, uses_anonymous_args = 0
 114 0000 10B5     		push	{r4, lr}
 115              	.LCFI1:
 116              		.cfi_def_cfa_offset 8
 117              		.cfi_offset 4, -8
 118              		.cfi_offset 14, -4
 161:Src/usbd_cdc_if.c ****   USBD_CDC_SetRxBuffer(&hUsbDeviceHS, UserRxBufferHS);
 119              		.loc 1 161 0
 120 0002 064C     		ldr	r4, .L9
 121 0004 0022     		movs	r2, #0
 122 0006 0649     		ldr	r1, .L9+4
 123 0008 2046     		mov	r0, r4
 124 000a FFF7FEFF 		bl	USBD_CDC_SetTxBuffer
 125              	.LVL7:
 162:Src/usbd_cdc_if.c ****   return (USBD_OK);
 126              		.loc 1 162 0
 127 000e 0549     		ldr	r1, .L9+8
ARM GAS  /var/folders/7p/1_dhylqx7nl5s8914_0f_4w00000gn/T//ccwMce4h.s 			page 8


 128 0010 2046     		mov	r0, r4
 129 0012 FFF7FEFF 		bl	USBD_CDC_SetRxBuffer
 130              	.LVL8:
 165:Src/usbd_cdc_if.c **** 
 131              		.loc 1 165 0
 132 0016 0020     		movs	r0, #0
 133 0018 10BD     		pop	{r4, pc}
 134              	.L10:
 135 001a 00BF     		.align	2
 136              	.L9:
 137 001c 00000000 		.word	hUsbDeviceHS
 138 0020 00000000 		.word	UserTxBufferHS
 139 0024 00000000 		.word	UserRxBufferHS
 140              		.cfi_endproc
 141              	.LFE124:
 143              		.section	.text.CDC_Transmit_HS,"ax",%progbits
 144              		.align	1
 145              		.global	CDC_Transmit_HS
 146              		.syntax unified
 147              		.thumb
 148              		.thumb_func
 149              		.fpu fpv4-sp-d16
 151              	CDC_Transmit_HS:
 152              	.LFB128:
 277:Src/usbd_cdc_if.c **** /**
 278:Src/usbd_cdc_if.c ****   * @brief  CDC_Transmit_HS
 279:Src/usbd_cdc_if.c ****   *         Data send over USB IN endpoint are sent over CDC interface 
 280:Src/usbd_cdc_if.c ****   *         through this function.           
 281:Src/usbd_cdc_if.c ****   *         @note
 282:Src/usbd_cdc_if.c ****   *         
 283:Src/usbd_cdc_if.c ****   *                 
 284:Src/usbd_cdc_if.c ****   * @param  Buf: Buffer of data to be send
 285:Src/usbd_cdc_if.c ****   * @param  Len: Number of data to be send (in bytes)
 286:Src/usbd_cdc_if.c ****   * @retval Result of the operation: USBD_OK if all operations are OK else USBD_FAIL or USBD_BUSY
 287:Src/usbd_cdc_if.c ****   */
 288:Src/usbd_cdc_if.c **** uint8_t CDC_Transmit_HS(uint8_t* Buf, uint16_t Len)
 289:Src/usbd_cdc_if.c **** {
 153              		.loc 1 289 0
 154              		.cfi_startproc
 155              		@ args = 0, pretend = 0, frame = 0
 156              		@ frame_needed = 0, uses_anonymous_args = 0
 157              	.LVL9:
 290:Src/usbd_cdc_if.c ****   uint8_t result = USBD_OK;
 291:Src/usbd_cdc_if.c ****   /* USER CODE BEGIN 12 */ 
 292:Src/usbd_cdc_if.c ****   USBD_CDC_HandleTypeDef *hcdc = (USBD_CDC_HandleTypeDef*)hUsbDeviceHS.pClassData;
 158              		.loc 1 292 0
 159 0000 094B     		ldr	r3, .L19
 160 0002 D3F81832 		ldr	r3, [r3, #536]
 161              	.LVL10:
 293:Src/usbd_cdc_if.c ****   if (hcdc->TxState != 0){
 162              		.loc 1 293 0
 163 0006 D3F81432 		ldr	r3, [r3, #532]
 164              	.LVL11:
 165 000a 0BB1     		cbz	r3, .L18
 294:Src/usbd_cdc_if.c ****     return USBD_BUSY;
 166              		.loc 1 294 0
 167 000c 0120     		movs	r0, #1
ARM GAS  /var/folders/7p/1_dhylqx7nl5s8914_0f_4w00000gn/T//ccwMce4h.s 			page 9


 168              	.LVL12:
 169 000e 7047     		bx	lr
 170              	.LVL13:
 171              	.L18:
 289:Src/usbd_cdc_if.c ****   uint8_t result = USBD_OK;
 172              		.loc 1 289 0
 173 0010 10B5     		push	{r4, lr}
 174              	.LCFI2:
 175              		.cfi_def_cfa_offset 8
 176              		.cfi_offset 4, -8
 177              		.cfi_offset 14, -4
 178 0012 0A46     		mov	r2, r1
 179 0014 0146     		mov	r1, r0
 180              	.LVL14:
 295:Src/usbd_cdc_if.c ****   }
 296:Src/usbd_cdc_if.c ****   USBD_CDC_SetTxBuffer(&hUsbDeviceHS, Buf, Len);
 181              		.loc 1 296 0
 182 0016 044C     		ldr	r4, .L19
 183              	.LVL15:
 184 0018 2046     		mov	r0, r4
 185              	.LVL16:
 186 001a FFF7FEFF 		bl	USBD_CDC_SetTxBuffer
 187              	.LVL17:
 297:Src/usbd_cdc_if.c ****   result = USBD_CDC_TransmitPacket(&hUsbDeviceHS);
 188              		.loc 1 297 0
 189 001e 2046     		mov	r0, r4
 190 0020 FFF7FEFF 		bl	USBD_CDC_TransmitPacket
 191              	.LVL18:
 298:Src/usbd_cdc_if.c ****   /* USER CODE END 12 */ 
 299:Src/usbd_cdc_if.c ****   return result;
 192              		.loc 1 299 0
 193 0024 10BD     		pop	{r4, pc}
 194              	.L20:
 195 0026 00BF     		.align	2
 196              	.L19:
 197 0028 00000000 		.word	hUsbDeviceHS
 198              		.cfi_endproc
 199              	.LFE128:
 201              		.global	USBD_Interface_fops_HS
 202              		.comm	UserTxBufferHS,4,4
 203              		.comm	UserRxBufferHS,4,4
 204              		.section	.data.USBD_Interface_fops_HS,"aw",%progbits
 205              		.align	2
 208              	USBD_Interface_fops_HS:
 209 0000 00000000 		.word	CDC_Init_HS
 210 0004 00000000 		.word	CDC_DeInit_HS
 211 0008 00000000 		.word	CDC_Control_HS
 212 000c 00000000 		.word	CDC_Receive_HS
 213              		.text
 214              	.Letext0:
 215              		.file 2 "/Users/augustmason/Documents/STMTest/gcc-arm-none-eabi-6-2017-q2-update/arm-none-eabi/inc
 216              		.file 3 "/Users/augustmason/Documents/STMTest/gcc-arm-none-eabi-6-2017-q2-update/arm-none-eabi/inc
 217              		.file 4 "/Users/augustmason/Documents/STMTest/gcc-arm-none-eabi-6-2017-q2-update/arm-none-eabi/inc
 218              		.file 5 "/Users/augustmason/Documents/STMTest/gcc-arm-none-eabi-6-2017-q2-update/lib/gcc/arm-none-
 219              		.file 6 "/Users/augustmason/Documents/STMTest/gcc-arm-none-eabi-6-2017-q2-update/arm-none-eabi/inc
 220              		.file 7 "/Users/augustmason/Documents/STMTest/gcc-arm-none-eabi-6-2017-q2-update/arm-none-eabi/inc
 221              		.file 8 "/Users/augustmason/Documents/STMTest/gcc-arm-none-eabi-6-2017-q2-update/arm-none-eabi/inc
ARM GAS  /var/folders/7p/1_dhylqx7nl5s8914_0f_4w00000gn/T//ccwMce4h.s 			page 10


 222              		.file 9 "Drivers/CMSIS/Include/core_cm4.h"
 223              		.file 10 "Drivers/CMSIS/Device/ST/STM32F4xx/Include/system_stm32f4xx.h"
 224              		.file 11 "Middlewares/ST/STM32_USB_Device_Library/Core/Inc/usbd_def.h"
 225              		.file 12 "Middlewares/ST/STM32_USB_Device_Library/Class/CDC/Inc/usbd_cdc.h"
 226              		.file 13 "Inc/usbd_cdc_if.h"
ARM GAS  /var/folders/7p/1_dhylqx7nl5s8914_0f_4w00000gn/T//ccwMce4h.s 			page 11

