ARM GAS  /var/folders/7p/1_dhylqx7nl5s8914_0f_4w00000gn/T//cc6PFu3c.s 			page 1


   1              		.cpu cortex-m4
   2              		.eabi_attribute 27, 1
   3              		.eabi_attribute 28, 1
   4              		.eabi_attribute 20, 1
   5              		.eabi_attribute 21, 1
   6              		.eabi_attribute 23, 3
   7              		.eabi_attribute 24, 1
   8              		.eabi_attribute 25, 1
   9              		.eabi_attribute 26, 1
  10              		.eabi_attribute 30, 1
  11              		.eabi_attribute 34, 1
  12              		.eabi_attribute 18, 4
  13              		.file	"stm32f4xx_hal_msp.c"
  14              		.text
  15              	.Ltext0:
  16              		.cfi_sections	.debug_frame
  17              		.section	.text.HAL_MspInit,"ax",%progbits
  18              		.align	1
  19              		.global	HAL_MspInit
  20              		.syntax unified
  21              		.thumb
  22              		.thumb_func
  23              		.fpu fpv4-sp-d16
  25              	HAL_MspInit:
  26              	.LFB124:
  27              		.file 1 "Src/stm32f4xx_hal_msp.c"
   1:Src/stm32f4xx_hal_msp.c **** /**
   2:Src/stm32f4xx_hal_msp.c ****   ******************************************************************************
   3:Src/stm32f4xx_hal_msp.c ****   * File Name          : stm32f4xx_hal_msp.c
   4:Src/stm32f4xx_hal_msp.c ****   * Description        : This file provides code for the MSP Initialization 
   5:Src/stm32f4xx_hal_msp.c ****   *                      and de-Initialization codes.
   6:Src/stm32f4xx_hal_msp.c ****   ******************************************************************************
   7:Src/stm32f4xx_hal_msp.c ****   * This notice applies to any and all portions of this file
   8:Src/stm32f4xx_hal_msp.c ****   * that are not between comment pairs USER CODE BEGIN and
   9:Src/stm32f4xx_hal_msp.c ****   * USER CODE END. Other portions of this file, whether 
  10:Src/stm32f4xx_hal_msp.c ****   * inserted by the user or by software development tools
  11:Src/stm32f4xx_hal_msp.c ****   * are owned by their respective copyright owners.
  12:Src/stm32f4xx_hal_msp.c ****   *
  13:Src/stm32f4xx_hal_msp.c ****   * Copyright (c) 2018 STMicroelectronics International N.V. 
  14:Src/stm32f4xx_hal_msp.c ****   * All rights reserved.
  15:Src/stm32f4xx_hal_msp.c ****   *
  16:Src/stm32f4xx_hal_msp.c ****   * Redistribution and use in source and binary forms, with or without 
  17:Src/stm32f4xx_hal_msp.c ****   * modification, are permitted, provided that the following conditions are met:
  18:Src/stm32f4xx_hal_msp.c ****   *
  19:Src/stm32f4xx_hal_msp.c ****   * 1. Redistribution of source code must retain the above copyright notice, 
  20:Src/stm32f4xx_hal_msp.c ****   *    this list of conditions and the following disclaimer.
  21:Src/stm32f4xx_hal_msp.c ****   * 2. Redistributions in binary form must reproduce the above copyright notice,
  22:Src/stm32f4xx_hal_msp.c ****   *    this list of conditions and the following disclaimer in the documentation
  23:Src/stm32f4xx_hal_msp.c ****   *    and/or other materials provided with the distribution.
  24:Src/stm32f4xx_hal_msp.c ****   * 3. Neither the name of STMicroelectronics nor the names of other 
  25:Src/stm32f4xx_hal_msp.c ****   *    contributors to this software may be used to endorse or promote products 
  26:Src/stm32f4xx_hal_msp.c ****   *    derived from this software without specific written permission.
  27:Src/stm32f4xx_hal_msp.c ****   * 4. This software, including modifications and/or derivative works of this 
  28:Src/stm32f4xx_hal_msp.c ****   *    software, must execute solely and exclusively on microcontroller or
  29:Src/stm32f4xx_hal_msp.c ****   *    microprocessor devices manufactured by or for STMicroelectronics.
  30:Src/stm32f4xx_hal_msp.c ****   * 5. Redistribution and use of this software other than as permitted under 
  31:Src/stm32f4xx_hal_msp.c ****   *    this license is void and will automatically terminate your rights under 
ARM GAS  /var/folders/7p/1_dhylqx7nl5s8914_0f_4w00000gn/T//cc6PFu3c.s 			page 2


  32:Src/stm32f4xx_hal_msp.c ****   *    this license. 
  33:Src/stm32f4xx_hal_msp.c ****   *
  34:Src/stm32f4xx_hal_msp.c ****   * THIS SOFTWARE IS PROVIDED BY STMICROELECTRONICS AND CONTRIBUTORS "AS IS" 
  35:Src/stm32f4xx_hal_msp.c ****   * AND ANY EXPRESS, IMPLIED OR STATUTORY WARRANTIES, INCLUDING, BUT NOT 
  36:Src/stm32f4xx_hal_msp.c ****   * LIMITED TO, THE IMPLIED WARRANTIES OF MERCHANTABILITY, FITNESS FOR A 
  37:Src/stm32f4xx_hal_msp.c ****   * PARTICULAR PURPOSE AND NON-INFRINGEMENT OF THIRD PARTY INTELLECTUAL PROPERTY
  38:Src/stm32f4xx_hal_msp.c ****   * RIGHTS ARE DISCLAIMED TO THE FULLEST EXTENT PERMITTED BY LAW. IN NO EVENT 
  39:Src/stm32f4xx_hal_msp.c ****   * SHALL STMICROELECTRONICS OR CONTRIBUTORS BE LIABLE FOR ANY DIRECT, INDIRECT,
  40:Src/stm32f4xx_hal_msp.c ****   * INCIDENTAL, SPECIAL, EXEMPLARY, OR CONSEQUENTIAL DAMAGES (INCLUDING, BUT NOT
  41:Src/stm32f4xx_hal_msp.c ****   * LIMITED TO, PROCUREMENT OF SUBSTITUTE GOODS OR SERVICES; LOSS OF USE, DATA, 
  42:Src/stm32f4xx_hal_msp.c ****   * OR PROFITS; OR BUSINESS INTERRUPTION) HOWEVER CAUSED AND ON ANY THEORY OF 
  43:Src/stm32f4xx_hal_msp.c ****   * LIABILITY, WHETHER IN CONTRACT, STRICT LIABILITY, OR TORT (INCLUDING 
  44:Src/stm32f4xx_hal_msp.c ****   * NEGLIGENCE OR OTHERWISE) ARISING IN ANY WAY OUT OF THE USE OF THIS SOFTWARE,
  45:Src/stm32f4xx_hal_msp.c ****   * EVEN IF ADVISED OF THE POSSIBILITY OF SUCH DAMAGE.
  46:Src/stm32f4xx_hal_msp.c ****   *
  47:Src/stm32f4xx_hal_msp.c ****   ******************************************************************************
  48:Src/stm32f4xx_hal_msp.c ****   */
  49:Src/stm32f4xx_hal_msp.c **** /* Includes ------------------------------------------------------------------*/
  50:Src/stm32f4xx_hal_msp.c **** #include "stm32f4xx_hal.h"
  51:Src/stm32f4xx_hal_msp.c **** 
  52:Src/stm32f4xx_hal_msp.c **** extern void _Error_Handler(char *, int);
  53:Src/stm32f4xx_hal_msp.c **** /* USER CODE BEGIN 0 */
  54:Src/stm32f4xx_hal_msp.c **** 
  55:Src/stm32f4xx_hal_msp.c **** /* USER CODE END 0 */
  56:Src/stm32f4xx_hal_msp.c **** /**
  57:Src/stm32f4xx_hal_msp.c ****   * Initializes the Global MSP.
  58:Src/stm32f4xx_hal_msp.c ****   */
  59:Src/stm32f4xx_hal_msp.c **** void HAL_MspInit(void)
  60:Src/stm32f4xx_hal_msp.c **** {
  28              		.loc 1 60 0
  29              		.cfi_startproc
  30              		@ args = 0, pretend = 0, frame = 0
  31              		@ frame_needed = 0, uses_anonymous_args = 0
  32 0000 08B5     		push	{r3, lr}
  33              	.LCFI0:
  34              		.cfi_def_cfa_offset 8
  35              		.cfi_offset 3, -8
  36              		.cfi_offset 14, -4
  61:Src/stm32f4xx_hal_msp.c ****   /* USER CODE BEGIN MspInit 0 */
  62:Src/stm32f4xx_hal_msp.c **** 
  63:Src/stm32f4xx_hal_msp.c ****   /* USER CODE END MspInit 0 */
  64:Src/stm32f4xx_hal_msp.c **** 
  65:Src/stm32f4xx_hal_msp.c ****   HAL_NVIC_SetPriorityGrouping(NVIC_PRIORITYGROUP_4);
  37              		.loc 1 65 0
  38 0002 0320     		movs	r0, #3
  39 0004 FFF7FEFF 		bl	HAL_NVIC_SetPriorityGrouping
  40              	.LVL0:
  66:Src/stm32f4xx_hal_msp.c **** 
  67:Src/stm32f4xx_hal_msp.c ****   /* System interrupt init*/
  68:Src/stm32f4xx_hal_msp.c ****   /* MemoryManagement_IRQn interrupt configuration */
  69:Src/stm32f4xx_hal_msp.c ****   HAL_NVIC_SetPriority(MemoryManagement_IRQn, 0, 0);
  41              		.loc 1 69 0
  42 0008 0022     		movs	r2, #0
  43 000a 1146     		mov	r1, r2
  44 000c 6FF00B00 		mvn	r0, #11
  45 0010 FFF7FEFF 		bl	HAL_NVIC_SetPriority
  46              	.LVL1:
ARM GAS  /var/folders/7p/1_dhylqx7nl5s8914_0f_4w00000gn/T//cc6PFu3c.s 			page 3


  70:Src/stm32f4xx_hal_msp.c ****   /* BusFault_IRQn interrupt configuration */
  71:Src/stm32f4xx_hal_msp.c ****   HAL_NVIC_SetPriority(BusFault_IRQn, 0, 0);
  47              		.loc 1 71 0
  48 0014 0022     		movs	r2, #0
  49 0016 1146     		mov	r1, r2
  50 0018 6FF00A00 		mvn	r0, #10
  51 001c FFF7FEFF 		bl	HAL_NVIC_SetPriority
  52              	.LVL2:
  72:Src/stm32f4xx_hal_msp.c ****   /* UsageFault_IRQn interrupt configuration */
  73:Src/stm32f4xx_hal_msp.c ****   HAL_NVIC_SetPriority(UsageFault_IRQn, 0, 0);
  53              		.loc 1 73 0
  54 0020 0022     		movs	r2, #0
  55 0022 1146     		mov	r1, r2
  56 0024 6FF00900 		mvn	r0, #9
  57 0028 FFF7FEFF 		bl	HAL_NVIC_SetPriority
  58              	.LVL3:
  74:Src/stm32f4xx_hal_msp.c ****   /* SVCall_IRQn interrupt configuration */
  75:Src/stm32f4xx_hal_msp.c ****   HAL_NVIC_SetPriority(SVCall_IRQn, 0, 0);
  59              		.loc 1 75 0
  60 002c 0022     		movs	r2, #0
  61 002e 1146     		mov	r1, r2
  62 0030 6FF00400 		mvn	r0, #4
  63 0034 FFF7FEFF 		bl	HAL_NVIC_SetPriority
  64              	.LVL4:
  76:Src/stm32f4xx_hal_msp.c ****   /* DebugMonitor_IRQn interrupt configuration */
  77:Src/stm32f4xx_hal_msp.c ****   HAL_NVIC_SetPriority(DebugMonitor_IRQn, 0, 0);
  65              		.loc 1 77 0
  66 0038 0022     		movs	r2, #0
  67 003a 1146     		mov	r1, r2
  68 003c 6FF00300 		mvn	r0, #3
  69 0040 FFF7FEFF 		bl	HAL_NVIC_SetPriority
  70              	.LVL5:
  78:Src/stm32f4xx_hal_msp.c ****   /* PendSV_IRQn interrupt configuration */
  79:Src/stm32f4xx_hal_msp.c ****   HAL_NVIC_SetPriority(PendSV_IRQn, 15, 0);
  71              		.loc 1 79 0
  72 0044 0022     		movs	r2, #0
  73 0046 0F21     		movs	r1, #15
  74 0048 6FF00100 		mvn	r0, #1
  75 004c FFF7FEFF 		bl	HAL_NVIC_SetPriority
  76              	.LVL6:
  80:Src/stm32f4xx_hal_msp.c ****   /* SysTick_IRQn interrupt configuration */
  81:Src/stm32f4xx_hal_msp.c ****   HAL_NVIC_SetPriority(SysTick_IRQn, 15, 0);
  77              		.loc 1 81 0
  78 0050 0022     		movs	r2, #0
  79 0052 0F21     		movs	r1, #15
  80 0054 4FF0FF30 		mov	r0, #-1
  81 0058 FFF7FEFF 		bl	HAL_NVIC_SetPriority
  82              	.LVL7:
  83 005c 08BD     		pop	{r3, pc}
  84              		.cfi_endproc
  85              	.LFE124:
  87              		.section	.text.HAL_CAN_MspInit,"ax",%progbits
  88              		.align	1
  89              		.global	HAL_CAN_MspInit
  90              		.syntax unified
  91              		.thumb
  92              		.thumb_func
ARM GAS  /var/folders/7p/1_dhylqx7nl5s8914_0f_4w00000gn/T//cc6PFu3c.s 			page 4


  93              		.fpu fpv4-sp-d16
  95              	HAL_CAN_MspInit:
  96              	.LFB125:
  82:Src/stm32f4xx_hal_msp.c **** 
  83:Src/stm32f4xx_hal_msp.c ****   /* USER CODE BEGIN MspInit 1 */
  84:Src/stm32f4xx_hal_msp.c **** 
  85:Src/stm32f4xx_hal_msp.c ****   /* USER CODE END MspInit 1 */
  86:Src/stm32f4xx_hal_msp.c **** }
  87:Src/stm32f4xx_hal_msp.c **** 
  88:Src/stm32f4xx_hal_msp.c **** void HAL_CAN_MspInit(CAN_HandleTypeDef* hcan)
  89:Src/stm32f4xx_hal_msp.c **** {
  97              		.loc 1 89 0
  98              		.cfi_startproc
  99              		@ args = 0, pretend = 0, frame = 24
 100              		@ frame_needed = 0, uses_anonymous_args = 0
 101              	.LVL8:
  90:Src/stm32f4xx_hal_msp.c **** 
  91:Src/stm32f4xx_hal_msp.c ****   GPIO_InitTypeDef GPIO_InitStruct;
  92:Src/stm32f4xx_hal_msp.c ****   if(hcan->Instance==CAN1)
 102              		.loc 1 92 0
 103 0000 0268     		ldr	r2, [r0]
 104 0002 124B     		ldr	r3, .L10
 105 0004 9A42     		cmp	r2, r3
 106 0006 00D0     		beq	.L9
 107 0008 7047     		bx	lr
 108              	.L9:
  89:Src/stm32f4xx_hal_msp.c **** 
 109              		.loc 1 89 0
 110 000a 00B5     		push	{lr}
 111              	.LCFI1:
 112              		.cfi_def_cfa_offset 4
 113              		.cfi_offset 14, -4
 114 000c 87B0     		sub	sp, sp, #28
 115              	.LCFI2:
 116              		.cfi_def_cfa_offset 32
 117              	.LBB2:
  93:Src/stm32f4xx_hal_msp.c ****   {
  94:Src/stm32f4xx_hal_msp.c ****   /* USER CODE BEGIN CAN1_MspInit 0 */
  95:Src/stm32f4xx_hal_msp.c **** 
  96:Src/stm32f4xx_hal_msp.c ****   /* USER CODE END CAN1_MspInit 0 */
  97:Src/stm32f4xx_hal_msp.c ****     /* Peripheral clock enable */
  98:Src/stm32f4xx_hal_msp.c ****     __HAL_RCC_CAN1_CLK_ENABLE();
 118              		.loc 1 98 0
 119 000e 0021     		movs	r1, #0
 120 0010 0091     		str	r1, [sp]
 121 0012 03F5EA33 		add	r3, r3, #119808
 122 0016 1A6C     		ldr	r2, [r3, #64]
 123 0018 42F00072 		orr	r2, r2, #33554432
 124 001c 1A64     		str	r2, [r3, #64]
 125 001e 1B6C     		ldr	r3, [r3, #64]
 126 0020 03F00073 		and	r3, r3, #33554432
 127 0024 0093     		str	r3, [sp]
 128 0026 009B     		ldr	r3, [sp]
 129              	.LBE2:
  99:Src/stm32f4xx_hal_msp.c ****   
 100:Src/stm32f4xx_hal_msp.c ****     /**CAN1 GPIO Configuration    
 101:Src/stm32f4xx_hal_msp.c ****     PA11     ------> CAN1_RX
ARM GAS  /var/folders/7p/1_dhylqx7nl5s8914_0f_4w00000gn/T//cc6PFu3c.s 			page 5


 102:Src/stm32f4xx_hal_msp.c ****     PA12     ------> CAN1_TX 
 103:Src/stm32f4xx_hal_msp.c ****     */
 104:Src/stm32f4xx_hal_msp.c ****     GPIO_InitStruct.Pin = CanRX_Bkpln_Pin|CanTX_Bkpln_Pin;
 130              		.loc 1 104 0
 131 0028 4FF4C053 		mov	r3, #6144
 132 002c 0193     		str	r3, [sp, #4]
 105:Src/stm32f4xx_hal_msp.c ****     GPIO_InitStruct.Mode = GPIO_MODE_AF_PP;
 133              		.loc 1 105 0
 134 002e 0223     		movs	r3, #2
 135 0030 0293     		str	r3, [sp, #8]
 106:Src/stm32f4xx_hal_msp.c ****     GPIO_InitStruct.Pull = GPIO_NOPULL;
 136              		.loc 1 106 0
 137 0032 0391     		str	r1, [sp, #12]
 107:Src/stm32f4xx_hal_msp.c ****     GPIO_InitStruct.Speed = GPIO_SPEED_FREQ_VERY_HIGH;
 138              		.loc 1 107 0
 139 0034 0323     		movs	r3, #3
 140 0036 0493     		str	r3, [sp, #16]
 108:Src/stm32f4xx_hal_msp.c ****     GPIO_InitStruct.Alternate = GPIO_AF9_CAN1;
 141              		.loc 1 108 0
 142 0038 0923     		movs	r3, #9
 143 003a 0593     		str	r3, [sp, #20]
 109:Src/stm32f4xx_hal_msp.c ****     HAL_GPIO_Init(GPIOA, &GPIO_InitStruct);
 144              		.loc 1 109 0
 145 003c 01A9     		add	r1, sp, #4
 146 003e 0448     		ldr	r0, .L10+4
 147              	.LVL9:
 148 0040 FFF7FEFF 		bl	HAL_GPIO_Init
 149              	.LVL10:
 110:Src/stm32f4xx_hal_msp.c **** 
 111:Src/stm32f4xx_hal_msp.c ****   /* USER CODE BEGIN CAN1_MspInit 1 */
 112:Src/stm32f4xx_hal_msp.c **** 
 113:Src/stm32f4xx_hal_msp.c ****   /* USER CODE END CAN1_MspInit 1 */
 114:Src/stm32f4xx_hal_msp.c ****   }
 115:Src/stm32f4xx_hal_msp.c **** 
 116:Src/stm32f4xx_hal_msp.c **** }
 150              		.loc 1 116 0
 151 0044 07B0     		add	sp, sp, #28
 152              	.LCFI3:
 153              		.cfi_def_cfa_offset 4
 154              		@ sp needed
 155 0046 5DF804FB 		ldr	pc, [sp], #4
 156              	.L11:
 157 004a 00BF     		.align	2
 158              	.L10:
 159 004c 00640040 		.word	1073767424
 160 0050 00000240 		.word	1073872896
 161              		.cfi_endproc
 162              	.LFE125:
 164              		.section	.text.HAL_CAN_MspDeInit,"ax",%progbits
 165              		.align	1
 166              		.global	HAL_CAN_MspDeInit
 167              		.syntax unified
 168              		.thumb
 169              		.thumb_func
 170              		.fpu fpv4-sp-d16
 172              	HAL_CAN_MspDeInit:
 173              	.LFB126:
ARM GAS  /var/folders/7p/1_dhylqx7nl5s8914_0f_4w00000gn/T//cc6PFu3c.s 			page 6


 117:Src/stm32f4xx_hal_msp.c **** 
 118:Src/stm32f4xx_hal_msp.c **** void HAL_CAN_MspDeInit(CAN_HandleTypeDef* hcan)
 119:Src/stm32f4xx_hal_msp.c **** {
 174              		.loc 1 119 0
 175              		.cfi_startproc
 176              		@ args = 0, pretend = 0, frame = 0
 177              		@ frame_needed = 0, uses_anonymous_args = 0
 178              	.LVL11:
 179 0000 08B5     		push	{r3, lr}
 180              	.LCFI4:
 181              		.cfi_def_cfa_offset 8
 182              		.cfi_offset 3, -8
 183              		.cfi_offset 14, -4
 120:Src/stm32f4xx_hal_msp.c **** 
 121:Src/stm32f4xx_hal_msp.c ****   if(hcan->Instance==CAN1)
 184              		.loc 1 121 0
 185 0002 0268     		ldr	r2, [r0]
 186 0004 074B     		ldr	r3, .L16
 187 0006 9A42     		cmp	r2, r3
 188 0008 00D0     		beq	.L15
 189              	.LVL12:
 190              	.L12:
 191 000a 08BD     		pop	{r3, pc}
 192              	.LVL13:
 193              	.L15:
 122:Src/stm32f4xx_hal_msp.c ****   {
 123:Src/stm32f4xx_hal_msp.c ****   /* USER CODE BEGIN CAN1_MspDeInit 0 */
 124:Src/stm32f4xx_hal_msp.c **** 
 125:Src/stm32f4xx_hal_msp.c ****   /* USER CODE END CAN1_MspDeInit 0 */
 126:Src/stm32f4xx_hal_msp.c ****     /* Peripheral clock disable */
 127:Src/stm32f4xx_hal_msp.c ****     __HAL_RCC_CAN1_CLK_DISABLE();
 194              		.loc 1 127 0
 195 000c 064A     		ldr	r2, .L16+4
 196 000e 136C     		ldr	r3, [r2, #64]
 197 0010 23F00073 		bic	r3, r3, #33554432
 198 0014 1364     		str	r3, [r2, #64]
 128:Src/stm32f4xx_hal_msp.c ****   
 129:Src/stm32f4xx_hal_msp.c ****     /**CAN1 GPIO Configuration    
 130:Src/stm32f4xx_hal_msp.c ****     PA11     ------> CAN1_RX
 131:Src/stm32f4xx_hal_msp.c ****     PA12     ------> CAN1_TX 
 132:Src/stm32f4xx_hal_msp.c ****     */
 133:Src/stm32f4xx_hal_msp.c ****     HAL_GPIO_DeInit(GPIOA, CanRX_Bkpln_Pin|CanTX_Bkpln_Pin);
 199              		.loc 1 133 0
 200 0016 4FF4C051 		mov	r1, #6144
 201 001a 0448     		ldr	r0, .L16+8
 202              	.LVL14:
 203 001c FFF7FEFF 		bl	HAL_GPIO_DeInit
 204              	.LVL15:
 134:Src/stm32f4xx_hal_msp.c **** 
 135:Src/stm32f4xx_hal_msp.c ****   /* USER CODE BEGIN CAN1_MspDeInit 1 */
 136:Src/stm32f4xx_hal_msp.c **** 
 137:Src/stm32f4xx_hal_msp.c ****   /* USER CODE END CAN1_MspDeInit 1 */
 138:Src/stm32f4xx_hal_msp.c ****   }
 139:Src/stm32f4xx_hal_msp.c **** 
 140:Src/stm32f4xx_hal_msp.c **** }
 205              		.loc 1 140 0
 206 0020 F3E7     		b	.L12
ARM GAS  /var/folders/7p/1_dhylqx7nl5s8914_0f_4w00000gn/T//cc6PFu3c.s 			page 7


 207              	.L17:
 208 0022 00BF     		.align	2
 209              	.L16:
 210 0024 00640040 		.word	1073767424
 211 0028 00380240 		.word	1073887232
 212 002c 00000240 		.word	1073872896
 213              		.cfi_endproc
 214              	.LFE126:
 216              		.section	.text.HAL_I2C_MspInit,"ax",%progbits
 217              		.align	1
 218              		.global	HAL_I2C_MspInit
 219              		.syntax unified
 220              		.thumb
 221              		.thumb_func
 222              		.fpu fpv4-sp-d16
 224              	HAL_I2C_MspInit:
 225              	.LFB127:
 141:Src/stm32f4xx_hal_msp.c **** 
 142:Src/stm32f4xx_hal_msp.c **** void HAL_I2C_MspInit(I2C_HandleTypeDef* hi2c)
 143:Src/stm32f4xx_hal_msp.c **** {
 226              		.loc 1 143 0
 227              		.cfi_startproc
 228              		@ args = 0, pretend = 0, frame = 32
 229              		@ frame_needed = 0, uses_anonymous_args = 0
 230              	.LVL16:
 231 0000 F0B5     		push	{r4, r5, r6, r7, lr}
 232              	.LCFI5:
 233              		.cfi_def_cfa_offset 20
 234              		.cfi_offset 4, -20
 235              		.cfi_offset 5, -16
 236              		.cfi_offset 6, -12
 237              		.cfi_offset 7, -8
 238              		.cfi_offset 14, -4
 239 0002 89B0     		sub	sp, sp, #36
 240              	.LCFI6:
 241              		.cfi_def_cfa_offset 56
 144:Src/stm32f4xx_hal_msp.c **** 
 145:Src/stm32f4xx_hal_msp.c ****   GPIO_InitTypeDef GPIO_InitStruct;
 146:Src/stm32f4xx_hal_msp.c ****   if(hi2c->Instance==I2C1)
 242              		.loc 1 146 0
 243 0004 0368     		ldr	r3, [r0]
 244 0006 254A     		ldr	r2, .L24
 245 0008 9342     		cmp	r3, r2
 246 000a 04D0     		beq	.L22
 147:Src/stm32f4xx_hal_msp.c ****   {
 148:Src/stm32f4xx_hal_msp.c ****   /* USER CODE BEGIN I2C1_MspInit 0 */
 149:Src/stm32f4xx_hal_msp.c **** 
 150:Src/stm32f4xx_hal_msp.c ****   /* USER CODE END I2C1_MspInit 0 */
 151:Src/stm32f4xx_hal_msp.c ****   
 152:Src/stm32f4xx_hal_msp.c ****     /**I2C1 GPIO Configuration    
 153:Src/stm32f4xx_hal_msp.c ****     PB6     ------> I2C1_SCL
 154:Src/stm32f4xx_hal_msp.c ****     PB7     ------> I2C1_SDA 
 155:Src/stm32f4xx_hal_msp.c ****     */
 156:Src/stm32f4xx_hal_msp.c ****     GPIO_InitStruct.Pin = SCL_Depth_Pin|SDA_Depth_Pin;
 157:Src/stm32f4xx_hal_msp.c ****     GPIO_InitStruct.Mode = GPIO_MODE_AF_OD;
 158:Src/stm32f4xx_hal_msp.c ****     GPIO_InitStruct.Pull = GPIO_PULLUP;
 159:Src/stm32f4xx_hal_msp.c ****     GPIO_InitStruct.Speed = GPIO_SPEED_FREQ_VERY_HIGH;
ARM GAS  /var/folders/7p/1_dhylqx7nl5s8914_0f_4w00000gn/T//cc6PFu3c.s 			page 8


 160:Src/stm32f4xx_hal_msp.c ****     GPIO_InitStruct.Alternate = GPIO_AF4_I2C1;
 161:Src/stm32f4xx_hal_msp.c ****     HAL_GPIO_Init(GPIOB, &GPIO_InitStruct);
 162:Src/stm32f4xx_hal_msp.c **** 
 163:Src/stm32f4xx_hal_msp.c ****     /* Peripheral clock enable */
 164:Src/stm32f4xx_hal_msp.c ****     __HAL_RCC_I2C1_CLK_ENABLE();
 165:Src/stm32f4xx_hal_msp.c ****   /* USER CODE BEGIN I2C1_MspInit 1 */
 166:Src/stm32f4xx_hal_msp.c **** 
 167:Src/stm32f4xx_hal_msp.c ****   /* USER CODE END I2C1_MspInit 1 */
 168:Src/stm32f4xx_hal_msp.c ****   }
 169:Src/stm32f4xx_hal_msp.c ****   else if(hi2c->Instance==I2C3)
 247              		.loc 1 169 0
 248 000c 244A     		ldr	r2, .L24+4
 249 000e 9342     		cmp	r3, r2
 250 0010 1CD0     		beq	.L23
 251              	.LVL17:
 252              	.L18:
 170:Src/stm32f4xx_hal_msp.c ****   {
 171:Src/stm32f4xx_hal_msp.c ****   /* USER CODE BEGIN I2C3_MspInit 0 */
 172:Src/stm32f4xx_hal_msp.c **** 
 173:Src/stm32f4xx_hal_msp.c ****   /* USER CODE END I2C3_MspInit 0 */
 174:Src/stm32f4xx_hal_msp.c ****   
 175:Src/stm32f4xx_hal_msp.c ****     /**I2C3 GPIO Configuration    
 176:Src/stm32f4xx_hal_msp.c ****     PC9     ------> I2C3_SDA
 177:Src/stm32f4xx_hal_msp.c ****     PA8     ------> I2C3_SCL 
 178:Src/stm32f4xx_hal_msp.c ****     */
 179:Src/stm32f4xx_hal_msp.c ****     GPIO_InitStruct.Pin = SDA_Bkpln_Pin;
 180:Src/stm32f4xx_hal_msp.c ****     GPIO_InitStruct.Mode = GPIO_MODE_AF_OD;
 181:Src/stm32f4xx_hal_msp.c ****     GPIO_InitStruct.Pull = GPIO_PULLUP;
 182:Src/stm32f4xx_hal_msp.c ****     GPIO_InitStruct.Speed = GPIO_SPEED_FREQ_VERY_HIGH;
 183:Src/stm32f4xx_hal_msp.c ****     GPIO_InitStruct.Alternate = GPIO_AF4_I2C3;
 184:Src/stm32f4xx_hal_msp.c ****     HAL_GPIO_Init(SDA_Bkpln_GPIO_Port, &GPIO_InitStruct);
 185:Src/stm32f4xx_hal_msp.c **** 
 186:Src/stm32f4xx_hal_msp.c ****     GPIO_InitStruct.Pin = SCL_Bkpln_Pin;
 187:Src/stm32f4xx_hal_msp.c ****     GPIO_InitStruct.Mode = GPIO_MODE_AF_OD;
 188:Src/stm32f4xx_hal_msp.c ****     GPIO_InitStruct.Pull = GPIO_PULLUP;
 189:Src/stm32f4xx_hal_msp.c ****     GPIO_InitStruct.Speed = GPIO_SPEED_FREQ_VERY_HIGH;
 190:Src/stm32f4xx_hal_msp.c ****     GPIO_InitStruct.Alternate = GPIO_AF4_I2C3;
 191:Src/stm32f4xx_hal_msp.c ****     HAL_GPIO_Init(SCL_Bkpln_GPIO_Port, &GPIO_InitStruct);
 192:Src/stm32f4xx_hal_msp.c **** 
 193:Src/stm32f4xx_hal_msp.c ****     /* Peripheral clock enable */
 194:Src/stm32f4xx_hal_msp.c ****     __HAL_RCC_I2C3_CLK_ENABLE();
 195:Src/stm32f4xx_hal_msp.c ****   /* USER CODE BEGIN I2C3_MspInit 1 */
 196:Src/stm32f4xx_hal_msp.c **** 
 197:Src/stm32f4xx_hal_msp.c ****   /* USER CODE END I2C3_MspInit 1 */
 198:Src/stm32f4xx_hal_msp.c ****   }
 199:Src/stm32f4xx_hal_msp.c **** 
 200:Src/stm32f4xx_hal_msp.c **** }
 253              		.loc 1 200 0
 254 0012 09B0     		add	sp, sp, #36
 255              	.LCFI7:
 256              		.cfi_remember_state
 257              		.cfi_def_cfa_offset 20
 258              		@ sp needed
 259 0014 F0BD     		pop	{r4, r5, r6, r7, pc}
 260              	.LVL18:
 261              	.L22:
 262              	.LCFI8:
ARM GAS  /var/folders/7p/1_dhylqx7nl5s8914_0f_4w00000gn/T//cc6PFu3c.s 			page 9


 263              		.cfi_restore_state
 156:Src/stm32f4xx_hal_msp.c ****     GPIO_InitStruct.Mode = GPIO_MODE_AF_OD;
 264              		.loc 1 156 0
 265 0016 C023     		movs	r3, #192
 266 0018 0393     		str	r3, [sp, #12]
 157:Src/stm32f4xx_hal_msp.c ****     GPIO_InitStruct.Pull = GPIO_PULLUP;
 267              		.loc 1 157 0
 268 001a 1223     		movs	r3, #18
 269 001c 0493     		str	r3, [sp, #16]
 158:Src/stm32f4xx_hal_msp.c ****     GPIO_InitStruct.Speed = GPIO_SPEED_FREQ_VERY_HIGH;
 270              		.loc 1 158 0
 271 001e 0123     		movs	r3, #1
 272 0020 0593     		str	r3, [sp, #20]
 159:Src/stm32f4xx_hal_msp.c ****     GPIO_InitStruct.Alternate = GPIO_AF4_I2C1;
 273              		.loc 1 159 0
 274 0022 0323     		movs	r3, #3
 275 0024 0693     		str	r3, [sp, #24]
 160:Src/stm32f4xx_hal_msp.c ****     HAL_GPIO_Init(GPIOB, &GPIO_InitStruct);
 276              		.loc 1 160 0
 277 0026 0423     		movs	r3, #4
 278 0028 0793     		str	r3, [sp, #28]
 161:Src/stm32f4xx_hal_msp.c **** 
 279              		.loc 1 161 0
 280 002a 03A9     		add	r1, sp, #12
 281 002c 1D48     		ldr	r0, .L24+8
 282              	.LVL19:
 283 002e FFF7FEFF 		bl	HAL_GPIO_Init
 284              	.LVL20:
 285              	.LBB3:
 164:Src/stm32f4xx_hal_msp.c ****   /* USER CODE BEGIN I2C1_MspInit 1 */
 286              		.loc 1 164 0
 287 0032 0023     		movs	r3, #0
 288 0034 0193     		str	r3, [sp, #4]
 289 0036 1C4B     		ldr	r3, .L24+12
 290 0038 1A6C     		ldr	r2, [r3, #64]
 291 003a 42F40012 		orr	r2, r2, #2097152
 292 003e 1A64     		str	r2, [r3, #64]
 293 0040 1B6C     		ldr	r3, [r3, #64]
 294 0042 03F40013 		and	r3, r3, #2097152
 295 0046 0193     		str	r3, [sp, #4]
 296 0048 019B     		ldr	r3, [sp, #4]
 297              	.LBE3:
 298 004a E2E7     		b	.L18
 299              	.LVL21:
 300              	.L23:
 179:Src/stm32f4xx_hal_msp.c ****     GPIO_InitStruct.Mode = GPIO_MODE_AF_OD;
 301              		.loc 1 179 0
 302 004c 4FF40073 		mov	r3, #512
 303 0050 0393     		str	r3, [sp, #12]
 180:Src/stm32f4xx_hal_msp.c ****     GPIO_InitStruct.Pull = GPIO_PULLUP;
 304              		.loc 1 180 0
 305 0052 1227     		movs	r7, #18
 306 0054 0497     		str	r7, [sp, #16]
 181:Src/stm32f4xx_hal_msp.c ****     GPIO_InitStruct.Speed = GPIO_SPEED_FREQ_VERY_HIGH;
 307              		.loc 1 181 0
 308 0056 0126     		movs	r6, #1
 309 0058 0596     		str	r6, [sp, #20]
ARM GAS  /var/folders/7p/1_dhylqx7nl5s8914_0f_4w00000gn/T//cc6PFu3c.s 			page 10


 182:Src/stm32f4xx_hal_msp.c ****     GPIO_InitStruct.Alternate = GPIO_AF4_I2C3;
 310              		.loc 1 182 0
 311 005a 0325     		movs	r5, #3
 312 005c 0695     		str	r5, [sp, #24]
 183:Src/stm32f4xx_hal_msp.c ****     HAL_GPIO_Init(SDA_Bkpln_GPIO_Port, &GPIO_InitStruct);
 313              		.loc 1 183 0
 314 005e 0424     		movs	r4, #4
 315 0060 0794     		str	r4, [sp, #28]
 184:Src/stm32f4xx_hal_msp.c **** 
 316              		.loc 1 184 0
 317 0062 03A9     		add	r1, sp, #12
 318 0064 1148     		ldr	r0, .L24+16
 319              	.LVL22:
 320 0066 FFF7FEFF 		bl	HAL_GPIO_Init
 321              	.LVL23:
 186:Src/stm32f4xx_hal_msp.c ****     GPIO_InitStruct.Mode = GPIO_MODE_AF_OD;
 322              		.loc 1 186 0
 323 006a 4FF48073 		mov	r3, #256
 324 006e 0393     		str	r3, [sp, #12]
 187:Src/stm32f4xx_hal_msp.c ****     GPIO_InitStruct.Pull = GPIO_PULLUP;
 325              		.loc 1 187 0
 326 0070 0497     		str	r7, [sp, #16]
 188:Src/stm32f4xx_hal_msp.c ****     GPIO_InitStruct.Speed = GPIO_SPEED_FREQ_VERY_HIGH;
 327              		.loc 1 188 0
 328 0072 0596     		str	r6, [sp, #20]
 189:Src/stm32f4xx_hal_msp.c ****     GPIO_InitStruct.Alternate = GPIO_AF4_I2C3;
 329              		.loc 1 189 0
 330 0074 0695     		str	r5, [sp, #24]
 190:Src/stm32f4xx_hal_msp.c ****     HAL_GPIO_Init(SCL_Bkpln_GPIO_Port, &GPIO_InitStruct);
 331              		.loc 1 190 0
 332 0076 0794     		str	r4, [sp, #28]
 191:Src/stm32f4xx_hal_msp.c **** 
 333              		.loc 1 191 0
 334 0078 03A9     		add	r1, sp, #12
 335 007a 0D48     		ldr	r0, .L24+20
 336 007c FFF7FEFF 		bl	HAL_GPIO_Init
 337              	.LVL24:
 338              	.LBB4:
 194:Src/stm32f4xx_hal_msp.c ****   /* USER CODE BEGIN I2C3_MspInit 1 */
 339              		.loc 1 194 0
 340 0080 0023     		movs	r3, #0
 341 0082 0293     		str	r3, [sp, #8]
 342 0084 084B     		ldr	r3, .L24+12
 343 0086 1A6C     		ldr	r2, [r3, #64]
 344 0088 42F40002 		orr	r2, r2, #8388608
 345 008c 1A64     		str	r2, [r3, #64]
 346 008e 1B6C     		ldr	r3, [r3, #64]
 347 0090 03F40003 		and	r3, r3, #8388608
 348 0094 0293     		str	r3, [sp, #8]
 349 0096 029B     		ldr	r3, [sp, #8]
 350              	.LBE4:
 351              		.loc 1 200 0
 352 0098 BBE7     		b	.L18
 353              	.L25:
 354 009a 00BF     		.align	2
 355              	.L24:
 356 009c 00540040 		.word	1073763328
ARM GAS  /var/folders/7p/1_dhylqx7nl5s8914_0f_4w00000gn/T//cc6PFu3c.s 			page 11


 357 00a0 005C0040 		.word	1073765376
 358 00a4 00040240 		.word	1073873920
 359 00a8 00380240 		.word	1073887232
 360 00ac 00080240 		.word	1073874944
 361 00b0 00000240 		.word	1073872896
 362              		.cfi_endproc
 363              	.LFE127:
 365              		.section	.text.HAL_I2C_MspDeInit,"ax",%progbits
 366              		.align	1
 367              		.global	HAL_I2C_MspDeInit
 368              		.syntax unified
 369              		.thumb
 370              		.thumb_func
 371              		.fpu fpv4-sp-d16
 373              	HAL_I2C_MspDeInit:
 374              	.LFB128:
 201:Src/stm32f4xx_hal_msp.c **** 
 202:Src/stm32f4xx_hal_msp.c **** void HAL_I2C_MspDeInit(I2C_HandleTypeDef* hi2c)
 203:Src/stm32f4xx_hal_msp.c **** {
 375              		.loc 1 203 0
 376              		.cfi_startproc
 377              		@ args = 0, pretend = 0, frame = 0
 378              		@ frame_needed = 0, uses_anonymous_args = 0
 379              	.LVL25:
 380 0000 08B5     		push	{r3, lr}
 381              	.LCFI9:
 382              		.cfi_def_cfa_offset 8
 383              		.cfi_offset 3, -8
 384              		.cfi_offset 14, -4
 204:Src/stm32f4xx_hal_msp.c **** 
 205:Src/stm32f4xx_hal_msp.c ****   if(hi2c->Instance==I2C1)
 385              		.loc 1 205 0
 386 0002 0368     		ldr	r3, [r0]
 387 0004 114A     		ldr	r2, .L32
 388 0006 9342     		cmp	r3, r2
 389 0008 03D0     		beq	.L30
 206:Src/stm32f4xx_hal_msp.c ****   {
 207:Src/stm32f4xx_hal_msp.c ****   /* USER CODE BEGIN I2C1_MspDeInit 0 */
 208:Src/stm32f4xx_hal_msp.c **** 
 209:Src/stm32f4xx_hal_msp.c ****   /* USER CODE END I2C1_MspDeInit 0 */
 210:Src/stm32f4xx_hal_msp.c ****     /* Peripheral clock disable */
 211:Src/stm32f4xx_hal_msp.c ****     __HAL_RCC_I2C1_CLK_DISABLE();
 212:Src/stm32f4xx_hal_msp.c ****   
 213:Src/stm32f4xx_hal_msp.c ****     /**I2C1 GPIO Configuration    
 214:Src/stm32f4xx_hal_msp.c ****     PB6     ------> I2C1_SCL
 215:Src/stm32f4xx_hal_msp.c ****     PB7     ------> I2C1_SDA 
 216:Src/stm32f4xx_hal_msp.c ****     */
 217:Src/stm32f4xx_hal_msp.c ****     HAL_GPIO_DeInit(GPIOB, SCL_Depth_Pin|SDA_Depth_Pin);
 218:Src/stm32f4xx_hal_msp.c **** 
 219:Src/stm32f4xx_hal_msp.c ****   /* USER CODE BEGIN I2C1_MspDeInit 1 */
 220:Src/stm32f4xx_hal_msp.c **** 
 221:Src/stm32f4xx_hal_msp.c ****   /* USER CODE END I2C1_MspDeInit 1 */
 222:Src/stm32f4xx_hal_msp.c ****   }
 223:Src/stm32f4xx_hal_msp.c ****   else if(hi2c->Instance==I2C3)
 390              		.loc 1 223 0
 391 000a 114A     		ldr	r2, .L32+4
 392 000c 9342     		cmp	r3, r2
ARM GAS  /var/folders/7p/1_dhylqx7nl5s8914_0f_4w00000gn/T//cc6PFu3c.s 			page 12


 393 000e 0BD0     		beq	.L31
 394              	.LVL26:
 395              	.L26:
 396 0010 08BD     		pop	{r3, pc}
 397              	.LVL27:
 398              	.L30:
 211:Src/stm32f4xx_hal_msp.c ****   
 399              		.loc 1 211 0
 400 0012 02F5F232 		add	r2, r2, #123904
 401 0016 136C     		ldr	r3, [r2, #64]
 402 0018 23F40013 		bic	r3, r3, #2097152
 403 001c 1364     		str	r3, [r2, #64]
 217:Src/stm32f4xx_hal_msp.c **** 
 404              		.loc 1 217 0
 405 001e C021     		movs	r1, #192
 406 0020 0C48     		ldr	r0, .L32+8
 407              	.LVL28:
 408 0022 FFF7FEFF 		bl	HAL_GPIO_DeInit
 409              	.LVL29:
 410 0026 08BD     		pop	{r3, pc}
 411              	.LVL30:
 412              	.L31:
 224:Src/stm32f4xx_hal_msp.c ****   {
 225:Src/stm32f4xx_hal_msp.c ****   /* USER CODE BEGIN I2C3_MspDeInit 0 */
 226:Src/stm32f4xx_hal_msp.c **** 
 227:Src/stm32f4xx_hal_msp.c ****   /* USER CODE END I2C3_MspDeInit 0 */
 228:Src/stm32f4xx_hal_msp.c ****     /* Peripheral clock disable */
 229:Src/stm32f4xx_hal_msp.c ****     __HAL_RCC_I2C3_CLK_DISABLE();
 413              		.loc 1 229 0
 414 0028 02F5EE32 		add	r2, r2, #121856
 415 002c 136C     		ldr	r3, [r2, #64]
 416 002e 23F40003 		bic	r3, r3, #8388608
 417 0032 1364     		str	r3, [r2, #64]
 230:Src/stm32f4xx_hal_msp.c ****   
 231:Src/stm32f4xx_hal_msp.c ****     /**I2C3 GPIO Configuration    
 232:Src/stm32f4xx_hal_msp.c ****     PC9     ------> I2C3_SDA
 233:Src/stm32f4xx_hal_msp.c ****     PA8     ------> I2C3_SCL 
 234:Src/stm32f4xx_hal_msp.c ****     */
 235:Src/stm32f4xx_hal_msp.c ****     HAL_GPIO_DeInit(SDA_Bkpln_GPIO_Port, SDA_Bkpln_Pin);
 418              		.loc 1 235 0
 419 0034 4FF40071 		mov	r1, #512
 420 0038 0748     		ldr	r0, .L32+12
 421              	.LVL31:
 422 003a FFF7FEFF 		bl	HAL_GPIO_DeInit
 423              	.LVL32:
 236:Src/stm32f4xx_hal_msp.c **** 
 237:Src/stm32f4xx_hal_msp.c ****     HAL_GPIO_DeInit(SCL_Bkpln_GPIO_Port, SCL_Bkpln_Pin);
 424              		.loc 1 237 0
 425 003e 4FF48071 		mov	r1, #256
 426 0042 0648     		ldr	r0, .L32+16
 427 0044 FFF7FEFF 		bl	HAL_GPIO_DeInit
 428              	.LVL33:
 238:Src/stm32f4xx_hal_msp.c **** 
 239:Src/stm32f4xx_hal_msp.c ****   /* USER CODE BEGIN I2C3_MspDeInit 1 */
 240:Src/stm32f4xx_hal_msp.c **** 
 241:Src/stm32f4xx_hal_msp.c ****   /* USER CODE END I2C3_MspDeInit 1 */
 242:Src/stm32f4xx_hal_msp.c ****   }
ARM GAS  /var/folders/7p/1_dhylqx7nl5s8914_0f_4w00000gn/T//cc6PFu3c.s 			page 13


 243:Src/stm32f4xx_hal_msp.c **** 
 244:Src/stm32f4xx_hal_msp.c **** }
 429              		.loc 1 244 0
 430 0048 E2E7     		b	.L26
 431              	.L33:
 432 004a 00BF     		.align	2
 433              	.L32:
 434 004c 00540040 		.word	1073763328
 435 0050 005C0040 		.word	1073765376
 436 0054 00040240 		.word	1073873920
 437 0058 00080240 		.word	1073874944
 438 005c 00000240 		.word	1073872896
 439              		.cfi_endproc
 440              	.LFE128:
 442              		.section	.text.HAL_SD_MspInit,"ax",%progbits
 443              		.align	1
 444              		.global	HAL_SD_MspInit
 445              		.syntax unified
 446              		.thumb
 447              		.thumb_func
 448              		.fpu fpv4-sp-d16
 450              	HAL_SD_MspInit:
 451              	.LFB129:
 245:Src/stm32f4xx_hal_msp.c **** 
 246:Src/stm32f4xx_hal_msp.c **** void HAL_SD_MspInit(SD_HandleTypeDef* hsd)
 247:Src/stm32f4xx_hal_msp.c **** {
 452              		.loc 1 247 0
 453              		.cfi_startproc
 454              		@ args = 0, pretend = 0, frame = 24
 455              		@ frame_needed = 0, uses_anonymous_args = 0
 456              	.LVL34:
 248:Src/stm32f4xx_hal_msp.c **** 
 249:Src/stm32f4xx_hal_msp.c ****   GPIO_InitTypeDef GPIO_InitStruct;
 250:Src/stm32f4xx_hal_msp.c ****   if(hsd->Instance==SDIO)
 457              		.loc 1 250 0
 458 0000 0268     		ldr	r2, [r0]
 459 0002 174B     		ldr	r3, .L41
 460 0004 9A42     		cmp	r2, r3
 461 0006 00D0     		beq	.L40
 462 0008 7047     		bx	lr
 463              	.L40:
 247:Src/stm32f4xx_hal_msp.c **** 
 464              		.loc 1 247 0
 465 000a F0B5     		push	{r4, r5, r6, r7, lr}
 466              	.LCFI10:
 467              		.cfi_def_cfa_offset 20
 468              		.cfi_offset 4, -20
 469              		.cfi_offset 5, -16
 470              		.cfi_offset 6, -12
 471              		.cfi_offset 7, -8
 472              		.cfi_offset 14, -4
 473 000c 87B0     		sub	sp, sp, #28
 474              	.LCFI11:
 475              		.cfi_def_cfa_offset 48
 476              	.LBB5:
 251:Src/stm32f4xx_hal_msp.c ****   {
 252:Src/stm32f4xx_hal_msp.c ****   /* USER CODE BEGIN SDIO_MspInit 0 */
ARM GAS  /var/folders/7p/1_dhylqx7nl5s8914_0f_4w00000gn/T//cc6PFu3c.s 			page 14


 253:Src/stm32f4xx_hal_msp.c **** 
 254:Src/stm32f4xx_hal_msp.c ****   /* USER CODE END SDIO_MspInit 0 */
 255:Src/stm32f4xx_hal_msp.c ****     /* Peripheral clock enable */
 256:Src/stm32f4xx_hal_msp.c ****     __HAL_RCC_SDIO_CLK_ENABLE();
 477              		.loc 1 256 0
 478 000e 0024     		movs	r4, #0
 479 0010 0094     		str	r4, [sp]
 480 0012 03F58633 		add	r3, r3, #68608
 481 0016 5A6C     		ldr	r2, [r3, #68]
 482 0018 42F40062 		orr	r2, r2, #2048
 483 001c 5A64     		str	r2, [r3, #68]
 484 001e 5B6C     		ldr	r3, [r3, #68]
 485 0020 03F40063 		and	r3, r3, #2048
 486 0024 0093     		str	r3, [sp]
 487 0026 009B     		ldr	r3, [sp]
 488              	.LBE5:
 257:Src/stm32f4xx_hal_msp.c ****   
 258:Src/stm32f4xx_hal_msp.c ****     /**SDIO GPIO Configuration    
 259:Src/stm32f4xx_hal_msp.c ****     PC8     ------> SDIO_D0
 260:Src/stm32f4xx_hal_msp.c ****     PC12     ------> SDIO_CK
 261:Src/stm32f4xx_hal_msp.c ****     PD2     ------> SDIO_CMD 
 262:Src/stm32f4xx_hal_msp.c ****     */
 263:Src/stm32f4xx_hal_msp.c ****     GPIO_InitStruct.Pin = GPIO_PIN_8|GPIO_PIN_12;
 489              		.loc 1 263 0
 490 0028 4FF48853 		mov	r3, #4352
 491 002c 0193     		str	r3, [sp, #4]
 264:Src/stm32f4xx_hal_msp.c ****     GPIO_InitStruct.Mode = GPIO_MODE_AF_PP;
 492              		.loc 1 264 0
 493 002e 0227     		movs	r7, #2
 494 0030 0297     		str	r7, [sp, #8]
 265:Src/stm32f4xx_hal_msp.c ****     GPIO_InitStruct.Pull = GPIO_NOPULL;
 495              		.loc 1 265 0
 496 0032 0394     		str	r4, [sp, #12]
 266:Src/stm32f4xx_hal_msp.c ****     GPIO_InitStruct.Speed = GPIO_SPEED_FREQ_VERY_HIGH;
 497              		.loc 1 266 0
 498 0034 0326     		movs	r6, #3
 499 0036 0496     		str	r6, [sp, #16]
 267:Src/stm32f4xx_hal_msp.c ****     GPIO_InitStruct.Alternate = GPIO_AF12_SDIO;
 500              		.loc 1 267 0
 501 0038 0C25     		movs	r5, #12
 502 003a 0595     		str	r5, [sp, #20]
 268:Src/stm32f4xx_hal_msp.c ****     HAL_GPIO_Init(GPIOC, &GPIO_InitStruct);
 503              		.loc 1 268 0
 504 003c 01A9     		add	r1, sp, #4
 505 003e 0948     		ldr	r0, .L41+4
 506              	.LVL35:
 507 0040 FFF7FEFF 		bl	HAL_GPIO_Init
 508              	.LVL36:
 269:Src/stm32f4xx_hal_msp.c **** 
 270:Src/stm32f4xx_hal_msp.c ****     GPIO_InitStruct.Pin = GPIO_PIN_2;
 509              		.loc 1 270 0
 510 0044 0423     		movs	r3, #4
 511 0046 0193     		str	r3, [sp, #4]
 271:Src/stm32f4xx_hal_msp.c ****     GPIO_InitStruct.Mode = GPIO_MODE_AF_PP;
 512              		.loc 1 271 0
 513 0048 0297     		str	r7, [sp, #8]
 272:Src/stm32f4xx_hal_msp.c ****     GPIO_InitStruct.Pull = GPIO_NOPULL;
ARM GAS  /var/folders/7p/1_dhylqx7nl5s8914_0f_4w00000gn/T//cc6PFu3c.s 			page 15


 514              		.loc 1 272 0
 515 004a 0394     		str	r4, [sp, #12]
 273:Src/stm32f4xx_hal_msp.c ****     GPIO_InitStruct.Speed = GPIO_SPEED_FREQ_VERY_HIGH;
 516              		.loc 1 273 0
 517 004c 0496     		str	r6, [sp, #16]
 274:Src/stm32f4xx_hal_msp.c ****     GPIO_InitStruct.Alternate = GPIO_AF12_SDIO;
 518              		.loc 1 274 0
 519 004e 0595     		str	r5, [sp, #20]
 275:Src/stm32f4xx_hal_msp.c ****     HAL_GPIO_Init(GPIOD, &GPIO_InitStruct);
 520              		.loc 1 275 0
 521 0050 0DEB0301 		add	r1, sp, r3
 522 0054 0448     		ldr	r0, .L41+8
 523 0056 FFF7FEFF 		bl	HAL_GPIO_Init
 524              	.LVL37:
 276:Src/stm32f4xx_hal_msp.c **** 
 277:Src/stm32f4xx_hal_msp.c ****   /* USER CODE BEGIN SDIO_MspInit 1 */
 278:Src/stm32f4xx_hal_msp.c **** 
 279:Src/stm32f4xx_hal_msp.c ****   /* USER CODE END SDIO_MspInit 1 */
 280:Src/stm32f4xx_hal_msp.c ****   }
 281:Src/stm32f4xx_hal_msp.c **** 
 282:Src/stm32f4xx_hal_msp.c **** }
 525              		.loc 1 282 0
 526 005a 07B0     		add	sp, sp, #28
 527              	.LCFI12:
 528              		.cfi_def_cfa_offset 20
 529              		@ sp needed
 530 005c F0BD     		pop	{r4, r5, r6, r7, pc}
 531              	.L42:
 532 005e 00BF     		.align	2
 533              	.L41:
 534 0060 002C0140 		.word	1073818624
 535 0064 00080240 		.word	1073874944
 536 0068 000C0240 		.word	1073875968
 537              		.cfi_endproc
 538              	.LFE129:
 540              		.section	.text.HAL_SD_MspDeInit,"ax",%progbits
 541              		.align	1
 542              		.global	HAL_SD_MspDeInit
 543              		.syntax unified
 544              		.thumb
 545              		.thumb_func
 546              		.fpu fpv4-sp-d16
 548              	HAL_SD_MspDeInit:
 549              	.LFB130:
 283:Src/stm32f4xx_hal_msp.c **** 
 284:Src/stm32f4xx_hal_msp.c **** void HAL_SD_MspDeInit(SD_HandleTypeDef* hsd)
 285:Src/stm32f4xx_hal_msp.c **** {
 550              		.loc 1 285 0
 551              		.cfi_startproc
 552              		@ args = 0, pretend = 0, frame = 0
 553              		@ frame_needed = 0, uses_anonymous_args = 0
 554              	.LVL38:
 555 0000 08B5     		push	{r3, lr}
 556              	.LCFI13:
 557              		.cfi_def_cfa_offset 8
 558              		.cfi_offset 3, -8
 559              		.cfi_offset 14, -4
ARM GAS  /var/folders/7p/1_dhylqx7nl5s8914_0f_4w00000gn/T//cc6PFu3c.s 			page 16


 286:Src/stm32f4xx_hal_msp.c **** 
 287:Src/stm32f4xx_hal_msp.c ****   if(hsd->Instance==SDIO)
 560              		.loc 1 287 0
 561 0002 0268     		ldr	r2, [r0]
 562 0004 094B     		ldr	r3, .L47
 563 0006 9A42     		cmp	r2, r3
 564 0008 00D0     		beq	.L46
 565              	.LVL39:
 566              	.L43:
 567 000a 08BD     		pop	{r3, pc}
 568              	.LVL40:
 569              	.L46:
 288:Src/stm32f4xx_hal_msp.c ****   {
 289:Src/stm32f4xx_hal_msp.c ****   /* USER CODE BEGIN SDIO_MspDeInit 0 */
 290:Src/stm32f4xx_hal_msp.c **** 
 291:Src/stm32f4xx_hal_msp.c ****   /* USER CODE END SDIO_MspDeInit 0 */
 292:Src/stm32f4xx_hal_msp.c ****     /* Peripheral clock disable */
 293:Src/stm32f4xx_hal_msp.c ****     __HAL_RCC_SDIO_CLK_DISABLE();
 570              		.loc 1 293 0
 571 000c 084A     		ldr	r2, .L47+4
 572 000e 536C     		ldr	r3, [r2, #68]
 573 0010 23F40063 		bic	r3, r3, #2048
 574 0014 5364     		str	r3, [r2, #68]
 294:Src/stm32f4xx_hal_msp.c ****   
 295:Src/stm32f4xx_hal_msp.c ****     /**SDIO GPIO Configuration    
 296:Src/stm32f4xx_hal_msp.c ****     PC8     ------> SDIO_D0
 297:Src/stm32f4xx_hal_msp.c ****     PC12     ------> SDIO_CK
 298:Src/stm32f4xx_hal_msp.c ****     PD2     ------> SDIO_CMD 
 299:Src/stm32f4xx_hal_msp.c ****     */
 300:Src/stm32f4xx_hal_msp.c ****     HAL_GPIO_DeInit(GPIOC, GPIO_PIN_8|GPIO_PIN_12);
 575              		.loc 1 300 0
 576 0016 4FF48851 		mov	r1, #4352
 577 001a 0648     		ldr	r0, .L47+8
 578              	.LVL41:
 579 001c FFF7FEFF 		bl	HAL_GPIO_DeInit
 580              	.LVL42:
 301:Src/stm32f4xx_hal_msp.c **** 
 302:Src/stm32f4xx_hal_msp.c ****     HAL_GPIO_DeInit(GPIOD, GPIO_PIN_2);
 581              		.loc 1 302 0
 582 0020 0421     		movs	r1, #4
 583 0022 0548     		ldr	r0, .L47+12
 584 0024 FFF7FEFF 		bl	HAL_GPIO_DeInit
 585              	.LVL43:
 303:Src/stm32f4xx_hal_msp.c **** 
 304:Src/stm32f4xx_hal_msp.c ****   /* USER CODE BEGIN SDIO_MspDeInit 1 */
 305:Src/stm32f4xx_hal_msp.c **** 
 306:Src/stm32f4xx_hal_msp.c ****   /* USER CODE END SDIO_MspDeInit 1 */
 307:Src/stm32f4xx_hal_msp.c ****   }
 308:Src/stm32f4xx_hal_msp.c **** 
 309:Src/stm32f4xx_hal_msp.c **** }
 586              		.loc 1 309 0
 587 0028 EFE7     		b	.L43
 588              	.L48:
 589 002a 00BF     		.align	2
 590              	.L47:
 591 002c 002C0140 		.word	1073818624
 592 0030 00380240 		.word	1073887232
ARM GAS  /var/folders/7p/1_dhylqx7nl5s8914_0f_4w00000gn/T//cc6PFu3c.s 			page 17


 593 0034 00080240 		.word	1073874944
 594 0038 000C0240 		.word	1073875968
 595              		.cfi_endproc
 596              	.LFE130:
 598              		.section	.text.HAL_TIM_PWM_MspInit,"ax",%progbits
 599              		.align	1
 600              		.global	HAL_TIM_PWM_MspInit
 601              		.syntax unified
 602              		.thumb
 603              		.thumb_func
 604              		.fpu fpv4-sp-d16
 606              	HAL_TIM_PWM_MspInit:
 607              	.LFB131:
 310:Src/stm32f4xx_hal_msp.c **** 
 311:Src/stm32f4xx_hal_msp.c **** void HAL_TIM_PWM_MspInit(TIM_HandleTypeDef* htim_pwm)
 312:Src/stm32f4xx_hal_msp.c **** {
 608              		.loc 1 312 0
 609              		.cfi_startproc
 610              		@ args = 0, pretend = 0, frame = 16
 611              		@ frame_needed = 0, uses_anonymous_args = 0
 612              		@ link register save eliminated.
 613              	.LVL44:
 614 0000 84B0     		sub	sp, sp, #16
 615              	.LCFI14:
 616              		.cfi_def_cfa_offset 16
 313:Src/stm32f4xx_hal_msp.c **** 
 314:Src/stm32f4xx_hal_msp.c ****   if(htim_pwm->Instance==TIM2)
 617              		.loc 1 314 0
 618 0002 0368     		ldr	r3, [r0]
 619 0004 B3F1804F 		cmp	r3, #1073741824
 620 0008 07D0     		beq	.L54
 315:Src/stm32f4xx_hal_msp.c ****   {
 316:Src/stm32f4xx_hal_msp.c ****   /* USER CODE BEGIN TIM2_MspInit 0 */
 317:Src/stm32f4xx_hal_msp.c **** 
 318:Src/stm32f4xx_hal_msp.c ****   /* USER CODE END TIM2_MspInit 0 */
 319:Src/stm32f4xx_hal_msp.c ****     /* Peripheral clock enable */
 320:Src/stm32f4xx_hal_msp.c ****     __HAL_RCC_TIM2_CLK_ENABLE();
 321:Src/stm32f4xx_hal_msp.c ****   /* USER CODE BEGIN TIM2_MspInit 1 */
 322:Src/stm32f4xx_hal_msp.c **** 
 323:Src/stm32f4xx_hal_msp.c ****   /* USER CODE END TIM2_MspInit 1 */
 324:Src/stm32f4xx_hal_msp.c ****   }
 325:Src/stm32f4xx_hal_msp.c ****   else if(htim_pwm->Instance==TIM3)
 621              		.loc 1 325 0
 622 000a 174A     		ldr	r2, .L57
 623 000c 9342     		cmp	r3, r2
 624 000e 11D0     		beq	.L55
 326:Src/stm32f4xx_hal_msp.c ****   {
 327:Src/stm32f4xx_hal_msp.c ****   /* USER CODE BEGIN TIM3_MspInit 0 */
 328:Src/stm32f4xx_hal_msp.c **** 
 329:Src/stm32f4xx_hal_msp.c ****   /* USER CODE END TIM3_MspInit 0 */
 330:Src/stm32f4xx_hal_msp.c ****     /* Peripheral clock enable */
 331:Src/stm32f4xx_hal_msp.c ****     __HAL_RCC_TIM3_CLK_ENABLE();
 332:Src/stm32f4xx_hal_msp.c ****   /* USER CODE BEGIN TIM3_MspInit 1 */
 333:Src/stm32f4xx_hal_msp.c **** 
 334:Src/stm32f4xx_hal_msp.c ****   /* USER CODE END TIM3_MspInit 1 */
 335:Src/stm32f4xx_hal_msp.c ****   }
 336:Src/stm32f4xx_hal_msp.c ****   else if(htim_pwm->Instance==TIM5)
ARM GAS  /var/folders/7p/1_dhylqx7nl5s8914_0f_4w00000gn/T//cc6PFu3c.s 			page 18


 625              		.loc 1 336 0
 626 0010 164A     		ldr	r2, .L57+4
 627 0012 9342     		cmp	r3, r2
 628 0014 1BD0     		beq	.L56
 629              	.L49:
 337:Src/stm32f4xx_hal_msp.c ****   {
 338:Src/stm32f4xx_hal_msp.c ****   /* USER CODE BEGIN TIM5_MspInit 0 */
 339:Src/stm32f4xx_hal_msp.c **** 
 340:Src/stm32f4xx_hal_msp.c ****   /* USER CODE END TIM5_MspInit 0 */
 341:Src/stm32f4xx_hal_msp.c ****     /* Peripheral clock enable */
 342:Src/stm32f4xx_hal_msp.c ****     __HAL_RCC_TIM5_CLK_ENABLE();
 343:Src/stm32f4xx_hal_msp.c ****   /* USER CODE BEGIN TIM5_MspInit 1 */
 344:Src/stm32f4xx_hal_msp.c **** 
 345:Src/stm32f4xx_hal_msp.c ****   /* USER CODE END TIM5_MspInit 1 */
 346:Src/stm32f4xx_hal_msp.c ****   }
 347:Src/stm32f4xx_hal_msp.c **** 
 348:Src/stm32f4xx_hal_msp.c **** }
 630              		.loc 1 348 0
 631 0016 04B0     		add	sp, sp, #16
 632              	.LCFI15:
 633              		.cfi_remember_state
 634              		.cfi_def_cfa_offset 0
 635              		@ sp needed
 636 0018 7047     		bx	lr
 637              	.L54:
 638              	.LCFI16:
 639              		.cfi_restore_state
 640              	.LBB6:
 320:Src/stm32f4xx_hal_msp.c ****   /* USER CODE BEGIN TIM2_MspInit 1 */
 641              		.loc 1 320 0
 642 001a 0023     		movs	r3, #0
 643 001c 0193     		str	r3, [sp, #4]
 644 001e 144B     		ldr	r3, .L57+8
 645 0020 1A6C     		ldr	r2, [r3, #64]
 646 0022 42F00102 		orr	r2, r2, #1
 647 0026 1A64     		str	r2, [r3, #64]
 648 0028 1B6C     		ldr	r3, [r3, #64]
 649 002a 03F00103 		and	r3, r3, #1
 650 002e 0193     		str	r3, [sp, #4]
 651 0030 019B     		ldr	r3, [sp, #4]
 652              	.LBE6:
 653 0032 F0E7     		b	.L49
 654              	.L55:
 655              	.LBB7:
 331:Src/stm32f4xx_hal_msp.c ****   /* USER CODE BEGIN TIM3_MspInit 1 */
 656              		.loc 1 331 0
 657 0034 0023     		movs	r3, #0
 658 0036 0293     		str	r3, [sp, #8]
 659 0038 0D4B     		ldr	r3, .L57+8
 660 003a 1A6C     		ldr	r2, [r3, #64]
 661 003c 42F00202 		orr	r2, r2, #2
 662 0040 1A64     		str	r2, [r3, #64]
 663 0042 1B6C     		ldr	r3, [r3, #64]
 664 0044 03F00203 		and	r3, r3, #2
 665 0048 0293     		str	r3, [sp, #8]
 666 004a 029B     		ldr	r3, [sp, #8]
 667              	.LBE7:
ARM GAS  /var/folders/7p/1_dhylqx7nl5s8914_0f_4w00000gn/T//cc6PFu3c.s 			page 19


 668 004c E3E7     		b	.L49
 669              	.L56:
 670              	.LBB8:
 342:Src/stm32f4xx_hal_msp.c ****   /* USER CODE BEGIN TIM5_MspInit 1 */
 671              		.loc 1 342 0
 672 004e 0023     		movs	r3, #0
 673 0050 0393     		str	r3, [sp, #12]
 674 0052 074B     		ldr	r3, .L57+8
 675 0054 1A6C     		ldr	r2, [r3, #64]
 676 0056 42F00802 		orr	r2, r2, #8
 677 005a 1A64     		str	r2, [r3, #64]
 678 005c 1B6C     		ldr	r3, [r3, #64]
 679 005e 03F00803 		and	r3, r3, #8
 680 0062 0393     		str	r3, [sp, #12]
 681 0064 039B     		ldr	r3, [sp, #12]
 682              	.LBE8:
 683              		.loc 1 348 0
 684 0066 D6E7     		b	.L49
 685              	.L58:
 686              		.align	2
 687              	.L57:
 688 0068 00040040 		.word	1073742848
 689 006c 000C0040 		.word	1073744896
 690 0070 00380240 		.word	1073887232
 691              		.cfi_endproc
 692              	.LFE131:
 694              		.section	.text.HAL_TIM_Base_MspInit,"ax",%progbits
 695              		.align	1
 696              		.global	HAL_TIM_Base_MspInit
 697              		.syntax unified
 698              		.thumb
 699              		.thumb_func
 700              		.fpu fpv4-sp-d16
 702              	HAL_TIM_Base_MspInit:
 703              	.LFB132:
 349:Src/stm32f4xx_hal_msp.c **** 
 350:Src/stm32f4xx_hal_msp.c **** void HAL_TIM_Base_MspInit(TIM_HandleTypeDef* htim_base)
 351:Src/stm32f4xx_hal_msp.c **** {
 704              		.loc 1 351 0
 705              		.cfi_startproc
 706              		@ args = 0, pretend = 0, frame = 8
 707              		@ frame_needed = 0, uses_anonymous_args = 0
 708              		@ link register save eliminated.
 709              	.LVL45:
 710 0000 82B0     		sub	sp, sp, #8
 711              	.LCFI17:
 712              		.cfi_def_cfa_offset 8
 352:Src/stm32f4xx_hal_msp.c **** 
 353:Src/stm32f4xx_hal_msp.c ****   if(htim_base->Instance==TIM13)
 713              		.loc 1 353 0
 714 0002 0368     		ldr	r3, [r0]
 715 0004 104A     		ldr	r2, .L65
 716 0006 9342     		cmp	r3, r2
 717 0008 04D0     		beq	.L63
 354:Src/stm32f4xx_hal_msp.c ****   {
 355:Src/stm32f4xx_hal_msp.c ****   /* USER CODE BEGIN TIM13_MspInit 0 */
 356:Src/stm32f4xx_hal_msp.c **** 
ARM GAS  /var/folders/7p/1_dhylqx7nl5s8914_0f_4w00000gn/T//cc6PFu3c.s 			page 20


 357:Src/stm32f4xx_hal_msp.c ****   /* USER CODE END TIM13_MspInit 0 */
 358:Src/stm32f4xx_hal_msp.c ****     /* Peripheral clock enable */
 359:Src/stm32f4xx_hal_msp.c ****     __HAL_RCC_TIM13_CLK_ENABLE();
 360:Src/stm32f4xx_hal_msp.c ****   /* USER CODE BEGIN TIM13_MspInit 1 */
 361:Src/stm32f4xx_hal_msp.c **** 
 362:Src/stm32f4xx_hal_msp.c ****   /* USER CODE END TIM13_MspInit 1 */
 363:Src/stm32f4xx_hal_msp.c ****   }
 364:Src/stm32f4xx_hal_msp.c ****   else if(htim_base->Instance==TIM14)
 718              		.loc 1 364 0
 719 000a 104A     		ldr	r2, .L65+4
 720 000c 9342     		cmp	r3, r2
 721 000e 0ED0     		beq	.L64
 722              	.L59:
 365:Src/stm32f4xx_hal_msp.c ****   {
 366:Src/stm32f4xx_hal_msp.c ****   /* USER CODE BEGIN TIM14_MspInit 0 */
 367:Src/stm32f4xx_hal_msp.c **** 
 368:Src/stm32f4xx_hal_msp.c ****   /* USER CODE END TIM14_MspInit 0 */
 369:Src/stm32f4xx_hal_msp.c ****     /* Peripheral clock enable */
 370:Src/stm32f4xx_hal_msp.c ****     __HAL_RCC_TIM14_CLK_ENABLE();
 371:Src/stm32f4xx_hal_msp.c ****   /* USER CODE BEGIN TIM14_MspInit 1 */
 372:Src/stm32f4xx_hal_msp.c **** 
 373:Src/stm32f4xx_hal_msp.c ****   /* USER CODE END TIM14_MspInit 1 */
 374:Src/stm32f4xx_hal_msp.c ****   }
 375:Src/stm32f4xx_hal_msp.c **** 
 376:Src/stm32f4xx_hal_msp.c **** }
 723              		.loc 1 376 0
 724 0010 02B0     		add	sp, sp, #8
 725              	.LCFI18:
 726              		.cfi_remember_state
 727              		.cfi_def_cfa_offset 0
 728              		@ sp needed
 729 0012 7047     		bx	lr
 730              	.L63:
 731              	.LCFI19:
 732              		.cfi_restore_state
 733              	.LBB9:
 359:Src/stm32f4xx_hal_msp.c ****   /* USER CODE BEGIN TIM13_MspInit 1 */
 734              		.loc 1 359 0
 735 0014 0023     		movs	r3, #0
 736 0016 0093     		str	r3, [sp]
 737 0018 0D4B     		ldr	r3, .L65+8
 738 001a 1A6C     		ldr	r2, [r3, #64]
 739 001c 42F08002 		orr	r2, r2, #128
 740 0020 1A64     		str	r2, [r3, #64]
 741 0022 1B6C     		ldr	r3, [r3, #64]
 742 0024 03F08003 		and	r3, r3, #128
 743 0028 0093     		str	r3, [sp]
 744 002a 009B     		ldr	r3, [sp]
 745              	.LBE9:
 746 002c F0E7     		b	.L59
 747              	.L64:
 748              	.LBB10:
 370:Src/stm32f4xx_hal_msp.c ****   /* USER CODE BEGIN TIM14_MspInit 1 */
 749              		.loc 1 370 0
 750 002e 0023     		movs	r3, #0
 751 0030 0193     		str	r3, [sp, #4]
 752 0032 074B     		ldr	r3, .L65+8
ARM GAS  /var/folders/7p/1_dhylqx7nl5s8914_0f_4w00000gn/T//cc6PFu3c.s 			page 21


 753 0034 1A6C     		ldr	r2, [r3, #64]
 754 0036 42F48072 		orr	r2, r2, #256
 755 003a 1A64     		str	r2, [r3, #64]
 756 003c 1B6C     		ldr	r3, [r3, #64]
 757 003e 03F48073 		and	r3, r3, #256
 758 0042 0193     		str	r3, [sp, #4]
 759 0044 019B     		ldr	r3, [sp, #4]
 760              	.LBE10:
 761              		.loc 1 376 0
 762 0046 E3E7     		b	.L59
 763              	.L66:
 764              		.align	2
 765              	.L65:
 766 0048 001C0040 		.word	1073748992
 767 004c 00200040 		.word	1073750016
 768 0050 00380240 		.word	1073887232
 769              		.cfi_endproc
 770              	.LFE132:
 772              		.section	.text.HAL_TIM_MspPostInit,"ax",%progbits
 773              		.align	1
 774              		.global	HAL_TIM_MspPostInit
 775              		.syntax unified
 776              		.thumb
 777              		.thumb_func
 778              		.fpu fpv4-sp-d16
 780              	HAL_TIM_MspPostInit:
 781              	.LFB133:
 377:Src/stm32f4xx_hal_msp.c **** 
 378:Src/stm32f4xx_hal_msp.c **** void HAL_TIM_MspPostInit(TIM_HandleTypeDef* htim)
 379:Src/stm32f4xx_hal_msp.c **** {
 782              		.loc 1 379 0
 783              		.cfi_startproc
 784              		@ args = 0, pretend = 0, frame = 24
 785              		@ frame_needed = 0, uses_anonymous_args = 0
 786              	.LVL46:
 787 0000 00B5     		push	{lr}
 788              	.LCFI20:
 789              		.cfi_def_cfa_offset 4
 790              		.cfi_offset 14, -4
 791 0002 87B0     		sub	sp, sp, #28
 792              	.LCFI21:
 793              		.cfi_def_cfa_offset 32
 380:Src/stm32f4xx_hal_msp.c **** 
 381:Src/stm32f4xx_hal_msp.c ****   GPIO_InitTypeDef GPIO_InitStruct;
 382:Src/stm32f4xx_hal_msp.c ****   if(htim->Instance==TIM2)
 794              		.loc 1 382 0
 795 0004 0368     		ldr	r3, [r0]
 796 0006 B3F1804F 		cmp	r3, #1073741824
 797 000a 0ED0     		beq	.L74
 383:Src/stm32f4xx_hal_msp.c ****   {
 384:Src/stm32f4xx_hal_msp.c ****   /* USER CODE BEGIN TIM2_MspPostInit 0 */
 385:Src/stm32f4xx_hal_msp.c **** 
 386:Src/stm32f4xx_hal_msp.c ****   /* USER CODE END TIM2_MspPostInit 0 */
 387:Src/stm32f4xx_hal_msp.c ****     /**TIM2 GPIO Configuration    
 388:Src/stm32f4xx_hal_msp.c ****     PB10     ------> TIM2_CH3
 389:Src/stm32f4xx_hal_msp.c ****     PB11     ------> TIM2_CH4 
 390:Src/stm32f4xx_hal_msp.c ****     */
ARM GAS  /var/folders/7p/1_dhylqx7nl5s8914_0f_4w00000gn/T//cc6PFu3c.s 			page 22


 391:Src/stm32f4xx_hal_msp.c ****     GPIO_InitStruct.Pin = SwAft_Pin|SwFwd_Pin;
 392:Src/stm32f4xx_hal_msp.c ****     GPIO_InitStruct.Mode = GPIO_MODE_AF_PP;
 393:Src/stm32f4xx_hal_msp.c ****     GPIO_InitStruct.Pull = GPIO_NOPULL;
 394:Src/stm32f4xx_hal_msp.c ****     GPIO_InitStruct.Speed = GPIO_SPEED_FREQ_LOW;
 395:Src/stm32f4xx_hal_msp.c ****     GPIO_InitStruct.Alternate = GPIO_AF1_TIM2;
 396:Src/stm32f4xx_hal_msp.c ****     HAL_GPIO_Init(GPIOB, &GPIO_InitStruct);
 397:Src/stm32f4xx_hal_msp.c **** 
 398:Src/stm32f4xx_hal_msp.c ****   /* USER CODE BEGIN TIM2_MspPostInit 1 */
 399:Src/stm32f4xx_hal_msp.c **** 
 400:Src/stm32f4xx_hal_msp.c ****   /* USER CODE END TIM2_MspPostInit 1 */
 401:Src/stm32f4xx_hal_msp.c ****   }
 402:Src/stm32f4xx_hal_msp.c ****   else if(htim->Instance==TIM3)
 798              		.loc 1 402 0
 799 000c 294A     		ldr	r2, .L79
 800 000e 9342     		cmp	r3, r2
 801 0010 1AD0     		beq	.L75
 403:Src/stm32f4xx_hal_msp.c ****   {
 404:Src/stm32f4xx_hal_msp.c ****   /* USER CODE BEGIN TIM3_MspPostInit 0 */
 405:Src/stm32f4xx_hal_msp.c **** 
 406:Src/stm32f4xx_hal_msp.c ****   /* USER CODE END TIM3_MspPostInit 0 */
 407:Src/stm32f4xx_hal_msp.c ****   
 408:Src/stm32f4xx_hal_msp.c ****     /**TIM3 GPIO Configuration    
 409:Src/stm32f4xx_hal_msp.c ****     PB0     ------> TIM3_CH3
 410:Src/stm32f4xx_hal_msp.c ****     PB1     ------> TIM3_CH4 
 411:Src/stm32f4xx_hal_msp.c ****     */
 412:Src/stm32f4xx_hal_msp.c ****     GPIO_InitStruct.Pin = HeavePortFwd_Pin|HeavePortAft_Pin;
 413:Src/stm32f4xx_hal_msp.c ****     GPIO_InitStruct.Mode = GPIO_MODE_AF_PP;
 414:Src/stm32f4xx_hal_msp.c ****     GPIO_InitStruct.Pull = GPIO_NOPULL;
 415:Src/stm32f4xx_hal_msp.c ****     GPIO_InitStruct.Speed = GPIO_SPEED_FREQ_LOW;
 416:Src/stm32f4xx_hal_msp.c ****     GPIO_InitStruct.Alternate = GPIO_AF2_TIM3;
 417:Src/stm32f4xx_hal_msp.c ****     HAL_GPIO_Init(GPIOB, &GPIO_InitStruct);
 418:Src/stm32f4xx_hal_msp.c **** 
 419:Src/stm32f4xx_hal_msp.c ****   /* USER CODE BEGIN TIM3_MspPostInit 1 */
 420:Src/stm32f4xx_hal_msp.c **** 
 421:Src/stm32f4xx_hal_msp.c ****   /* USER CODE END TIM3_MspPostInit 1 */
 422:Src/stm32f4xx_hal_msp.c ****   }
 423:Src/stm32f4xx_hal_msp.c ****   else if(htim->Instance==TIM5)
 802              		.loc 1 423 0
 803 0012 294A     		ldr	r2, .L79+4
 804 0014 9342     		cmp	r3, r2
 805 0016 24D0     		beq	.L76
 424:Src/stm32f4xx_hal_msp.c ****   {
 425:Src/stm32f4xx_hal_msp.c ****   /* USER CODE BEGIN TIM5_MspPostInit 0 */
 426:Src/stm32f4xx_hal_msp.c **** 
 427:Src/stm32f4xx_hal_msp.c ****   /* USER CODE END TIM5_MspPostInit 0 */
 428:Src/stm32f4xx_hal_msp.c ****   
 429:Src/stm32f4xx_hal_msp.c ****     /**TIM5 GPIO Configuration    
 430:Src/stm32f4xx_hal_msp.c ****     PA0-WKUP     ------> TIM5_CH1
 431:Src/stm32f4xx_hal_msp.c ****     PA1     ------> TIM5_CH2
 432:Src/stm32f4xx_hal_msp.c ****     PA2     ------> TIM5_CH3
 433:Src/stm32f4xx_hal_msp.c ****     PA3     ------> TIM5_CH4 
 434:Src/stm32f4xx_hal_msp.c ****     */
 435:Src/stm32f4xx_hal_msp.c ****     GPIO_InitStruct.Pin = SurgeStdbHi_Pin|SurgeStdbLow_Pin|SurgePortHi_Pin|SurgePortLow_Pin;
 436:Src/stm32f4xx_hal_msp.c ****     GPIO_InitStruct.Mode = GPIO_MODE_AF_PP;
 437:Src/stm32f4xx_hal_msp.c ****     GPIO_InitStruct.Pull = GPIO_NOPULL;
 438:Src/stm32f4xx_hal_msp.c ****     GPIO_InitStruct.Speed = GPIO_SPEED_FREQ_LOW;
 439:Src/stm32f4xx_hal_msp.c ****     GPIO_InitStruct.Alternate = GPIO_AF2_TIM5;
ARM GAS  /var/folders/7p/1_dhylqx7nl5s8914_0f_4w00000gn/T//cc6PFu3c.s 			page 23


 440:Src/stm32f4xx_hal_msp.c ****     HAL_GPIO_Init(GPIOA, &GPIO_InitStruct);
 441:Src/stm32f4xx_hal_msp.c **** 
 442:Src/stm32f4xx_hal_msp.c ****   /* USER CODE BEGIN TIM5_MspPostInit 1 */
 443:Src/stm32f4xx_hal_msp.c **** 
 444:Src/stm32f4xx_hal_msp.c ****   /* USER CODE END TIM5_MspPostInit 1 */
 445:Src/stm32f4xx_hal_msp.c ****   }
 446:Src/stm32f4xx_hal_msp.c ****   else if(htim->Instance==TIM13)
 806              		.loc 1 446 0
 807 0018 284A     		ldr	r2, .L79+8
 808 001a 9342     		cmp	r3, r2
 809 001c 2ED0     		beq	.L77
 447:Src/stm32f4xx_hal_msp.c ****   {
 448:Src/stm32f4xx_hal_msp.c ****   /* USER CODE BEGIN TIM13_MspPostInit 0 */
 449:Src/stm32f4xx_hal_msp.c **** 
 450:Src/stm32f4xx_hal_msp.c ****   /* USER CODE END TIM13_MspPostInit 0 */
 451:Src/stm32f4xx_hal_msp.c ****   
 452:Src/stm32f4xx_hal_msp.c ****     /**TIM13 GPIO Configuration    
 453:Src/stm32f4xx_hal_msp.c ****     PA6     ------> TIM13_CH1 
 454:Src/stm32f4xx_hal_msp.c ****     */
 455:Src/stm32f4xx_hal_msp.c ****     GPIO_InitStruct.Pin = HeaveStbdFwd_Pin;
 456:Src/stm32f4xx_hal_msp.c ****     GPIO_InitStruct.Mode = GPIO_MODE_AF_PP;
 457:Src/stm32f4xx_hal_msp.c ****     GPIO_InitStruct.Pull = GPIO_NOPULL;
 458:Src/stm32f4xx_hal_msp.c ****     GPIO_InitStruct.Speed = GPIO_SPEED_FREQ_LOW;
 459:Src/stm32f4xx_hal_msp.c ****     GPIO_InitStruct.Alternate = GPIO_AF9_TIM13;
 460:Src/stm32f4xx_hal_msp.c ****     HAL_GPIO_Init(HeaveStbdFwd_GPIO_Port, &GPIO_InitStruct);
 461:Src/stm32f4xx_hal_msp.c **** 
 462:Src/stm32f4xx_hal_msp.c ****   /* USER CODE BEGIN TIM13_MspPostInit 1 */
 463:Src/stm32f4xx_hal_msp.c **** 
 464:Src/stm32f4xx_hal_msp.c ****   /* USER CODE END TIM13_MspPostInit 1 */
 465:Src/stm32f4xx_hal_msp.c ****   }
 466:Src/stm32f4xx_hal_msp.c ****   else if(htim->Instance==TIM14)
 810              		.loc 1 466 0
 811 001e 284A     		ldr	r2, .L79+12
 812 0020 9342     		cmp	r3, r2
 813 0022 39D0     		beq	.L78
 814              	.LVL47:
 815              	.L67:
 467:Src/stm32f4xx_hal_msp.c ****   {
 468:Src/stm32f4xx_hal_msp.c ****   /* USER CODE BEGIN TIM14_MspPostInit 0 */
 469:Src/stm32f4xx_hal_msp.c **** 
 470:Src/stm32f4xx_hal_msp.c ****   /* USER CODE END TIM14_MspPostInit 0 */
 471:Src/stm32f4xx_hal_msp.c ****   
 472:Src/stm32f4xx_hal_msp.c ****     /**TIM14 GPIO Configuration    
 473:Src/stm32f4xx_hal_msp.c ****     PA7     ------> TIM14_CH1 
 474:Src/stm32f4xx_hal_msp.c ****     */
 475:Src/stm32f4xx_hal_msp.c ****     GPIO_InitStruct.Pin = HeaveStbdAft_Pin;
 476:Src/stm32f4xx_hal_msp.c ****     GPIO_InitStruct.Mode = GPIO_MODE_AF_PP;
 477:Src/stm32f4xx_hal_msp.c ****     GPIO_InitStruct.Pull = GPIO_NOPULL;
 478:Src/stm32f4xx_hal_msp.c ****     GPIO_InitStruct.Speed = GPIO_SPEED_FREQ_LOW;
 479:Src/stm32f4xx_hal_msp.c ****     GPIO_InitStruct.Alternate = GPIO_AF9_TIM14;
 480:Src/stm32f4xx_hal_msp.c ****     HAL_GPIO_Init(HeaveStbdAft_GPIO_Port, &GPIO_InitStruct);
 481:Src/stm32f4xx_hal_msp.c **** 
 482:Src/stm32f4xx_hal_msp.c ****   /* USER CODE BEGIN TIM14_MspPostInit 1 */
 483:Src/stm32f4xx_hal_msp.c **** 
 484:Src/stm32f4xx_hal_msp.c ****   /* USER CODE END TIM14_MspPostInit 1 */
 485:Src/stm32f4xx_hal_msp.c ****   }
 486:Src/stm32f4xx_hal_msp.c **** 
ARM GAS  /var/folders/7p/1_dhylqx7nl5s8914_0f_4w00000gn/T//cc6PFu3c.s 			page 24


 487:Src/stm32f4xx_hal_msp.c **** }
 816              		.loc 1 487 0
 817 0024 07B0     		add	sp, sp, #28
 818              	.LCFI22:
 819              		.cfi_remember_state
 820              		.cfi_def_cfa_offset 4
 821              		@ sp needed
 822 0026 5DF804FB 		ldr	pc, [sp], #4
 823              	.LVL48:
 824              	.L74:
 825              	.LCFI23:
 826              		.cfi_restore_state
 391:Src/stm32f4xx_hal_msp.c ****     GPIO_InitStruct.Mode = GPIO_MODE_AF_PP;
 827              		.loc 1 391 0
 828 002a 4FF44063 		mov	r3, #3072
 829 002e 0193     		str	r3, [sp, #4]
 392:Src/stm32f4xx_hal_msp.c ****     GPIO_InitStruct.Pull = GPIO_NOPULL;
 830              		.loc 1 392 0
 831 0030 0223     		movs	r3, #2
 832 0032 0293     		str	r3, [sp, #8]
 393:Src/stm32f4xx_hal_msp.c ****     GPIO_InitStruct.Speed = GPIO_SPEED_FREQ_LOW;
 833              		.loc 1 393 0
 834 0034 0023     		movs	r3, #0
 835 0036 0393     		str	r3, [sp, #12]
 394:Src/stm32f4xx_hal_msp.c ****     GPIO_InitStruct.Alternate = GPIO_AF1_TIM2;
 836              		.loc 1 394 0
 837 0038 0493     		str	r3, [sp, #16]
 395:Src/stm32f4xx_hal_msp.c ****     HAL_GPIO_Init(GPIOB, &GPIO_InitStruct);
 838              		.loc 1 395 0
 839 003a 0123     		movs	r3, #1
 840 003c 0593     		str	r3, [sp, #20]
 396:Src/stm32f4xx_hal_msp.c **** 
 841              		.loc 1 396 0
 842 003e 01A9     		add	r1, sp, #4
 843 0040 2048     		ldr	r0, .L79+16
 844              	.LVL49:
 845 0042 FFF7FEFF 		bl	HAL_GPIO_Init
 846              	.LVL50:
 847 0046 EDE7     		b	.L67
 848              	.LVL51:
 849              	.L75:
 412:Src/stm32f4xx_hal_msp.c ****     GPIO_InitStruct.Mode = GPIO_MODE_AF_PP;
 850              		.loc 1 412 0
 851 0048 0323     		movs	r3, #3
 852 004a 0193     		str	r3, [sp, #4]
 413:Src/stm32f4xx_hal_msp.c ****     GPIO_InitStruct.Pull = GPIO_NOPULL;
 853              		.loc 1 413 0
 854 004c 0223     		movs	r3, #2
 855 004e 0293     		str	r3, [sp, #8]
 414:Src/stm32f4xx_hal_msp.c ****     GPIO_InitStruct.Speed = GPIO_SPEED_FREQ_LOW;
 856              		.loc 1 414 0
 857 0050 0022     		movs	r2, #0
 858 0052 0392     		str	r2, [sp, #12]
 415:Src/stm32f4xx_hal_msp.c ****     GPIO_InitStruct.Alternate = GPIO_AF2_TIM3;
 859              		.loc 1 415 0
 860 0054 0492     		str	r2, [sp, #16]
 416:Src/stm32f4xx_hal_msp.c ****     HAL_GPIO_Init(GPIOB, &GPIO_InitStruct);
ARM GAS  /var/folders/7p/1_dhylqx7nl5s8914_0f_4w00000gn/T//cc6PFu3c.s 			page 25


 861              		.loc 1 416 0
 862 0056 0593     		str	r3, [sp, #20]
 417:Src/stm32f4xx_hal_msp.c **** 
 863              		.loc 1 417 0
 864 0058 01A9     		add	r1, sp, #4
 865 005a 1A48     		ldr	r0, .L79+16
 866              	.LVL52:
 867 005c FFF7FEFF 		bl	HAL_GPIO_Init
 868              	.LVL53:
 869 0060 E0E7     		b	.L67
 870              	.LVL54:
 871              	.L76:
 435:Src/stm32f4xx_hal_msp.c ****     GPIO_InitStruct.Mode = GPIO_MODE_AF_PP;
 872              		.loc 1 435 0
 873 0062 0F23     		movs	r3, #15
 874 0064 0193     		str	r3, [sp, #4]
 436:Src/stm32f4xx_hal_msp.c ****     GPIO_InitStruct.Pull = GPIO_NOPULL;
 875              		.loc 1 436 0
 876 0066 0223     		movs	r3, #2
 877 0068 0293     		str	r3, [sp, #8]
 437:Src/stm32f4xx_hal_msp.c ****     GPIO_InitStruct.Speed = GPIO_SPEED_FREQ_LOW;
 878              		.loc 1 437 0
 879 006a 0022     		movs	r2, #0
 880 006c 0392     		str	r2, [sp, #12]
 438:Src/stm32f4xx_hal_msp.c ****     GPIO_InitStruct.Alternate = GPIO_AF2_TIM5;
 881              		.loc 1 438 0
 882 006e 0492     		str	r2, [sp, #16]
 439:Src/stm32f4xx_hal_msp.c ****     HAL_GPIO_Init(GPIOA, &GPIO_InitStruct);
 883              		.loc 1 439 0
 884 0070 0593     		str	r3, [sp, #20]
 440:Src/stm32f4xx_hal_msp.c **** 
 885              		.loc 1 440 0
 886 0072 01A9     		add	r1, sp, #4
 887 0074 1448     		ldr	r0, .L79+20
 888              	.LVL55:
 889 0076 FFF7FEFF 		bl	HAL_GPIO_Init
 890              	.LVL56:
 891 007a D3E7     		b	.L67
 892              	.LVL57:
 893              	.L77:
 455:Src/stm32f4xx_hal_msp.c ****     GPIO_InitStruct.Mode = GPIO_MODE_AF_PP;
 894              		.loc 1 455 0
 895 007c 4023     		movs	r3, #64
 896 007e 0193     		str	r3, [sp, #4]
 456:Src/stm32f4xx_hal_msp.c ****     GPIO_InitStruct.Pull = GPIO_NOPULL;
 897              		.loc 1 456 0
 898 0080 0223     		movs	r3, #2
 899 0082 0293     		str	r3, [sp, #8]
 457:Src/stm32f4xx_hal_msp.c ****     GPIO_InitStruct.Speed = GPIO_SPEED_FREQ_LOW;
 900              		.loc 1 457 0
 901 0084 0023     		movs	r3, #0
 902 0086 0393     		str	r3, [sp, #12]
 458:Src/stm32f4xx_hal_msp.c ****     GPIO_InitStruct.Alternate = GPIO_AF9_TIM13;
 903              		.loc 1 458 0
 904 0088 0493     		str	r3, [sp, #16]
 459:Src/stm32f4xx_hal_msp.c ****     HAL_GPIO_Init(HeaveStbdFwd_GPIO_Port, &GPIO_InitStruct);
 905              		.loc 1 459 0
ARM GAS  /var/folders/7p/1_dhylqx7nl5s8914_0f_4w00000gn/T//cc6PFu3c.s 			page 26


 906 008a 0923     		movs	r3, #9
 907 008c 0593     		str	r3, [sp, #20]
 460:Src/stm32f4xx_hal_msp.c **** 
 908              		.loc 1 460 0
 909 008e 01A9     		add	r1, sp, #4
 910 0090 0D48     		ldr	r0, .L79+20
 911              	.LVL58:
 912 0092 FFF7FEFF 		bl	HAL_GPIO_Init
 913              	.LVL59:
 914 0096 C5E7     		b	.L67
 915              	.LVL60:
 916              	.L78:
 475:Src/stm32f4xx_hal_msp.c ****     GPIO_InitStruct.Mode = GPIO_MODE_AF_PP;
 917              		.loc 1 475 0
 918 0098 8023     		movs	r3, #128
 919 009a 0193     		str	r3, [sp, #4]
 476:Src/stm32f4xx_hal_msp.c ****     GPIO_InitStruct.Pull = GPIO_NOPULL;
 920              		.loc 1 476 0
 921 009c 0223     		movs	r3, #2
 922 009e 0293     		str	r3, [sp, #8]
 477:Src/stm32f4xx_hal_msp.c ****     GPIO_InitStruct.Speed = GPIO_SPEED_FREQ_LOW;
 923              		.loc 1 477 0
 924 00a0 0023     		movs	r3, #0
 925 00a2 0393     		str	r3, [sp, #12]
 478:Src/stm32f4xx_hal_msp.c ****     GPIO_InitStruct.Alternate = GPIO_AF9_TIM14;
 926              		.loc 1 478 0
 927 00a4 0493     		str	r3, [sp, #16]
 479:Src/stm32f4xx_hal_msp.c ****     HAL_GPIO_Init(HeaveStbdAft_GPIO_Port, &GPIO_InitStruct);
 928              		.loc 1 479 0
 929 00a6 0923     		movs	r3, #9
 930 00a8 0593     		str	r3, [sp, #20]
 480:Src/stm32f4xx_hal_msp.c **** 
 931              		.loc 1 480 0
 932 00aa 01A9     		add	r1, sp, #4
 933 00ac 0648     		ldr	r0, .L79+20
 934              	.LVL61:
 935 00ae FFF7FEFF 		bl	HAL_GPIO_Init
 936              	.LVL62:
 937              		.loc 1 487 0
 938 00b2 B7E7     		b	.L67
 939              	.L80:
 940              		.align	2
 941              	.L79:
 942 00b4 00040040 		.word	1073742848
 943 00b8 000C0040 		.word	1073744896
 944 00bc 001C0040 		.word	1073748992
 945 00c0 00200040 		.word	1073750016
 946 00c4 00040240 		.word	1073873920
 947 00c8 00000240 		.word	1073872896
 948              		.cfi_endproc
 949              	.LFE133:
 951              		.section	.text.HAL_TIM_PWM_MspDeInit,"ax",%progbits
 952              		.align	1
 953              		.global	HAL_TIM_PWM_MspDeInit
 954              		.syntax unified
 955              		.thumb
 956              		.thumb_func
ARM GAS  /var/folders/7p/1_dhylqx7nl5s8914_0f_4w00000gn/T//cc6PFu3c.s 			page 27


 957              		.fpu fpv4-sp-d16
 959              	HAL_TIM_PWM_MspDeInit:
 960              	.LFB134:
 488:Src/stm32f4xx_hal_msp.c **** 
 489:Src/stm32f4xx_hal_msp.c **** void HAL_TIM_PWM_MspDeInit(TIM_HandleTypeDef* htim_pwm)
 490:Src/stm32f4xx_hal_msp.c **** {
 961              		.loc 1 490 0
 962              		.cfi_startproc
 963              		@ args = 0, pretend = 0, frame = 0
 964              		@ frame_needed = 0, uses_anonymous_args = 0
 965              		@ link register save eliminated.
 966              	.LVL63:
 491:Src/stm32f4xx_hal_msp.c **** 
 492:Src/stm32f4xx_hal_msp.c ****   if(htim_pwm->Instance==TIM2)
 967              		.loc 1 492 0
 968 0000 0368     		ldr	r3, [r0]
 969 0002 B3F1804F 		cmp	r3, #1073741824
 970 0006 06D0     		beq	.L85
 493:Src/stm32f4xx_hal_msp.c ****   {
 494:Src/stm32f4xx_hal_msp.c ****   /* USER CODE BEGIN TIM2_MspDeInit 0 */
 495:Src/stm32f4xx_hal_msp.c **** 
 496:Src/stm32f4xx_hal_msp.c ****   /* USER CODE END TIM2_MspDeInit 0 */
 497:Src/stm32f4xx_hal_msp.c ****     /* Peripheral clock disable */
 498:Src/stm32f4xx_hal_msp.c ****     __HAL_RCC_TIM2_CLK_DISABLE();
 499:Src/stm32f4xx_hal_msp.c ****   /* USER CODE BEGIN TIM2_MspDeInit 1 */
 500:Src/stm32f4xx_hal_msp.c **** 
 501:Src/stm32f4xx_hal_msp.c ****   /* USER CODE END TIM2_MspDeInit 1 */
 502:Src/stm32f4xx_hal_msp.c ****   }
 503:Src/stm32f4xx_hal_msp.c ****   else if(htim_pwm->Instance==TIM3)
 971              		.loc 1 503 0
 972 0008 0D4A     		ldr	r2, .L88
 973 000a 9342     		cmp	r3, r2
 974 000c 09D0     		beq	.L86
 504:Src/stm32f4xx_hal_msp.c ****   {
 505:Src/stm32f4xx_hal_msp.c ****   /* USER CODE BEGIN TIM3_MspDeInit 0 */
 506:Src/stm32f4xx_hal_msp.c **** 
 507:Src/stm32f4xx_hal_msp.c ****   /* USER CODE END TIM3_MspDeInit 0 */
 508:Src/stm32f4xx_hal_msp.c ****     /* Peripheral clock disable */
 509:Src/stm32f4xx_hal_msp.c ****     __HAL_RCC_TIM3_CLK_DISABLE();
 510:Src/stm32f4xx_hal_msp.c ****   /* USER CODE BEGIN TIM3_MspDeInit 1 */
 511:Src/stm32f4xx_hal_msp.c **** 
 512:Src/stm32f4xx_hal_msp.c ****   /* USER CODE END TIM3_MspDeInit 1 */
 513:Src/stm32f4xx_hal_msp.c ****   }
 514:Src/stm32f4xx_hal_msp.c ****   else if(htim_pwm->Instance==TIM5)
 975              		.loc 1 514 0
 976 000e 0D4A     		ldr	r2, .L88+4
 977 0010 9342     		cmp	r3, r2
 978 0012 0DD0     		beq	.L87
 979              	.L81:
 980 0014 7047     		bx	lr
 981              	.L85:
 498:Src/stm32f4xx_hal_msp.c ****   /* USER CODE BEGIN TIM2_MspDeInit 1 */
 982              		.loc 1 498 0
 983 0016 0C4A     		ldr	r2, .L88+8
 984 0018 136C     		ldr	r3, [r2, #64]
 985 001a 23F00103 		bic	r3, r3, #1
 986 001e 1364     		str	r3, [r2, #64]
ARM GAS  /var/folders/7p/1_dhylqx7nl5s8914_0f_4w00000gn/T//cc6PFu3c.s 			page 28


 987 0020 7047     		bx	lr
 988              	.L86:
 509:Src/stm32f4xx_hal_msp.c ****   /* USER CODE BEGIN TIM3_MspDeInit 1 */
 989              		.loc 1 509 0
 990 0022 02F50D32 		add	r2, r2, #144384
 991 0026 136C     		ldr	r3, [r2, #64]
 992 0028 23F00203 		bic	r3, r3, #2
 993 002c 1364     		str	r3, [r2, #64]
 994 002e 7047     		bx	lr
 995              	.L87:
 515:Src/stm32f4xx_hal_msp.c ****   {
 516:Src/stm32f4xx_hal_msp.c ****   /* USER CODE BEGIN TIM5_MspDeInit 0 */
 517:Src/stm32f4xx_hal_msp.c **** 
 518:Src/stm32f4xx_hal_msp.c ****   /* USER CODE END TIM5_MspDeInit 0 */
 519:Src/stm32f4xx_hal_msp.c ****     /* Peripheral clock disable */
 520:Src/stm32f4xx_hal_msp.c ****     __HAL_RCC_TIM5_CLK_DISABLE();
 996              		.loc 1 520 0
 997 0030 02F50B32 		add	r2, r2, #142336
 998 0034 136C     		ldr	r3, [r2, #64]
 999 0036 23F00803 		bic	r3, r3, #8
 1000 003a 1364     		str	r3, [r2, #64]
 521:Src/stm32f4xx_hal_msp.c ****   /* USER CODE BEGIN TIM5_MspDeInit 1 */
 522:Src/stm32f4xx_hal_msp.c **** 
 523:Src/stm32f4xx_hal_msp.c ****   /* USER CODE END TIM5_MspDeInit 1 */
 524:Src/stm32f4xx_hal_msp.c ****   }
 525:Src/stm32f4xx_hal_msp.c **** 
 526:Src/stm32f4xx_hal_msp.c **** }
 1001              		.loc 1 526 0
 1002 003c EAE7     		b	.L81
 1003              	.L89:
 1004 003e 00BF     		.align	2
 1005              	.L88:
 1006 0040 00040040 		.word	1073742848
 1007 0044 000C0040 		.word	1073744896
 1008 0048 00380240 		.word	1073887232
 1009              		.cfi_endproc
 1010              	.LFE134:
 1012              		.section	.text.HAL_TIM_Base_MspDeInit,"ax",%progbits
 1013              		.align	1
 1014              		.global	HAL_TIM_Base_MspDeInit
 1015              		.syntax unified
 1016              		.thumb
 1017              		.thumb_func
 1018              		.fpu fpv4-sp-d16
 1020              	HAL_TIM_Base_MspDeInit:
 1021              	.LFB135:
 527:Src/stm32f4xx_hal_msp.c **** 
 528:Src/stm32f4xx_hal_msp.c **** void HAL_TIM_Base_MspDeInit(TIM_HandleTypeDef* htim_base)
 529:Src/stm32f4xx_hal_msp.c **** {
 1022              		.loc 1 529 0
 1023              		.cfi_startproc
 1024              		@ args = 0, pretend = 0, frame = 0
 1025              		@ frame_needed = 0, uses_anonymous_args = 0
 1026              		@ link register save eliminated.
 1027              	.LVL64:
 530:Src/stm32f4xx_hal_msp.c **** 
 531:Src/stm32f4xx_hal_msp.c ****   if(htim_base->Instance==TIM13)
ARM GAS  /var/folders/7p/1_dhylqx7nl5s8914_0f_4w00000gn/T//cc6PFu3c.s 			page 29


 1028              		.loc 1 531 0
 1029 0000 0368     		ldr	r3, [r0]
 1030 0002 0A4A     		ldr	r2, .L95
 1031 0004 9342     		cmp	r3, r2
 1032 0006 03D0     		beq	.L93
 532:Src/stm32f4xx_hal_msp.c ****   {
 533:Src/stm32f4xx_hal_msp.c ****   /* USER CODE BEGIN TIM13_MspDeInit 0 */
 534:Src/stm32f4xx_hal_msp.c **** 
 535:Src/stm32f4xx_hal_msp.c ****   /* USER CODE END TIM13_MspDeInit 0 */
 536:Src/stm32f4xx_hal_msp.c ****     /* Peripheral clock disable */
 537:Src/stm32f4xx_hal_msp.c ****     __HAL_RCC_TIM13_CLK_DISABLE();
 538:Src/stm32f4xx_hal_msp.c ****   /* USER CODE BEGIN TIM13_MspDeInit 1 */
 539:Src/stm32f4xx_hal_msp.c **** 
 540:Src/stm32f4xx_hal_msp.c ****   /* USER CODE END TIM13_MspDeInit 1 */
 541:Src/stm32f4xx_hal_msp.c ****   }
 542:Src/stm32f4xx_hal_msp.c ****   else if(htim_base->Instance==TIM14)
 1033              		.loc 1 542 0
 1034 0008 094A     		ldr	r2, .L95+4
 1035 000a 9342     		cmp	r3, r2
 1036 000c 07D0     		beq	.L94
 1037              	.L90:
 1038 000e 7047     		bx	lr
 1039              	.L93:
 537:Src/stm32f4xx_hal_msp.c ****   /* USER CODE BEGIN TIM13_MspDeInit 1 */
 1040              		.loc 1 537 0
 1041 0010 02F50732 		add	r2, r2, #138240
 1042 0014 136C     		ldr	r3, [r2, #64]
 1043 0016 23F08003 		bic	r3, r3, #128
 1044 001a 1364     		str	r3, [r2, #64]
 1045 001c 7047     		bx	lr
 1046              	.L94:
 543:Src/stm32f4xx_hal_msp.c ****   {
 544:Src/stm32f4xx_hal_msp.c ****   /* USER CODE BEGIN TIM14_MspDeInit 0 */
 545:Src/stm32f4xx_hal_msp.c **** 
 546:Src/stm32f4xx_hal_msp.c ****   /* USER CODE END TIM14_MspDeInit 0 */
 547:Src/stm32f4xx_hal_msp.c ****     /* Peripheral clock disable */
 548:Src/stm32f4xx_hal_msp.c ****     __HAL_RCC_TIM14_CLK_DISABLE();
 1047              		.loc 1 548 0
 1048 001e 02F50632 		add	r2, r2, #137216
 1049 0022 136C     		ldr	r3, [r2, #64]
 1050 0024 23F48073 		bic	r3, r3, #256
 1051 0028 1364     		str	r3, [r2, #64]
 549:Src/stm32f4xx_hal_msp.c ****   /* USER CODE BEGIN TIM14_MspDeInit 1 */
 550:Src/stm32f4xx_hal_msp.c **** 
 551:Src/stm32f4xx_hal_msp.c ****   /* USER CODE END TIM14_MspDeInit 1 */
 552:Src/stm32f4xx_hal_msp.c ****   }
 553:Src/stm32f4xx_hal_msp.c **** 
 554:Src/stm32f4xx_hal_msp.c **** }
 1052              		.loc 1 554 0
 1053 002a F0E7     		b	.L90
 1054              	.L96:
 1055              		.align	2
 1056              	.L95:
 1057 002c 001C0040 		.word	1073748992
 1058 0030 00200040 		.word	1073750016
 1059              		.cfi_endproc
 1060              	.LFE135:
ARM GAS  /var/folders/7p/1_dhylqx7nl5s8914_0f_4w00000gn/T//cc6PFu3c.s 			page 30


 1062              		.text
 1063              	.Letext0:
 1064              		.file 2 "/Users/augustmason/Documents/gitHub/riptide_firmware/STM32/gcc-arm-none-eabi-6-2017-q2-up
 1065              		.file 3 "/Users/augustmason/Documents/gitHub/riptide_firmware/STM32/gcc-arm-none-eabi-6-2017-q2-up
 1066              		.file 4 "Drivers/CMSIS/Include/core_cm4.h"
 1067              		.file 5 "Drivers/CMSIS/Device/ST/STM32F4xx/Include/system_stm32f4xx.h"
 1068              		.file 6 "Drivers/CMSIS/Device/ST/STM32F4xx/Include/stm32f405xx.h"
 1069              		.file 7 "/Users/augustmason/Documents/gitHub/riptide_firmware/STM32/gcc-arm-none-eabi-6-2017-q2-up
 1070              		.file 8 "/Users/augustmason/Documents/gitHub/riptide_firmware/STM32/gcc-arm-none-eabi-6-2017-q2-up
 1071              		.file 9 "/Users/augustmason/Documents/gitHub/riptide_firmware/STM32/gcc-arm-none-eabi-6-2017-q2-up
 1072              		.file 10 "/Users/augustmason/Documents/gitHub/riptide_firmware/STM32/gcc-arm-none-eabi-6-2017-q2-u
 1073              		.file 11 "Drivers/STM32F4xx_HAL_Driver/Inc/stm32f4xx_hal_def.h"
 1074              		.file 12 "Drivers/STM32F4xx_HAL_Driver/Inc/stm32f4xx_hal_gpio.h"
 1075              		.file 13 "Drivers/STM32F4xx_HAL_Driver/Inc/stm32f4xx_hal_dma.h"
 1076              		.file 14 "Drivers/STM32F4xx_HAL_Driver/Inc/stm32f4xx_hal_can.h"
 1077              		.file 15 "Drivers/STM32F4xx_HAL_Driver/Inc/stm32f4xx_hal_i2c.h"
 1078              		.file 16 "Drivers/STM32F4xx_HAL_Driver/Inc/stm32f4xx_ll_sdmmc.h"
 1079              		.file 17 "Drivers/STM32F4xx_HAL_Driver/Inc/stm32f4xx_hal_sd.h"
 1080              		.file 18 "Drivers/STM32F4xx_HAL_Driver/Inc/stm32f4xx_hal_tim.h"
 1081              		.file 19 "Drivers/STM32F4xx_HAL_Driver/Inc/stm32f4xx_hal_cortex.h"
ARM GAS  /var/folders/7p/1_dhylqx7nl5s8914_0f_4w00000gn/T//cc6PFu3c.s 			page 31

