ARM GAS  /var/folders/7p/1_dhylqx7nl5s8914_0f_4w00000gn/T//cck1fhYe.s 			page 1


   1              		.cpu cortex-m4
   2              		.eabi_attribute 27, 1
   3              		.eabi_attribute 28, 1
   4              		.eabi_attribute 20, 1
   5              		.eabi_attribute 21, 1
   6              		.eabi_attribute 23, 3
   7              		.eabi_attribute 24, 1
   8              		.eabi_attribute 25, 1
   9              		.eabi_attribute 26, 1
  10              		.eabi_attribute 30, 1
  11              		.eabi_attribute 34, 1
  12              		.eabi_attribute 18, 4
  13              		.file	"stm32f4xx_it.c"
  14              		.text
  15              	.Ltext0:
  16              		.cfi_sections	.debug_frame
  17              		.section	.text.NMI_Handler,"ax",%progbits
  18              		.align	1
  19              		.global	NMI_Handler
  20              		.syntax unified
  21              		.thumb
  22              		.thumb_func
  23              		.fpu fpv4-sp-d16
  25              	NMI_Handler:
  26              	.LFB129:
  27              		.file 1 "Src/stm32f4xx_it.c"
   1:Src/stm32f4xx_it.c **** /**
   2:Src/stm32f4xx_it.c ****   ******************************************************************************
   3:Src/stm32f4xx_it.c ****   * @file    stm32f4xx_it.c
   4:Src/stm32f4xx_it.c ****   * @brief   Interrupt Service Routines.
   5:Src/stm32f4xx_it.c ****   ******************************************************************************
   6:Src/stm32f4xx_it.c ****   *
   7:Src/stm32f4xx_it.c ****   * COPYRIGHT(c) 2018 STMicroelectronics
   8:Src/stm32f4xx_it.c ****   *
   9:Src/stm32f4xx_it.c ****   * Redistribution and use in source and binary forms, with or without modification,
  10:Src/stm32f4xx_it.c ****   * are permitted provided that the following conditions are met:
  11:Src/stm32f4xx_it.c ****   *   1. Redistributions of source code must retain the above copyright notice,
  12:Src/stm32f4xx_it.c ****   *      this list of conditions and the following disclaimer.
  13:Src/stm32f4xx_it.c ****   *   2. Redistributions in binary form must reproduce the above copyright notice,
  14:Src/stm32f4xx_it.c ****   *      this list of conditions and the following disclaimer in the documentation
  15:Src/stm32f4xx_it.c ****   *      and/or other materials provided with the distribution.
  16:Src/stm32f4xx_it.c ****   *   3. Neither the name of STMicroelectronics nor the names of its contributors
  17:Src/stm32f4xx_it.c ****   *      may be used to endorse or promote products derived from this software
  18:Src/stm32f4xx_it.c ****   *      without specific prior written permission.
  19:Src/stm32f4xx_it.c ****   *
  20:Src/stm32f4xx_it.c ****   * THIS SOFTWARE IS PROVIDED BY THE COPYRIGHT HOLDERS AND CONTRIBUTORS "AS IS"
  21:Src/stm32f4xx_it.c ****   * AND ANY EXPRESS OR IMPLIED WARRANTIES, INCLUDING, BUT NOT LIMITED TO, THE
  22:Src/stm32f4xx_it.c ****   * IMPLIED WARRANTIES OF MERCHANTABILITY AND FITNESS FOR A PARTICULAR PURPOSE ARE
  23:Src/stm32f4xx_it.c ****   * DISCLAIMED. IN NO EVENT SHALL THE COPYRIGHT HOLDER OR CONTRIBUTORS BE LIABLE
  24:Src/stm32f4xx_it.c ****   * FOR ANY DIRECT, INDIRECT, INCIDENTAL, SPECIAL, EXEMPLARY, OR CONSEQUENTIAL
  25:Src/stm32f4xx_it.c ****   * DAMAGES (INCLUDING, BUT NOT LIMITED TO, PROCUREMENT OF SUBSTITUTE GOODS OR
  26:Src/stm32f4xx_it.c ****   * SERVICES; LOSS OF USE, DATA, OR PROFITS; OR BUSINESS INTERRUPTION) HOWEVER
  27:Src/stm32f4xx_it.c ****   * CAUSED AND ON ANY THEORY OF LIABILITY, WHETHER IN CONTRACT, STRICT LIABILITY,
  28:Src/stm32f4xx_it.c ****   * OR TORT (INCLUDING NEGLIGENCE OR OTHERWISE) ARISING IN ANY WAY OUT OF THE USE
  29:Src/stm32f4xx_it.c ****   * OF THIS SOFTWARE, EVEN IF ADVISED OF THE POSSIBILITY OF SUCH DAMAGE.
  30:Src/stm32f4xx_it.c ****   *
  31:Src/stm32f4xx_it.c ****   ******************************************************************************
ARM GAS  /var/folders/7p/1_dhylqx7nl5s8914_0f_4w00000gn/T//cck1fhYe.s 			page 2


  32:Src/stm32f4xx_it.c ****   */
  33:Src/stm32f4xx_it.c **** /* Includes ------------------------------------------------------------------*/
  34:Src/stm32f4xx_it.c **** #include "stm32f4xx_hal.h"
  35:Src/stm32f4xx_it.c **** #include "stm32f4xx.h"
  36:Src/stm32f4xx_it.c **** #include "stm32f4xx_it.h"
  37:Src/stm32f4xx_it.c **** #include "cmsis_os.h"
  38:Src/stm32f4xx_it.c **** 
  39:Src/stm32f4xx_it.c **** /* USER CODE BEGIN 0 */
  40:Src/stm32f4xx_it.c **** 
  41:Src/stm32f4xx_it.c **** /* USER CODE END 0 */
  42:Src/stm32f4xx_it.c **** 
  43:Src/stm32f4xx_it.c **** /* External variables --------------------------------------------------------*/
  44:Src/stm32f4xx_it.c **** extern PCD_HandleTypeDef hpcd_USB_OTG_HS;
  45:Src/stm32f4xx_it.c **** 
  46:Src/stm32f4xx_it.c **** extern TIM_HandleTypeDef htim1;
  47:Src/stm32f4xx_it.c **** 
  48:Src/stm32f4xx_it.c **** /******************************************************************************/
  49:Src/stm32f4xx_it.c **** /*            Cortex-M4 Processor Interruption and Exception Handlers         */ 
  50:Src/stm32f4xx_it.c **** /******************************************************************************/
  51:Src/stm32f4xx_it.c **** 
  52:Src/stm32f4xx_it.c **** /**
  53:Src/stm32f4xx_it.c **** * @brief This function handles Non maskable interrupt.
  54:Src/stm32f4xx_it.c **** */
  55:Src/stm32f4xx_it.c **** void NMI_Handler(void)
  56:Src/stm32f4xx_it.c **** {
  28              		.loc 1 56 0
  29              		.cfi_startproc
  30              		@ args = 0, pretend = 0, frame = 0
  31              		@ frame_needed = 0, uses_anonymous_args = 0
  32              		@ link register save eliminated.
  33 0000 7047     		bx	lr
  34              		.cfi_endproc
  35              	.LFE129:
  37              		.section	.text.HardFault_Handler,"ax",%progbits
  38              		.align	1
  39              		.global	HardFault_Handler
  40              		.syntax unified
  41              		.thumb
  42              		.thumb_func
  43              		.fpu fpv4-sp-d16
  45              	HardFault_Handler:
  46              	.LFB130:
  57:Src/stm32f4xx_it.c ****   /* USER CODE BEGIN NonMaskableInt_IRQn 0 */
  58:Src/stm32f4xx_it.c **** 
  59:Src/stm32f4xx_it.c ****   /* USER CODE END NonMaskableInt_IRQn 0 */
  60:Src/stm32f4xx_it.c ****   /* USER CODE BEGIN NonMaskableInt_IRQn 1 */
  61:Src/stm32f4xx_it.c **** 
  62:Src/stm32f4xx_it.c ****   /* USER CODE END NonMaskableInt_IRQn 1 */
  63:Src/stm32f4xx_it.c **** }
  64:Src/stm32f4xx_it.c **** 
  65:Src/stm32f4xx_it.c **** /**
  66:Src/stm32f4xx_it.c **** * @brief This function handles Hard fault interrupt.
  67:Src/stm32f4xx_it.c **** */
  68:Src/stm32f4xx_it.c **** void HardFault_Handler(void)
  69:Src/stm32f4xx_it.c **** {
  47              		.loc 1 69 0
  48              		.cfi_startproc
ARM GAS  /var/folders/7p/1_dhylqx7nl5s8914_0f_4w00000gn/T//cck1fhYe.s 			page 3


  49              		@ Volatile: function does not return.
  50              		@ args = 0, pretend = 0, frame = 0
  51              		@ frame_needed = 0, uses_anonymous_args = 0
  52              		@ link register save eliminated.
  53              	.L3:
  54 0000 FEE7     		b	.L3
  55              		.cfi_endproc
  56              	.LFE130:
  58              		.section	.text.MemManage_Handler,"ax",%progbits
  59              		.align	1
  60              		.global	MemManage_Handler
  61              		.syntax unified
  62              		.thumb
  63              		.thumb_func
  64              		.fpu fpv4-sp-d16
  66              	MemManage_Handler:
  67              	.LFB131:
  70:Src/stm32f4xx_it.c ****   /* USER CODE BEGIN HardFault_IRQn 0 */
  71:Src/stm32f4xx_it.c **** 
  72:Src/stm32f4xx_it.c ****   /* USER CODE END HardFault_IRQn 0 */
  73:Src/stm32f4xx_it.c ****   while (1)
  74:Src/stm32f4xx_it.c ****   {
  75:Src/stm32f4xx_it.c ****   }
  76:Src/stm32f4xx_it.c ****   /* USER CODE BEGIN HardFault_IRQn 1 */
  77:Src/stm32f4xx_it.c **** 
  78:Src/stm32f4xx_it.c ****   /* USER CODE END HardFault_IRQn 1 */
  79:Src/stm32f4xx_it.c **** }
  80:Src/stm32f4xx_it.c **** 
  81:Src/stm32f4xx_it.c **** /**
  82:Src/stm32f4xx_it.c **** * @brief This function handles Memory management fault.
  83:Src/stm32f4xx_it.c **** */
  84:Src/stm32f4xx_it.c **** void MemManage_Handler(void)
  85:Src/stm32f4xx_it.c **** {
  68              		.loc 1 85 0
  69              		.cfi_startproc
  70              		@ Volatile: function does not return.
  71              		@ args = 0, pretend = 0, frame = 0
  72              		@ frame_needed = 0, uses_anonymous_args = 0
  73              		@ link register save eliminated.
  74              	.L5:
  75 0000 FEE7     		b	.L5
  76              		.cfi_endproc
  77              	.LFE131:
  79              		.section	.text.BusFault_Handler,"ax",%progbits
  80              		.align	1
  81              		.global	BusFault_Handler
  82              		.syntax unified
  83              		.thumb
  84              		.thumb_func
  85              		.fpu fpv4-sp-d16
  87              	BusFault_Handler:
  88              	.LFB132:
  86:Src/stm32f4xx_it.c ****   /* USER CODE BEGIN MemoryManagement_IRQn 0 */
  87:Src/stm32f4xx_it.c **** 
  88:Src/stm32f4xx_it.c ****   /* USER CODE END MemoryManagement_IRQn 0 */
  89:Src/stm32f4xx_it.c ****   while (1)
  90:Src/stm32f4xx_it.c ****   {
ARM GAS  /var/folders/7p/1_dhylqx7nl5s8914_0f_4w00000gn/T//cck1fhYe.s 			page 4


  91:Src/stm32f4xx_it.c ****   }
  92:Src/stm32f4xx_it.c ****   /* USER CODE BEGIN MemoryManagement_IRQn 1 */
  93:Src/stm32f4xx_it.c **** 
  94:Src/stm32f4xx_it.c ****   /* USER CODE END MemoryManagement_IRQn 1 */
  95:Src/stm32f4xx_it.c **** }
  96:Src/stm32f4xx_it.c **** 
  97:Src/stm32f4xx_it.c **** /**
  98:Src/stm32f4xx_it.c **** * @brief This function handles Pre-fetch fault, memory access fault.
  99:Src/stm32f4xx_it.c **** */
 100:Src/stm32f4xx_it.c **** void BusFault_Handler(void)
 101:Src/stm32f4xx_it.c **** {
  89              		.loc 1 101 0
  90              		.cfi_startproc
  91              		@ Volatile: function does not return.
  92              		@ args = 0, pretend = 0, frame = 0
  93              		@ frame_needed = 0, uses_anonymous_args = 0
  94              		@ link register save eliminated.
  95              	.L7:
  96 0000 FEE7     		b	.L7
  97              		.cfi_endproc
  98              	.LFE132:
 100              		.section	.text.UsageFault_Handler,"ax",%progbits
 101              		.align	1
 102              		.global	UsageFault_Handler
 103              		.syntax unified
 104              		.thumb
 105              		.thumb_func
 106              		.fpu fpv4-sp-d16
 108              	UsageFault_Handler:
 109              	.LFB133:
 102:Src/stm32f4xx_it.c ****   /* USER CODE BEGIN BusFault_IRQn 0 */
 103:Src/stm32f4xx_it.c **** 
 104:Src/stm32f4xx_it.c ****   /* USER CODE END BusFault_IRQn 0 */
 105:Src/stm32f4xx_it.c ****   while (1)
 106:Src/stm32f4xx_it.c ****   {
 107:Src/stm32f4xx_it.c ****   }
 108:Src/stm32f4xx_it.c ****   /* USER CODE BEGIN BusFault_IRQn 1 */
 109:Src/stm32f4xx_it.c **** 
 110:Src/stm32f4xx_it.c ****   /* USER CODE END BusFault_IRQn 1 */
 111:Src/stm32f4xx_it.c **** }
 112:Src/stm32f4xx_it.c **** 
 113:Src/stm32f4xx_it.c **** /**
 114:Src/stm32f4xx_it.c **** * @brief This function handles Undefined instruction or illegal state.
 115:Src/stm32f4xx_it.c **** */
 116:Src/stm32f4xx_it.c **** void UsageFault_Handler(void)
 117:Src/stm32f4xx_it.c **** {
 110              		.loc 1 117 0
 111              		.cfi_startproc
 112              		@ Volatile: function does not return.
 113              		@ args = 0, pretend = 0, frame = 0
 114              		@ frame_needed = 0, uses_anonymous_args = 0
 115              		@ link register save eliminated.
 116              	.L9:
 117 0000 FEE7     		b	.L9
 118              		.cfi_endproc
 119              	.LFE133:
 121              		.section	.text.DebugMon_Handler,"ax",%progbits
ARM GAS  /var/folders/7p/1_dhylqx7nl5s8914_0f_4w00000gn/T//cck1fhYe.s 			page 5


 122              		.align	1
 123              		.global	DebugMon_Handler
 124              		.syntax unified
 125              		.thumb
 126              		.thumb_func
 127              		.fpu fpv4-sp-d16
 129              	DebugMon_Handler:
 130              	.LFB134:
 118:Src/stm32f4xx_it.c ****   /* USER CODE BEGIN UsageFault_IRQn 0 */
 119:Src/stm32f4xx_it.c **** 
 120:Src/stm32f4xx_it.c ****   /* USER CODE END UsageFault_IRQn 0 */
 121:Src/stm32f4xx_it.c ****   while (1)
 122:Src/stm32f4xx_it.c ****   {
 123:Src/stm32f4xx_it.c ****   }
 124:Src/stm32f4xx_it.c ****   /* USER CODE BEGIN UsageFault_IRQn 1 */
 125:Src/stm32f4xx_it.c **** 
 126:Src/stm32f4xx_it.c ****   /* USER CODE END UsageFault_IRQn 1 */
 127:Src/stm32f4xx_it.c **** }
 128:Src/stm32f4xx_it.c **** 
 129:Src/stm32f4xx_it.c **** /**
 130:Src/stm32f4xx_it.c **** * @brief This function handles Debug monitor.
 131:Src/stm32f4xx_it.c **** */
 132:Src/stm32f4xx_it.c **** void DebugMon_Handler(void)
 133:Src/stm32f4xx_it.c **** {
 131              		.loc 1 133 0
 132              		.cfi_startproc
 133              		@ args = 0, pretend = 0, frame = 0
 134              		@ frame_needed = 0, uses_anonymous_args = 0
 135              		@ link register save eliminated.
 136 0000 7047     		bx	lr
 137              		.cfi_endproc
 138              	.LFE134:
 140              		.section	.text.SysTick_Handler,"ax",%progbits
 141              		.align	1
 142              		.global	SysTick_Handler
 143              		.syntax unified
 144              		.thumb
 145              		.thumb_func
 146              		.fpu fpv4-sp-d16
 148              	SysTick_Handler:
 149              	.LFB135:
 134:Src/stm32f4xx_it.c ****   /* USER CODE BEGIN DebugMonitor_IRQn 0 */
 135:Src/stm32f4xx_it.c **** 
 136:Src/stm32f4xx_it.c ****   /* USER CODE END DebugMonitor_IRQn 0 */
 137:Src/stm32f4xx_it.c ****   /* USER CODE BEGIN DebugMonitor_IRQn 1 */
 138:Src/stm32f4xx_it.c **** 
 139:Src/stm32f4xx_it.c ****   /* USER CODE END DebugMonitor_IRQn 1 */
 140:Src/stm32f4xx_it.c **** }
 141:Src/stm32f4xx_it.c **** 
 142:Src/stm32f4xx_it.c **** /**
 143:Src/stm32f4xx_it.c **** * @brief This function handles System tick timer.
 144:Src/stm32f4xx_it.c **** */
 145:Src/stm32f4xx_it.c **** void SysTick_Handler(void)
 146:Src/stm32f4xx_it.c **** {
 150              		.loc 1 146 0
 151              		.cfi_startproc
 152              		@ args = 0, pretend = 0, frame = 0
ARM GAS  /var/folders/7p/1_dhylqx7nl5s8914_0f_4w00000gn/T//cck1fhYe.s 			page 6


 153              		@ frame_needed = 0, uses_anonymous_args = 0
 154              		.loc 1 146 0
 155 0000 08B5     		push	{r3, lr}
 156              	.LCFI0:
 157              		.cfi_def_cfa_offset 8
 158              		.cfi_offset 3, -8
 159              		.cfi_offset 14, -4
 147:Src/stm32f4xx_it.c ****   /* USER CODE BEGIN SysTick_IRQn 0 */
 148:Src/stm32f4xx_it.c **** 
 149:Src/stm32f4xx_it.c ****   /* USER CODE END SysTick_IRQn 0 */
 150:Src/stm32f4xx_it.c ****   osSystickHandler();
 160              		.loc 1 150 0
 161 0002 FFF7FEFF 		bl	osSystickHandler
 162              	.LVL0:
 163 0006 08BD     		pop	{r3, pc}
 164              		.cfi_endproc
 165              	.LFE135:
 167              		.section	.text.TIM1_UP_TIM10_IRQHandler,"ax",%progbits
 168              		.align	1
 169              		.global	TIM1_UP_TIM10_IRQHandler
 170              		.syntax unified
 171              		.thumb
 172              		.thumb_func
 173              		.fpu fpv4-sp-d16
 175              	TIM1_UP_TIM10_IRQHandler:
 176              	.LFB136:
 151:Src/stm32f4xx_it.c ****   /* USER CODE BEGIN SysTick_IRQn 1 */
 152:Src/stm32f4xx_it.c **** 
 153:Src/stm32f4xx_it.c ****   /* USER CODE END SysTick_IRQn 1 */
 154:Src/stm32f4xx_it.c **** }
 155:Src/stm32f4xx_it.c **** 
 156:Src/stm32f4xx_it.c **** /******************************************************************************/
 157:Src/stm32f4xx_it.c **** /* STM32F4xx Peripheral Interrupt Handlers                                    */
 158:Src/stm32f4xx_it.c **** /* Add here the Interrupt Handlers for the used peripherals.                  */
 159:Src/stm32f4xx_it.c **** /* For the available peripheral interrupt handler names,                      */
 160:Src/stm32f4xx_it.c **** /* please refer to the startup file (startup_stm32f4xx.s).                    */
 161:Src/stm32f4xx_it.c **** /******************************************************************************/
 162:Src/stm32f4xx_it.c **** 
 163:Src/stm32f4xx_it.c **** /**
 164:Src/stm32f4xx_it.c **** * @brief This function handles TIM1 update interrupt and TIM10 global interrupt.
 165:Src/stm32f4xx_it.c **** */
 166:Src/stm32f4xx_it.c **** void TIM1_UP_TIM10_IRQHandler(void)
 167:Src/stm32f4xx_it.c **** {
 177              		.loc 1 167 0
 178              		.cfi_startproc
 179              		@ args = 0, pretend = 0, frame = 0
 180              		@ frame_needed = 0, uses_anonymous_args = 0
 181 0000 08B5     		push	{r3, lr}
 182              	.LCFI1:
 183              		.cfi_def_cfa_offset 8
 184              		.cfi_offset 3, -8
 185              		.cfi_offset 14, -4
 168:Src/stm32f4xx_it.c ****   /* USER CODE BEGIN TIM1_UP_TIM10_IRQn 0 */
 169:Src/stm32f4xx_it.c **** 
 170:Src/stm32f4xx_it.c ****   /* USER CODE END TIM1_UP_TIM10_IRQn 0 */
 171:Src/stm32f4xx_it.c ****   HAL_TIM_IRQHandler(&htim1);
 186              		.loc 1 171 0
ARM GAS  /var/folders/7p/1_dhylqx7nl5s8914_0f_4w00000gn/T//cck1fhYe.s 			page 7


 187 0002 0248     		ldr	r0, .L15
 188 0004 FFF7FEFF 		bl	HAL_TIM_IRQHandler
 189              	.LVL1:
 190 0008 08BD     		pop	{r3, pc}
 191              	.L16:
 192 000a 00BF     		.align	2
 193              	.L15:
 194 000c 00000000 		.word	htim1
 195              		.cfi_endproc
 196              	.LFE136:
 198              		.section	.text.OTG_HS_IRQHandler,"ax",%progbits
 199              		.align	1
 200              		.global	OTG_HS_IRQHandler
 201              		.syntax unified
 202              		.thumb
 203              		.thumb_func
 204              		.fpu fpv4-sp-d16
 206              	OTG_HS_IRQHandler:
 207              	.LFB137:
 172:Src/stm32f4xx_it.c ****   /* USER CODE BEGIN TIM1_UP_TIM10_IRQn 1 */
 173:Src/stm32f4xx_it.c **** 
 174:Src/stm32f4xx_it.c ****   /* USER CODE END TIM1_UP_TIM10_IRQn 1 */
 175:Src/stm32f4xx_it.c **** }
 176:Src/stm32f4xx_it.c **** 
 177:Src/stm32f4xx_it.c **** /**
 178:Src/stm32f4xx_it.c **** * @brief This function handles USB On The Go HS global interrupt.
 179:Src/stm32f4xx_it.c **** */
 180:Src/stm32f4xx_it.c **** void OTG_HS_IRQHandler(void)
 181:Src/stm32f4xx_it.c **** {
 208              		.loc 1 181 0
 209              		.cfi_startproc
 210              		@ args = 0, pretend = 0, frame = 0
 211              		@ frame_needed = 0, uses_anonymous_args = 0
 212 0000 08B5     		push	{r3, lr}
 213              	.LCFI2:
 214              		.cfi_def_cfa_offset 8
 215              		.cfi_offset 3, -8
 216              		.cfi_offset 14, -4
 182:Src/stm32f4xx_it.c ****   /* USER CODE BEGIN OTG_HS_IRQn 0 */
 183:Src/stm32f4xx_it.c **** 
 184:Src/stm32f4xx_it.c ****   /* USER CODE END OTG_HS_IRQn 0 */
 185:Src/stm32f4xx_it.c ****   HAL_PCD_IRQHandler(&hpcd_USB_OTG_HS);
 217              		.loc 1 185 0
 218 0002 0248     		ldr	r0, .L19
 219 0004 FFF7FEFF 		bl	HAL_PCD_IRQHandler
 220              	.LVL2:
 221 0008 08BD     		pop	{r3, pc}
 222              	.L20:
 223 000a 00BF     		.align	2
 224              	.L19:
 225 000c 00000000 		.word	hpcd_USB_OTG_HS
 226              		.cfi_endproc
 227              	.LFE137:
 229              		.text
 230              	.Letext0:
 231              		.file 2 "/Users/augustmason/Documents/gitHub/riptide_firmware/STM32/gcc-arm-none-eabi-6-2017-q2-up
 232              		.file 3 "/Users/augustmason/Documents/gitHub/riptide_firmware/STM32/gcc-arm-none-eabi-6-2017-q2-up
ARM GAS  /var/folders/7p/1_dhylqx7nl5s8914_0f_4w00000gn/T//cck1fhYe.s 			page 8


 233              		.file 4 "Drivers/CMSIS/Include/core_cm4.h"
 234              		.file 5 "Drivers/CMSIS/Device/ST/STM32F4xx/Include/system_stm32f4xx.h"
 235              		.file 6 "Drivers/CMSIS/Device/ST/STM32F4xx/Include/stm32f405xx.h"
 236              		.file 7 "/Users/augustmason/Documents/gitHub/riptide_firmware/STM32/gcc-arm-none-eabi-6-2017-q2-up
 237              		.file 8 "/Users/augustmason/Documents/gitHub/riptide_firmware/STM32/gcc-arm-none-eabi-6-2017-q2-up
 238              		.file 9 "/Users/augustmason/Documents/gitHub/riptide_firmware/STM32/gcc-arm-none-eabi-6-2017-q2-up
 239              		.file 10 "/Users/augustmason/Documents/gitHub/riptide_firmware/STM32/gcc-arm-none-eabi-6-2017-q2-u
 240              		.file 11 "Drivers/STM32F4xx_HAL_Driver/Inc/stm32f4xx_hal_def.h"
 241              		.file 12 "Drivers/STM32F4xx_HAL_Driver/Inc/stm32f4xx_hal_dma.h"
 242              		.file 13 "Drivers/STM32F4xx_HAL_Driver/Inc/stm32f4xx_hal_tim.h"
 243              		.file 14 "Drivers/STM32F4xx_HAL_Driver/Inc/stm32f4xx_ll_usb.h"
 244              		.file 15 "Drivers/STM32F4xx_HAL_Driver/Inc/stm32f4xx_hal_pcd.h"
 245              		.file 16 "Middlewares/Third_Party/FreeRTOS/Source/CMSIS_RTOS/cmsis_os.h"
ARM GAS  /var/folders/7p/1_dhylqx7nl5s8914_0f_4w00000gn/T//cck1fhYe.s 			page 9

